(dp1
S'CHEMBL549'
p2
(lp3
S'P31645'
p4
asS'CHEMBL58323'
p5
(lp6
S'Q99250'
p7
asS'CHEMBL811'
p8
(lp9
S'P35367'
p10
asS'CHEMBL813'
p11
(lp12
S'P30556'
p13
asS'CHEMBL814'
p14
(lp15
g4
asS'CHEMBL817'
p16
(lp17
S'Q14654'
p18
asS'CHEMBL544'
p19
(lp20
S'P14679'
p21
asS'CHEMBL460'
p22
(lp23
S'P28223'
p24
aS'P14416'
p25
asS'CHEMBL467'
p26
(lp27
S'P31350'
p28
asS'CHEMBL1624'
p29
(lp30
S'P10827'
p31
asS'CHEMBL469'
p32
(lp33
S'P23219'
p34
asS'CHEMBL1626'
p35
(lp36
g10
asS'CHEMBL1621'
p37
(lp38
g24
ag25
asS'CHEMBL1623'
p39
(lp40
g10
asS'CHEMBL959'
p41
(lp42
S'P63231'
p43
asS'CHEMBL455'
p44
(lp45
S'P0AC13'
p46
asS'CHEMBL940'
p47
(lp48
S'Q13936'
p49
asS'CHEMBL454'
p50
(lp51
S'P18507'
p52
asS'CHEMBL1087'
p53
(lp54
g7
asS'CHEMBL864'
p55
(lp56
g10
asS'CHEMBL865'
p57
(lp58
S'P35354'
p59
asS'CHEMBL866'
p60
(lp61
S'P12268'
p62
asS'CHEMBL104'
p63
(lp64
S'P10613'
p65
asS'CHEMBL861'
p66
(lp67
g7
asS'CHEMBL862'
p68
(lp69
S'P18825'
p70
asS'CHEMBL15770'
p71
(lp72
g34
asS'CHEMBL546'
p73
(lp74
S'P08588'
p75
aS'P07550'
p76
asS'CHEMBL809'
p77
(lp78
g4
asS'CHEMBL1200438'
p79
(lp80
g65
asS'CHEMBL1201217'
p81
(lp82
g7
asS'CHEMBL1201216'
p83
(lp84
S'P35348'
p85
asS'CHEMBL1201213'
p86
(lp87
g76
asS'CHEMBL1201212'
p88
(lp89
S'P25100'
p90
asS'CHEMBL1201210'
p91
(lp92
g10
asS'CHEMBL612'
p93
(lp94
S'Q05940'
p95
aS'Q01959'
p96
aS'P23975'
p97
asS'CHEMBL1200826'
p98
(lp99
S'P29218'
p100
aS'P49841'
p101
asS'CHEMBL1201196'
p102
(lp103
g65
asS'CHEMBL1201197'
p104
(lp105
S'P0AES6'
p106
aS'P0AFI2'
p107
asS'CHEMBL1229517'
p108
(lp109
S'P15056'
p110
asS'CHEMBL1201192'
p111
(lp112
g96
asS'CHEMBL1201193'
p113
(lp114
S'P35499'
p115
asS'CHEMBL954'
p116
(lp117
S'P03372'
p118
asS'CHEMBL168815'
p119
(lp120
S'P20309'
p121
aS'P11229'
p122
asS'CHEMBL2107333'
p123
(lp124
S'Q14145'
p125
asS'CHEMBL409542'
p126
(lp127
S'Q2G113'
p128
aS'P66446'
p129
asS'CHEMBL956'
p130
(lp131
g34
asS'CHEMBL1120'
p132
(lp133
g34
asS'CHEMBL1242'
p134
(lp135
g7
asS'CHEMBL1241'
p136
(lp137
g10
asS'CHEMBL41355'
p138
(lp139
S'P51787'
p140
asS'CHEMBL43154'
p141
(lp142
S'Q9BQB6'
p143
asS'CHEMBL822'
p144
(lp145
S'Q4JEY0'
p146
asS'CHEMBL1371'
p147
(lp148
S'O15554'
p149
asS'CHEMBL2104993'
p150
(lp151
S'P46098'
p152
ag4
aS'P08908'
p153
asS'CHEMBL175691'
p154
(lp155
S'Q72547'
p156
asS'CHEMBL1098'
p157
(lp158
g115
asS'CHEMBL376488'
p159
(lp160
S'P63656'
p161
asS'CHEMBL1201203'
p162
(lp163
g122
asS'CHEMBL1237'
p164
(lp165
S'P12821'
p166
asS'CHEMBL1231'
p167
(lp168
S'P08172'
p169
ag121
asS'CHEMBL223228'
p170
(lp171
g156
asS'CHEMBL1337'
p172
(lp173
S'P32754'
p174
asS'CHEMBL2107834'
p175
(lp176
S'Q02108'
p177
asS'CHEMBL431'
p178
(lp179
g166
asS'CHEMBL723'
p180
(lp181
g90
aS'P08588'
p182
asS'CHEMBL1148'
p183
(lp184
S'Q13621'
p185
asS'CHEMBL727'
p186
(lp187
g62
asS'CHEMBL905'
p188
(lp189
S'P28222'
p190
aS'P28221'
p191
asS'CHEMBL1419'
p192
(lp193
S'P23975'
p194
asS'CHEMBL640'
p195
(lp196
g7
asS'CHEMBL641'
p197
(lp198
g97
asS'CHEMBL729'
p199
(lp200
S'Q72874'
p201
asS'CHEMBL643'
p202
(lp203
g10
asS'CHEMBL644'
p204
(lp205
g90
ag10
ag97
ag24
aS'P28335'
p206
ag25
asS'CHEMBL645'
p207
(lp208
g75
asS'CHEMBL1068'
p209
(lp210
g7
asS'CHEMBL647'
p211
(lp212
g70
asS'CHEMBL1544'
p213
(lp214
g31
asS'CHEMBL1200761'
p215
(lp216
S'Q92731'
p217
asS'CHEMBL58'
p218
(lp219
S'P11388'
p220
asS'CHEMBL59'
p221
(lp222
g75
asS'CHEMBL1093'
p223
(lp224
g7
asS'CHEMBL57'
p225
(lp226
g156
asS'CHEMBL1095'
p227
(lp228
g7
asS'CHEMBL1094'
p229
(lp230
S'Q05586'
p231
asS'CHEMBL1480'
p232
(lp233
S'Q01668'
p234
aS'P08235'
p235
asS'CHEMBL1481'
p236
(lp237
g18
asS'CHEMBL1482'
p238
(lp239
g169
ag121
asS'CHEMBL1483'
p240
(lp241
S'C4PKZ2'
p242
aS'F1L4P8'
p243
asS'CHEMBL1484'
p244
(lp245
g234
asS'CHEMBL1487'
p246
(lp247
S'P04035'
p248
asS'CHEMBL924'
p249
(lp250
S'P14324'
p251
asS'CHEMBL1521'
p252
(lp253
S'P18505'
p254
asS'CHEMBL926'
p255
(lp256
g75
ag76
asS'CHEMBL1525'
p257
(lp258
S'Q2VKV7'
p259
asS'CHEMBL1182657'
p260
(lp261
g121
asS'CHEMBL584'
p262
(lp263
g201
asS'CHEMBL428'
p264
(lp265
g106
ag107
asS'CHEMBL429'
p266
(lp267
S'P18825'
p268
asS'CHEMBL580'
p269
(lp270
g52
asS'CHEMBL425'
p271
(lp272
g34
aS'P37231'
p273
aS'P09917'
p274
asS'CHEMBL21731'
p275
(lp276
g97
asS'CHEMBL1652'
p277
(lp278
S'P22303'
p279
asS'CHEMBL420'
p280
(lp281
g70
asS'CHEMBL421'
p282
(lp283
g34
ag274
asS'CHEMBL589'
p284
(lp285
S'P14416'
p286
asS'CHEMBL588'
p287
(lp288
S'P21728'
p289
asS'CHEMBL1201758'
p290
(lp291
g10
asS'CHEMBL288441'
p292
(lp293
S'P12931'
p294
aS'P07948'
p295
aS'P00519'
p296
aS'P08631'
p297
asS'CHEMBL1201753'
p298
(lp299
g248
asS'CHEMBL1460'
p300
(lp301
g156
asS'CHEMBL1201756'
p302
(lp303
g24
ag25
asS'CHEMBL1467'
p304
(lp305
S'P47989'
p306
asS'CHEMBL1464'
p307
(lp308
g143
asS'CHEMBL22587'
p309
(lp310
g65
asS'CHEMBL1684'
p311
(lp312
S'P55017'
p313
asS'CHEMBL193'
p314
(lp315
g234
asS'CHEMBL639'
p316
(lp317
g10
asS'CHEMBL1201747'
p318
(lp319
g10
asS'CHEMBL2096637'
p320
(lp321
S'Q86DI9'
p322
asS'CHEMBL850'
p323
(lp324
g106
ag107
asS'CHEMBL33986'
p325
(lp326
S'P35372'
p327
aS'P41145'
p328
asS'CHEMBL1946170'
p329
(lp330
S'P10721'
p331
aS'Q02763'
p332
aS'P09619'
p333
aS'P35968'
p334
ag296
ag110
aS'Q16832'
p335
aS'P42685'
p336
aS'Q15759'
p337
aS'P21802'
p338
aS'P07949'
p339
aS'P11362'
p340
aS'P04049'
p341
asS'CHEMBL459'
p342
(lp343
g70
asS'CHEMBL511'
p344
(lp345
g10
asS'CHEMBL109'
p346
(lp347
S'P51649'
p348
asS'CHEMBL513'
p349
(lp350
S'P00390'
p351
asS'CHEMBL516'
p352
(lp353
g10
asS'CHEMBL517'
p354
(lp355
g7
asS'CHEMBL451'
p356
(lp357
g52
asS'CHEMBL450'
p358
(lp359
g52
asS'CHEMBL101'
p360
(lp361
g34
asS'CHEMBL452'
p362
(lp363
g52
asS'CHEMBL107'
p364
(lp365
S'P68363'
p366
asS'CHEMBL106'
p367
(lp368
g65
asS'CHEMBL457'
p369
(lp370
S'Q07869'
p371
asS'CHEMBL456'
p372
(lp373
g185
asS'CHEMBL15891'
p374
(lp375
S'E0W492'
p376
aS'H9U2W0'
p377
asS'CHEMBL1764'
p378
(lp379
g286
asS'CHEMBL86715'
p380
(lp381
g122
asS'CHEMBL1199080'
p382
(lp383
g97
asS'CHEMBL750'
p384
(lp385
g7
asS'CHEMBL1513'
p386
(lp387
g13
asS'CHEMBL1189679'
p388
(lp389
g152
asS'CHEMBL1360'
p390
(lp391
S'Q04844'
p392
asS'CHEMBL1363'
p393
(lp394
g76
asS'CHEMBL1201776'
p395
(lp396
g327
ag97
asS'CHEMBL2010601'
p397
(lp398
S'P13569'
p399
asS'CHEMBL1201329'
p400
(lp401
S'P32297'
p402
asS'CHEMBL1201328'
p403
(lp404
g286
ag24
ag206
asS'CHEMBL709'
p405
(lp406
g90
asS'CHEMBL1201325'
p407
(lp408
g121
ag122
asS'CHEMBL1201323'
p409
(lp410
S'P25021'
p411
asS'CHEMBL1201321'
p412
(lp413
g327
asS'CHEMBL222813'
p414
(lp415
S'P03468'
p416
aS'P03474'
p417
asS'CHEMBL1201245'
p418
(lp419
g10
asS'CHEMBL1201242'
p420
(lp421
g7
asS'CHEMBL1182833'
p422
(lp423
g392
asS'CHEMBL1201248'
p424
(lp425
g392
asS'CHEMBL696'
p426
(lp427
S'O95180'
p428
asS'CHEMBL1004'
p429
(lp430
g10
asS'CHEMBL704'
p431
(lp432
g34
ag273
ag274
asS'CHEMBL1201320'
p433
(lp434
S'P20648'
p435
asS'CHEMBL972'
p436
(lp437
S'P27338'
p438
asS'CHEMBL973'
p439
(lp440
S'Q02127'
p441
asS'CHEMBL970'
p442
(lp443
g52
asS'CHEMBL1106'
p444
(lp445
g10
asS'CHEMBL976'
p446
(lp447
S'Q95US7'
p448
aS'Q962H3'
p449
asS'CHEMBL1100'
p450
(lp451
g428
asS'CHEMBL1514'
p452
(lp453
g327
asS'CHEMBL1515'
p454
(lp455
S'P07202'
p456
asS'CHEMBL479'
p457
(lp458
g286
ag24
ag206
asS'CHEMBL2097081'
p459
(lp460
g177
asS'CHEMBL978'
p461
(lp462
g121
asS'CHEMBL979'
p463
(lp464
g52
asS'CHEMBL608'
p465
(lp466
S'O95477'
p467
asS'CHEMBL1108'
p468
(lp469
g286
ag24
asS'CHEMBL99946'
p470
(lp471
g4
ag97
asS'CHEMBL1295'
p472
(lp473
g65
asS'CHEMBL1297'
p474
(lp475
g34
asS'CHEMBL1291'
p476
(lp477
g75
ag76
asS'CHEMBL1290'
p478
(lp479
g75
ag76
asS'CHEMBL95'
p480
(lp481
S'P22303'
p482
asS'CHEMBL93'
p483
(lp484
g274
asS'CHEMBL90'
p485
(lp486
g10
asS'CHEMBL91'
p487
(lp488
g65
asS'CHEMBL1196'
p489
(lp490
g7
asS'CHEMBL1197'
p491
(lp492
g7
asS'CHEMBL1194'
p493
(lp494
g7
asS'CHEMBL1195'
p495
(lp496
g7
asS'CHEMBL1193'
p497
(lp498
g10
asS'CHEMBL98'
p499
(lp500
S'Q92769'
p501
aS'Q13547'
p502
aS'Q9UBN7'
p503
aS'O15379'
p504
asS'CHEMBL1191'
p505
(lp506
g46
asS'CHEMBL1179047'
p507
(lp508
g7
asS'CHEMBL1208'
p509
(lp510
g106
asS'CHEMBL1560'
p511
(lp512
g166
asS'CHEMBL1206'
p513
(lp514
g122
asS'CHEMBL1431'
p515
(lp516
S'P03886'
p517
asS'CHEMBL1200'
p518
(lp519
g7
asS'CHEMBL1201'
p520
(lp521
g24
ag25
asS'CHEMBL778'
p522
(lp523
g70
asS'CHEMBL734'
p524
(lp525
S'Q03283'
p526
asS'CHEMBL2220442'
p527
(lp528
g248
asS'CHEMBL770'
p529
(lp530
g411
ag10
aS'P18825'
p531
asS'CHEMBL771'
p532
(lp533
S'P95114'
p534
aS'P0A4X2'
p535
asS'CHEMBL1744'
p536
(lp537
g96
ag97
asS'CHEMBL776'
p538
(lp539
g76
asS'CHEMBL1589'
p540
(lp541
g18
asS'CHEMBL673'
p542
(lp543
S'P21397'
p544
asS'CHEMBL1425'
p545
(lp546
S'Q06203'
p547
asS'CHEMBL1422'
p548
(lp549
S'P27487'
p550
asS'CHEMBL1423'
p551
(lp552
g24
aS'P21917'
p553
asS'CHEMBL677'
p554
(lp555
g70
asS'CHEMBL1421'
p556
(lp557
g331
aS'P07947'
p558
aS'P06239'
p559
aS'P29317'
p560
ag296
aS'P09619'
p561
asS'CHEMBL1581'
p562
(lp563
g166
asS'CHEMBL1071'
p564
(lp565
g34
asS'CHEMBL1428'
p566
(lp567
g234
ag235
asS'CHEMBL638'
p568
(lp569
g65
asS'CHEMBL434394'
p570
(lp571
g75
ag76
asS'CHEMBL1175'
p572
(lp573
g4
ag97
asS'CHEMBL578'
p574
(lp575
g166
asS'CHEMBL981'
p576
(lp577
g371
asS'CHEMBL808'
p578
(lp579
g65
asS'CHEMBL1201294'
p580
(lp581
g327
asS'CHEMBL1201293'
p582
(lp583
g231
ag52
asS'CHEMBL559'
p584
(lp585
g31
asS'CHEMBL193240'
p586
(lp587
S'Q08493'
p588
asS'CHEMBL1079'
p589
(lp590
g70
asS'CHEMBL1201117'
p591
(lp592
S'P00915'
p593
asS'CHEMBL550'
p594
(lp595
g121
asS'CHEMBL807'
p596
(lp597
g231
asS'CHEMBL553'
p598
(lp599
S'P00533'
p600
asS'CHEMBL415'
p601
(lp602
g4
asS'CHEMBL1201056'
p603
(lp604
S'Q25704'
p605
asS'CHEMBL411'
p606
(lp607
g118
asS'CHEMBL1172'
p608
(lp609
g10
asS'CHEMBL1639'
p610
(lp611
S'P00797'
p612
asS'CHEMBL419'
p613
(lp614
g46
asS'CHEMBL1734'
p615
(lp616
g169
ag121
asS'CHEMBL1201191'
p617
(lp618
g10
asS'CHEMBL785'
p619
(lp620
g76
asS'CHEMBL787'
p621
(lp622
S'Q9Y271'
p623
asS'CHEMBL20'
p624
(lp625
S'P22748'
p626
ag593
aS'P00918'
p627
aS'O43570'
p628
asS'CHEMBL781'
p629
(lp630
g194
asS'CHEMBL783'
p631
(lp632
g18
asS'CHEMBL782'
p633
(lp634
g18
asS'CHEMBL7413'
p635
(lp636
g52
asS'CHEMBL1873475'
p637
(lp638
S'Q06187'
p639
asS'CHEMBL897'
p640
(lp641
S'Q4U2R8'
p642
aS'Q8TCC7'
p643
aS'Q9NSA0'
p644
asS'CHEMBL896'
p645
(lp646
g10
asS'CHEMBL898'
p647
(lp648
g34
asS'CHEMBL1104'
p649
(lp650
g279
asS'CHEMBL1201281'
p651
(lp652
S'P0A7J3'
p653
asS'CHEMBL1510'
p654
(lp655
S'P30939'
p656
ag190
ag191
asS'CHEMBL1201208'
p657
(lp658
g96
ag97
asS'CHEMBL607'
p659
(lp660
g327
asS'CHEMBL521'
p661
(lp662
g34
asS'CHEMBL1201201'
p663
(lp664
g194
asS'CHEMBL1200443'
p665
(lp666
g7
asS'CHEMBL76370'
p667
(lp668
S'Q13639'
p669
asS'CHEMBL524'
p670
(lp671
g90
asS'CHEMBL527'
p672
(lp673
g34
asS'CHEMBL526'
p674
(lp675
g52
asS'CHEMBL1138'
p676
(lp677
S'Q9UHC9'
p678
asS'CHEMBL154'
p679
(lp680
g34
asS'CHEMBL1200689'
p681
(lp682
g177
asS'CHEMBL158'
p683
(lp684
S'P02918'
p685
asS'CHEMBL603'
p686
(lp687
g623
asS'CHEMBL2368925'
p688
(lp689
g152
asS'CHEMBL1237132'
p690
(lp691
g234
asS'CHEMBL1200468'
p692
(lp693
S'A2PZ98'
p694
asS'CHEMBL1399'
p695
(lp696
S'P11511'
p697
asS'CHEMBL1519'
p698
(lp699
g166
asS'CHEMBL1257'
p700
(lp701
S'P57789'
p702
aS'Q7Z418'
p703
aS'O95069'
p704
aS'Q9NPC2'
p705
aS'O14649'
p706
ag52
aS'P48167'
p707
asS'CHEMBL1256'
p708
(lp709
g702
ag703
ag704
ag705
ag706
ag52
ag707
asS'CHEMBL539697'
p710
(lp711
S'P00734'
p712
asS'CHEMBL1109'
p713
(lp714
g46
asS'CHEMBL473417'
p715
(lp716
S'Q99835'
p717
asS'CHEMBL221959'
p718
(lp719
S'P23458'
p720
asS'CHEMBL1396'
p721
(lp722
S'P43681'
p723
asS'CHEMBL1397'
p724
(lp725
g65
asS'CHEMBL1213351'
p726
(lp727
g327
asS'CHEMBL1180725'
p728
(lp729
g169
ag121
ag122
asS'CHEMBL24828'
p730
(lp731
g294
aS'P00533'
p732
aS'P54764'
p733
ag332
aS'Q13882'
p734
ag334
ag339
asS'CHEMBL1201274'
p735
(lp736
g75
asS'CHEMBL1201271'
p737
(lp738
g10
asS'CHEMBL1201273'
p739
(lp740
g76
asS'CHEMBL726'
p741
(lp742
g25
asS'CHEMBL1200598'
p743
(lp744
S'P03372'
p745
asS'CHEMBL1200842'
p746
(lp747
S'E1FVX6'
p748
asS'CHEMBL1324'
p749
(lp750
S'P21964'
p751
asS'CHEMBL1168'
p752
(lp753
g166
asS'CHEMBL1075'
p754
(lp755
g7
asS'CHEMBL1077'
p756
(lp757
g34
asS'CHEMBL44884'
p758
(lp759
S'P0A560'
p760
asS'CHEMBL1070'
p761
(lp762
g59
asS'CHEMBL1073'
p763
(lp764
g18
asS'CHEMBL1072'
p765
(lp766
g185
asS'CHEMBL204656'
p767
(lp768
S'Q7ZJM1'
p769
asS'CHEMBL634'
p770
(lp771
g327
asS'CHEMBL637'
p772
(lp773
g4
ag97
asS'CHEMBL636'
p774
(lp775
g482
asS'CHEMBL631'
p776
(lp777
g7
ag75
ag76
asS'CHEMBL633'
p778
(lp779
S'Q12809'
p780
asS'CHEMBL1790041'
p781
(lp782
g411
asS'CHEMBL1200790'
p783
(lp784
g52
asS'CHEMBL308954'
p785
(lp786
g156
asS'CHEMBL1002'
p787
(lp788
g76
asS'CHEMBL49'
p789
(lp790
g153
asS'CHEMBL1201286'
p791
(lp792
g121
ag122
asS'CHEMBL46'
p793
(lp794
g152
asS'CHEMBL41'
p795
(lp796
g4
asS'CHEMBL42'
p797
(lp798
g286
ag24
asS'CHEMBL1496'
p799
(lp800
g248
asS'CHEMBL1495'
p801
(lp802
g121
ag122
asS'CHEMBL1493'
p803
(lp804
S'Q13946'
p805
aS'O95263'
p806
ag588
asS'CHEMBL1492'
p807
(lp808
g10
asS'CHEMBL1491'
p809
(lp810
g234
asS'CHEMBL939'
p811
(lp812
g600
asS'CHEMBL936'
p813
(lp814
g122
asS'CHEMBL294199'
p815
(lp816
S'Q8NER1'
p817
asS'CHEMBL554'
p818
(lp819
g600
aS'P04626'
p820
asS'CHEMBL932'
p821
(lp822
S'O76074'
p823
aS'Q99808'
p824
asS'CHEMBL931'
p825
(lp826
g702
ag703
ag704
ag705
ag706
ag52
ag707
asS'CHEMBL844'
p827
(lp828
g70
asS'CHEMBL842'
p829
(lp830
g313
asS'CHEMBL841'
p831
(lp832
g327
asS'CHEMBL189'
p833
(lp834
S'Q14432'
p835
asS'CHEMBL1490'
p836
(lp837
g122
asS'CHEMBL218394'
p838
(lp839
S'A3EZI9'
p840
asS'CHEMBL1670'
p841
(lp842
S'P05108'
p843
aS'P15538'
p844
asS'CHEMBL741'
p845
(lp846
g7
asS'CHEMBL742'
p847
(lp848
g231
asS'CHEMBL744'
p849
(lp850
g7
asS'CHEMBL747'
p851
(lp852
S'P13922'
p853
asS'CHEMBL1201760'
p854
(lp855
g106
ag107
asS'CHEMBL1471'
p856
(lp857
S'P25103'
p858
asS'CHEMBL1477'
p859
(lp860
g248
asS'CHEMBL1729'
p861
(lp862
g669
asS'CHEMBL175247'
p863
(lp864
S'P07098'
p865
aS'P49327'
p866
aS'P16233'
p867
asS'CHEMBL46740'
p868
(lp869
g745
asS'CHEMBL1200604'
p870
(lp871
g121
asS'CHEMBL218490'
p872
(lp873
g627
asS'CHEMBL760'
p874
(lp875
S'Q13370'
p876
asS'CHEMBL31'
p877
(lp878
S'P72524'
p879
aS'P72525'
p880
asS'CHEMBL32'
p881
(lp882
g106
ag107
asS'CHEMBL33'
p883
(lp884
g879
ag880
asS'CHEMBL35'
p885
(lp886
g185
asS'CHEMBL36'
p887
(lp888
g853
asS'CHEMBL1372'
p889
(lp890
g351
asS'CHEMBL1726'
p891
(lp892
g234
asS'CHEMBL181'
p893
(lp894
S'Q14654'
p895
aS'Q15842'
p896
asS'CHEMBL565'
p897
(lp898
g371
asS'CHEMBL564'
p899
(lp900
g286
ag24
asS'CHEMBL448'
p901
(lp902
g52
asS'CHEMBL449'
p903
(lp904
g52
asS'CHEMBL118'
p905
(lp906
g59
asS'CHEMBL1190'
p907
(lp908
g392
asS'CHEMBL563'
p909
(lp910
g34
asS'CHEMBL114'
p911
(lp912
g201
asS'CHEMBL115'
p913
(lp914
g201
asS'CHEMBL116'
p915
(lp916
g201
asS'CHEMBL441'
p917
(lp918
g52
asS'CHEMBL446'
p919
(lp920
g46
asS'CHEMBL568'
p921
(lp922
g52
asS'CHEMBL112'
p923
(lp924
g34
ag817
aS'O00519'
p925
asS'CHEMBL445'
p926
(lp927
g4
ag97
asS'CHEMBL2095208'
p928
(lp929
S'P08684'
p930
asS'CHEMBL599'
p931
(lp932
g59
asS'CHEMBL1199324'
p933
(lp934
g858
asS'CHEMBL1648'
p935
(lp936
g234
asS'CHEMBL591'
p937
(lp938
g52
asS'CHEMBL592'
p939
(lp940
g327
asS'CHEMBL593'
p941
(lp942
g156
asS'CHEMBL594'
p943
(lp944
g10
asS'CHEMBL595'
p945
(lp946
g273
asS'CHEMBL596'
p947
(lp948
g327
asS'CHEMBL597'
p949
(lp950
g531
asS'CHEMBL4'
p951
(lp952
g106
asS'CHEMBL5'
p953
(lp954
g106
asS'CHEMBL6'
p955
(lp956
g34
asS'CHEMBL2'
p957
(lp958
g90
asS'CHEMBL990'
p959
(lp960
g146
asS'CHEMBL8'
p961
(lp962
g106
asS'CHEMBL9'
p963
(lp964
g106
ag107
asS'CHEMBL477772'
p965
(lp966
g331
aS'P22607'
p967
ag559
ag333
ag334
aS'P07333'
p968
ag340
aS'Q08881'
p969
asS'CHEMBL222559'
p970
(lp971
g201
asS'CHEMBL849'
p972
(lp973
S'P0AEK4'
p974
asS'CHEMBL1201335'
p975
(lp976
g121
ag122
asS'CHEMBL16694'
p977
(lp978
g143
asS'CHEMBL1201233'
p979
(lp980
g70
asS'CHEMBL1201232'
p981
(lp982
g121
ag122
asS'CHEMBL1201234'
p983
(lp984
g268
asS'CHEMBL1201237'
p985
(lp986
g75
ag76
asS'CHEMBL1201236'
p987
(lp988
S'P20711'
p989
asS'CHEMBL163'
p990
(lp991
g201
asS'CHEMBL1200802'
p992
(lp993
g52
asS'CHEMBL54'
p994
(lp995
g286
ag24
asS'CHEMBL1237044'
p996
(lp997
g327
asS'CHEMBL1201863'
p998
(lp999
g435
asS'CHEMBL1201780'
p1000
(lp1001
S'P31327'
p1002
asS'CHEMBL946'
p1003
(lp1004
g10
asS'CHEMBL1503'
p1005
(lp1006
g435
asS'CHEMBL1502'
p1007
(lp1008
g435
asS'CHEMBL1505'
p1009
(lp1010
g656
ag190
ag191
asS'CHEMBL941'
p1011
(lp1012
g331
ag296
ag561
asS'CHEMBL1506'
p1013
(lp1014
g653
asS'CHEMBL1508'
p1015
(lp1016
g4
asS'CHEMBL1771'
p1017
(lp1018
S'Q9H244'
p1019
asS'CHEMBL1755'
p1020
(lp1021
S'P37288'
p1022
aS'P30518'
p1023
asS'CHEMBL19'
p1024
(lp1025
g626
ag593
ag627
aS'P43166'
p1026
asS'CHEMBL1542'
p1027
(lp1028
g547
asS'CHEMBL81'
p1029
(lp1030
g217
asS'CHEMBL83'
p1031
(lp1032
g118
asS'CHEMBL85'
p1033
(lp1034
g286
ag24
ag206
asS'CHEMBL86'
p1035
(lp1036
g152
ag669
ag25
asS'CHEMBL1201349'
p1037
(lp1038
g279
asS'CHEMBL1185'
p1039
(lp1040
g190
ag191
asS'CHEMBL1201344'
p1041
(lp1042
g169
ag121
asS'CHEMBL1201347'
p1043
(lp1044
g327
ag328
asS'CHEMBL1201346'
p1045
(lp1046
g34
ag273
ag274
asS'CHEMBL1201341'
p1047
(lp1048
g279
asS'CHEMBL1201340'
p1049
(lp1050
g121
ag122
asS'CHEMBL1201342'
p1051
(lp1052
g206
ag122
asS'CHEMBL685'
p1053
(lp1054
g242
ag243
asS'CHEMBL1219'
p1055
(lp1056
g435
asS'CHEMBL1218'
p1057
(lp1058
S'P48039'
p1059
asS'CHEMBL1215'
p1060
(lp1061
g90
asS'CHEMBL838'
p1062
(lp1063
g166
asS'CHEMBL887'
p1064
(lp1065
g438
asS'CHEMBL1008'
p1066
(lp1067
g49
asS'CHEMBL1009'
p1068
(lp1069
S'P35462'
p1070
asS'CHEMBL1095777'
p1071
(lp1072
g76
asS'CHEMBL1005'
p1073
(lp1074
g327
asS'CHEMBL707'
p1075
(lp1076
g90
asS'CHEMBL1000'
p1077
(lp1078
g10
asS'CHEMBL700'
p1079
(lp1080
g46
asS'CHEMBL703'
p1081
(lp1082
g392
asS'CHEMBL1336'
p1083
(lp1084
g331
aS'P36888'
p1085
ag334
ag110
ag339
ag561
ag341
asS'CHEMBL1437'
p1086
(lp1087
g268
asS'CHEMBL661'
p1088
(lp1089
g52
asS'CHEMBL666'
p1090
(lp1091
S'P04293'
p1092
asS'CHEMBL1037'
p1093
(lp1094
g97
asS'CHEMBL668'
p1095
(lp1096
g4
ag97
asS'CHEMBL669'
p1097
(lp1098
g24
ag206
asS'CHEMBL254316'
p1099
(lp1100
g769
asS'CHEMBL1173655'
p1101
(lp1102
S'Q15303'
p1103
ag600
ag820
asS'CHEMBL1189432'
p1104
(lp1105
g10
asS'CHEMBL1194666'
p1106
(lp1107
g96
ag97
asS'CHEMBL1077896'
p1108
(lp1109
g7
asS'CHEMBL672'
p1110
(lp1111
g371
asS'CHEMBL71'
p1112
(lp1113
g286
ag24
asS'CHEMBL72'
p1114
(lp1115
g97
asS'CHEMBL1401'
p1116
(lp1117
S'Q24982'
p1118
aS'Q968X7'
p1119
asS'CHEMBL79'
p1120
(lp1121
g7
asS'CHEMBL708'
p1122
(lp1123
g286
ag24
ag206
asS'CHEMBL1201169'
p1124
(lp1125
g52
asS'CHEMBL1201168'
p1126
(lp1127
g544
asS'CHEMBL1201319'
p1128
(lp1129
g90
asS'CHEMBL1201284'
p1130
(lp1131
S'P41180'
p1132
asS'CHEMBL1420'
p1133
(lp1134
g279
asS'CHEMBL839'
p1135
(lp1136
g182
asS'CHEMBL649'
p1137
(lp1138
g75
ag76
asS'CHEMBL1201288'
p1139
(lp1140
S'P21817'
p1141
aS'Q15413'
p1142
asS'CHEMBL836'
p1143
(lp1144
g90
asS'CHEMBL834'
p1145
(lp1146
g251
asS'CHEMBL833'
p1147
(lp1148
g1019
asS'CHEMBL832'
p1149
(lp1150
S'Q96S37'
p1151
asS'CHEMBL831'
p1152
(lp1153
g286
ag24
ag206
asS'CHEMBL830'
p1154
(lp1155
S'P11926'
p1156
asS'CHEMBL406'
p1157
(lp1158
g313
asS'CHEMBL679'
p1159
(lp1160
g268
asS'CHEMBL405'
p1161
(lp1162
g96
ag97
asS'CHEMBL1580'
p1163
(lp1164
S'P00813'
p1165
asS'CHEMBL2105395'
p1166
(lp1167
g745
asS'CHEMBL1289926'
p1168
(lp1169
g334
asS'CHEMBL408'
p1170
(lp1171
g273
asS'CHEMBL409'
p1172
(lp1173
S'P10275'
p1174
asS'CHEMBL796'
p1175
(lp1176
g96
ag97
asS'CHEMBL797'
p1177
(lp1178
g428
asS'CHEMBL1200862'
p1179
(lp1180
S'P07101'
p1181
asS'CHEMBL601719'
p1182
(lp1183
S'P08581'
p1184
aS'Q9UM73'
p1185
asS'CHEMBL440'
p1186
(lp1187
g52
asS'CHEMBL799'
p1188
(lp1189
g835
asS'CHEMBL880'
p1190
(lp1191
g1092
asS'CHEMBL499'
p1192
(lp1193
g75
ag76
asS'CHEMBL498'
p1194
(lp1195
g18
asS'CHEMBL496'
p1196
(lp1197
g974
asS'CHEMBL490'
p1198
(lp1199
g4
asS'CHEMBL492'
p1200
(lp1201
g7
asS'CHEMBL728'
p1202
(lp1203
g25
asS'CHEMBL439849'
p1204
(lp1205
g4
ag153
asS'CHEMBL1963681'
p1206
(lp1207
S'O76074'
p1208
asS'CHEMBL646'
p1209
(lp1210
g52
asS'CHEMBL964'
p1211
(lp1212
S'P05091'
p1213
asS'CHEMBL1200453'
p1214
(lp1215
S'Q69091'
p1216
asS'CHEMBL1069'
p1217
(lp1218
g13
asS'CHEMBL1201287'
p1219
(lp1220
g10
asS'CHEMBL535'
p1221
(lp1222
g331
ag1085
ag333
ag334
ag339
ag968
asS'CHEMBL126'
p1223
(lp1224
S'P66420'
p1225
asS'CHEMBL121'
p1226
(lp1227
g273
asS'CHEMBL1201131'
p1228
(lp1229
S'E0VCW8'
p1230
asS'CHEMBL122'
p1231
(lp1232
g59
asS'CHEMBL1789941'
p1233
(lp1234
S'O60674'
p1235
aS'P23458'
p1236
asS'CHEMBL1200692'
p1237
(lp1238
g13
asS'CHEMBL1200694'
p1239
(lp1240
g702
ag703
ag704
ag705
ag706
ag52
ag707
asS'CHEMBL128'
p1241
(lp1242
g190
ag191
asS'CHEMBL1259059'
p1243
(lp1244
S'Q8JXU8'
p1245
asS'CHEMBL1237123'
p1246
(lp1247
g392
asS'CHEMBL278020'
p1248
(lp1249
g279
asS'CHEMBL198362'
p1250
(lp1251
S'P00742'
p1252
asS'CHEMBL560'
p1253
(lp1254
S'Q99720'
p1255
asS'CHEMBL2105717'
p1256
(lp1257
g1184
aS'P35968'
p1258
asS'CHEMBL1265'
p1259
(lp1260
S'P13631'
p1261
aS'P10826'
p1262
asS'CHEMBL1266'
p1263
(lp1264
g531
asS'CHEMBL1262'
p1265
(lp1266
g65
asS'CHEMBL1388'
p1267
(lp1268
g21
asS'CHEMBL1382'
p1269
(lp1270
g169
ag121
asS'CHEMBL1380'
p1271
(lp1272
g156
asS'CHEMBL407'
p1273
(lp1274
g52
asS'CHEMBL730'
p1275
(lp1276
g177
asS'CHEMBL533'
p1277
(lp1278
g780
asS'CHEMBL965'
p1279
(lp1280
g121
asS'CHEMBL1201466'
p1281
(lp1282
g745
asS'CHEMBL1201467'
p1283
(lp1284
g745
asS'CHEMBL70418'
p1285
(lp1286
g52
asS'CHEMBL1110'
p1287
(lp1288
g152
asS'CHEMBL1201268'
p1289
(lp1290
g121
ag122
asS'CHEMBL1201269'
p1291
(lp1292
g4
asS'CHEMBL1201264'
p1293
(lp1294
g411
asS'CHEMBL1111'
p1295
(lp1296
S'P25101'
p1297
asS'CHEMBL1201262'
p1298
(lp1299
g268
asS'CHEMBL1201260'
p1300
(lp1301
g97
asS'CHEMBL1200854'
p1302
(lp1303
g25
asS'CHEMBL1123'
p1304
(lp1305
g121
ag122
asS'CHEMBL534'
p1306
(lp1307
g10
asS'CHEMBL1316'
p1308
(lp1309
g59
asS'CHEMBL1163'
p1310
(lp1311
g201
asS'CHEMBL360328'
p1312
(lp1313
g206
asS'CHEMBL998'
p1314
(lp1315
g10
asS'CHEMBL1166'
p1316
(lp1317
g712
asS'CHEMBL1165'
p1318
(lp1319
g166
asS'CHEMBL629'
p1320
(lp1321
g4
ag97
asS'CHEMBL626'
p1322
(lp1323
g146
asS'CHEMBL1169'
p1324
(lp1325
g34
asS'CHEMBL997'
p1326
(lp1327
g251
asS'CHEMBL1101'
p1328
(lp1329
g122
asS'CHEMBL623'
p1330
(lp1331
g4
ag97
ag24
ag206
asS'CHEMBL620'
p1332
(lp1333
g121
ag122
asS'CHEMBL621'
p1334
(lp1335
g4
ag24
ag206
asS'CHEMBL701'
p1336
(lp1337
S'Q9UBS5'
p1338
asS'CHEMBL289469'
p1339
(lp1340
g152
asS'CHEMBL231779'
p1341
(lp1342
g1252
asS'CHEMBL398435'
p1343
(lp1344
g1019
asS'CHEMBL1525826'
p1345
(lp1346
g46
asS'CHEMBL1017'
p1347
(lp1348
g13
asS'CHEMBL567'
p1349
(lp1350
g25
asS'CHEMBL900'
p1351
(lp1352
g231
ag10
ag7
ag97
asS'CHEMBL301265'
p1353
(lp1354
g286
asS'CHEMBL561'
p1355
(lp1356
g106
asS'CHEMBL908'
p1357
(lp1358
g1070
ag24
ag206
ag25
asS'CHEMBL119'
p1359
(lp1360
S'P16184'
p1361
asS'CHEMBL6966'
p1362
(lp1363
g234
asS'CHEMBL1201764'
p1364
(lp1365
g169
ag121
asS'CHEMBL1254682'
p1366
(lp1367
g327
ag328
asS'CHEMBL191'
p1368
(lp1369
g13
asS'CHEMBL192'
p1370
(lp1371
g1208
asS'CHEMBL1685'
p1372
(lp1373
g327
ag328
asS'CHEMBL1201295'
p1374
(lp1375
g76
asS'CHEMBL1096'
p1376
(lp1377
g588
asS'CHEMBL753'
p1378
(lp1379
g531
asS'CHEMBL1201772'
p1380
(lp1381
g1019
asS'CHEMBL698'
p1382
(lp1383
g7
asS'CHEMBL1760'
p1384
(lp1385
g76
asS'CHEMBL1763'
p1386
(lp1387
g313
asS'CHEMBL1762'
p1388
(lp1389
g7
asS'CHEMBL1444'
p1390
(lp1391
g697
asS'CHEMBL558'
p1392
(lp1393
g7
asS'CHEMBL256087'
p1394
(lp1395
S'O75762'
p1396
aS'Q7Z2W7'
p1397
asS'CHEMBL697'
p1398
(lp1399
g428
asS'CHEMBL1441'
p1400
(lp1401
S'P0A5Y6'
p1402
asS'CHEMBL695'
p1403
(lp1404
g428
asS'CHEMBL87992'
p1405
(lp1406
g7
asS'CHEMBL1102'
p1407
(lp1408
g52
asS'CHEMBL1200733'
p1409
(lp1410
g702
ag703
ag704
ag705
ag706
ag52
ag707
asS'CHEMBL569'
p1411
(lp1412
g7
asS'CHEMBL184412'
p1413
(lp1414
g234
aS'P16389'
p1415
ag7
ag182
ag780
asS'CHEMBL447'
p1416
(lp1417
g52
asS'CHEMBL802'
p1418
(lp1419
S'O60706'
p1420
asS'CHEMBL1164729'
p1421
(lp1422
g306
asS'CHEMBL23'
p1423
(lp1424
g234
asS'CHEMBL22'
p1425
(lp1426
S'P0ABQ4'
p1427
asS'CHEMBL21'
p1428
(lp1429
g46
asS'CHEMBL1043'
p1430
(lp1431
S'P0C0X1'
p1432
asS'CHEMBL27'
p1433
(lp1434
g75
ag76
asS'CHEMBL25'
p1435
(lp1436
g34
asS'CHEMBL24'
p1437
(lp1438
g75
asS'CHEMBL61593'
p1439
(lp1440
g313
asS'CHEMBL2105689'
p1441
(lp1442
g65
asS'CHEMBL360055'
p1443
(lp1444
g392
asS'CHEMBL443'
p1445
(lp1446
g46
asS'CHEMBL577'
p1447
(lp1448
g166
asS'CHEMBL570'
p1449
(lp1450
g25
asS'CHEMBL571'
p1451
(lp1452
g34
asS'CHEMBL1587'
p1453
(lp1454
g313
asS'CHEMBL473'
p1455
(lp1456
g780
asS'CHEMBL472'
p1457
(lp1458
g18
asS'CHEMBL471'
p1459
(lp1460
g75
ag76
ag780
asS'CHEMBL1520'
p1461
(lp1462
g1208
asS'CHEMBL878'
p1463
(lp1464
g313
asS'CHEMBL923'
p1465
(lp1466
g251
asS'CHEMBL870'
p1467
(lp1468
g251
asS'CHEMBL877'
p1469
(lp1470
S'P00747'
p1471
asS'CHEMBL325041'
p1472
(lp1473
S'P25787'
p1474
asS'CHEMBL1237021'
p1475
(lp1476
g286
ag24
asS'CHEMBL1628502'
p1477
(lp1478
g49
asS'CHEMBL856'
p1479
(lp1480
g7
ag52
asS'CHEMBL14376'
p1481
(lp1482
g24
ag25
asS'CHEMBL583'
p1483
(lp1484
g879
ag880
asS'CHEMBL1200359'
p1485
(lp1486
g46
asS'CHEMBL1201069'
p1487
(lp1488
g122
asS'CHEMBL1201222'
p1489
(lp1490
g95
ag96
ag97
asS'CHEMBL1570'
p1491
(lp1492
g1432
asS'CHEMBL1201227'
p1493
(lp1494
g122
asS'CHEMBL1171837'
p1495
(lp1496
S'P00519'
p1497
ag296
aS'P11274'
p1498
asS'CHEMBL1201229'
p1499
(lp1500
g279
asS'CHEMBL1201187'
p1501
(lp1502
S'P51681'
p1503
asS'CHEMBL1279'
p1504
(lp1505
g190
ag191
asS'CHEMBL1200951'
p1506
(lp1507
g25
asS'CHEMBL1574'
p1508
(lp1509
g97
asS'CHEMBL1200959'
p1510
(lp1511
g10
asS'CHEMBL259209'
p1512
(lp1513
g4
ag97
asS'CHEMBL1535'
p1514
(lp1515
S'Q9NR96'
p1516
aS'Q9NYK1'
p1517
asS'CHEMBL1532'
p1518
(lp1519
g313
asS'CHEMBL1664'
p1520
(lp1521
g201
asS'CHEMBL1539'
p1522
(lp1523
g605
asS'CHEMBL1187833'
p1524
(lp1525
g121
asS'CHEMBL806'
p1526
(lp1527
g1174
asS'CHEMBL422'
p1528
(lp1529
g286
ag24
ag206
asS'CHEMBL642'
p1530
(lp1531
g75
asS'CHEMBL1272'
p1532
(lp1533
g18
asS'CHEMBL423'
p1534
(lp1535
g75
asS'CHEMBL1201358'
p1536
(lp1537
g95
ag97
asS'CHEMBL1201354'
p1538
(lp1539
g121
ag122
asS'CHEMBL1229211'
p1540
(lp1541
g769
asS'CHEMBL1201353'
p1542
(lp1543
g10
asS'CHEMBL1221'
p1544
(lp1545
g65
asS'CHEMBL779'
p1546
(lp1547
g1208
asS'CHEMBL1228'
p1548
(lp1549
g34
asS'CHEMBL1342'
p1550
(lp1551
g1338
asS'CHEMBL1341'
p1552
(lp1553
g52
ag707
asS'CHEMBL2103875'
p1554
(lp1555
S'Q02750'
p1556
aS'P36507'
p1557
asS'CHEMBL1263'
p1558
(lp1559
g76
asS'CHEMBL1159'
p1560
(lp1561
g1420
asS'CHEMBL660'
p1562
(lp1563
S'P06821'
p1564
ag231
asS'CHEMBL354541'
p1565
(lp1566
S'P07237'
p1567
asS'CHEMBL1014'
p1568
(lp1569
g13
asS'CHEMBL716'
p1570
(lp1571
g286
ag24
ag206
asS'CHEMBL2103873'
p1572
(lp1573
g1297
asS'CHEMBL714'
p1574
(lp1575
g76
asS'CHEMBL1018'
p1576
(lp1577
g118
asS'CHEMBL712'
p1578
(lp1579
S'P38435'
p1580
asS'CHEMBL1213252'
p1581
(lp1582
g52
asS'CHEMBL855'
p1583
(lp1584
g10
asS'CHEMBL711'
p1585
(lp1586
g143
asS'CHEMBL657'
p1587
(lp1588
g10
asS'CHEMBL655'
p1589
(lp1590
g52
asS'CHEMBL654'
p1591
(lp1592
g70
ag24
ag206
asS'CHEMBL653'
p1593
(lp1594
g411
asS'CHEMBL652'
p1595
(lp1596
S'Q14524'
p1597
asS'CHEMBL651'
p1598
(lp1599
g327
asS'CHEMBL89598'
p1600
(lp1601
S'P80404'
p1602
asS'CHEMBL658'
p1603
(lp1604
g327
asS'CHEMBL1214124'
p1605
(lp1606
S'P48058'
p1607
asS'CHEMBL24778'
p1608
(lp1609
g85
asS'CHEMBL1085'
p1610
(lp1611
g25
asS'CHEMBL1086'
p1612
(lp1613
S'Q9Y5Y9'
p1614
ag1597
asS'CHEMBL64'
p1615
(lp1616
g1402
asS'CHEMBL1201754'
p1617
(lp1618
g7
asS'CHEMBL1023'
p1619
(lp1620
S'P28702'
p1621
asS'CHEMBL1224'
p1622
(lp1623
g10
asS'CHEMBL953'
p1624
(lp1625
g751
asS'CHEMBL1088'
p1626
(lp1627
g24
ag25
asS'CHEMBL1089'
p1628
(lp1629
g544
asS'CHEMBL385517'
p1630
(lp1631
g550
asS'CHEMBL894'
p1632
(lp1633
g96
ag97
asS'CHEMBL821'
p1634
(lp1635
g1415
asS'CHEMBL439'
p1636
(lp1637
g46
asS'CHEMBL438'
p1638
(lp1639
g46
asS'CHEMBL826'
p1640
(lp1641
S'Q5EP76'
p1642
aS'P48371'
p1643
asS'CHEMBL827'
p1644
(lp1645
g96
ag97
asS'CHEMBL829'
p1646
(lp1647
g10
asS'CHEMBL1201170'
p1648
(lp1649
g100
ag101
asS'CHEMBL430'
p1650
(lp1651
g879
ag880
asS'CHEMBL437'
p1652
(lp1653
g46
asS'CHEMBL435'
p1654
(lp1655
g313
asS'CHEMBL434'
p1656
(lp1657
g182
asS'CHEMBL1655'
p1658
(lp1659
g745
asS'CHEMBL1657'
p1660
(lp1661
S'P13631'
p1662
asS'CHEMBL313833'
p1663
(lp1664
g544
asS'CHEMBL1229'
p1665
(lp1666
g416
ag417
asS'CHEMBL517712'
p1667
(lp1668
g169
ag121
ag122
asS'CHEMBL667'
p1669
(lp1670
g121
asS'CHEMBL1201338'
p1671
(lp1672
g121
asS'CHEMBL1346'
p1673
(lp1674
g169
ag121
asS'CHEMBL488'
p1675
(lp1676
g843
ag697
asS'CHEMBL480'
p1677
(lp1678
g435
asS'CHEMBL1456'
p1679
(lp1680
g62
asS'CHEMBL761'
p1681
(lp1682
g531
asS'CHEMBL117785'
p1683
(lp1684
g95
asS'CHEMBL1454'
p1685
(lp1686
S'O96760'
p1687
asS'CHEMBL684'
p1688
(lp1689
g748
asS'CHEMBL509'
p1690
(lp1691
g34
ag274
asS'CHEMBL3039598'
p1692
(lp1693
g166
asS'CHEMBL524004'
p1694
(lp1695
g121
ag122
asS'CHEMBL453'
p1696
(lp1697
g46
asS'CHEMBL502'
p1698
(lp1699
g279
asS'CHEMBL500'
p1700
(lp1701
g75
ag76
asS'CHEMBL134'
p1702
(lp1703
g70
asS'CHEMBL1628227'
p1704
(lp1705
g97
asS'CHEMBL130'
p1706
(lp1707
g653
asS'CHEMBL1200910'
p1708
(lp1709
g46
asS'CHEMBL139'
p1710
(lp1711
g34
asS'CHEMBL284348'
p1712
(lp1713
g1415
asS'CHEMBL1201336'
p1714
(lp1715
g7
asS'CHEMBL12856'
p1716
(lp1717
g835
asS'CHEMBL2095212'
p1718
(lp1719
S'P13945'
p1720
asS'CHEMBL344159'
p1721
(lp1722
g1023
asS'CHEMBL255863'
p1723
(lp1724
g296
asS'CHEMBL1522'
p1725
(lp1726
g52
asS'CHEMBL1373'
p1727
(lp1728
g96
asS'CHEMBL715'
p1729
(lp1730
g286
ag24
ag206
asS'CHEMBL1377'
p1731
(lp1732
g853
asS'CHEMBL1615438'
p1733
(lp1734
g10
asS'CHEMBL1404'
p1735
(lp1736
g115
ag1597
asS'CHEMBL1378'
p1737
(lp1738
g25
asS'CHEMBL1615433'
p1739
(lp1740
g121
asS'CHEMBL270190'
p1741
(lp1742
g327
asS'CHEMBL2028663'
p1743
(lp1744
g110
asS'CHEMBL2028661'
p1745
(lp1746
g13
asS'CHEMBL295698'
p1747
(lp1748
g65
asS'CHEMBL1201258'
p1749
(lp1750
S'P22102'
p1751
aS'P04818'
p1752
aS'P00374'
p1753
asS'CHEMBL1201317'
p1754
(lp1755
g52
asS'CHEMBL1201250'
p1756
(lp1757
g25
asS'CHEMBL1306'
p1758
(lp1759
g65
asS'CHEMBL1305'
p1760
(lp1761
g10
asS'CHEMBL1303'
p1762
(lp1763
g286
asS'CHEMBL220491'
p1764
(lp1765
g627
asS'CHEMBL1200986'
p1766
(lp1767
g286
ag24
asS'CHEMBL1308'
p1768
(lp1769
S'P00325'
p1770
asS'CHEMBL960'
p1771
(lp1772
g441
asS'CHEMBL611'
p1773
(lp1774
g90
asS'CHEMBL1115'
p1775
(lp1776
g279
asS'CHEMBL1112'
p1777
(lp1778
g24
ag25
ag153
asS'CHEMBL1113'
p1779
(lp1780
g4
ag97
ag553
asS'CHEMBL967'
p1781
(lp1782
g52
asS'CHEMBL614'
p1783
(lp1784
S'P95029'
p1785
aS'P66065'
p1786
asS'CHEMBL969'
p1787
(lp1788
g52
asS'CHEMBL968'
p1789
(lp1790
g52
asS'CHEMBL648'
p1791
(lp1792
g10
asS'CHEMBL1118'
p1793
(lp1794
g4
ag97
asS'CHEMBL1286'
p1795
(lp1796
S'Q00975'
p1797
aS'Q7L0J3'
p1798
asS'CHEMBL1282'
p1799
(lp1800
g1517
asS'CHEMBL1194325'
p1801
(lp1802
g121
asS'CHEMBL945'
p1803
(lp1804
S'P51170'
p1805
asS'CHEMBL1256786'
p1806
(lp1807
g76
asS'CHEMBL1082407'
p1808
(lp1809
g1174
asS'CHEMBL461101'
p1810
(lp1811
S'P40238'
p1812
asS'CHEMBL914'
p1813
(lp1814
g10
asS'CHEMBL1571'
p1815
(lp1816
g697
asS'CHEMBL916'
p1817
(lp1818
S'P05106'
p1819
asS'CHEMBL1278'
p1820
(lp1821
g190
ag191
asS'CHEMBL376359'
p1822
(lp1823
g550
asS'CHEMBL911'
p1824
(lp1825
g254
asS'CHEMBL1577'
p1826
(lp1827
g313
asS'CHEMBL1198857'
p1828
(lp1829
g76
asS'CHEMBL1271'
p1830
(lp1831
g402
asS'CHEMBL918'
p1832
(lp1833
g7
asS'CHEMBL1274'
p1834
(lp1835
g1174
asS'CHEMBL1546'
p1836
(lp1837
g268
asS'CHEMBL625'
p1838
(lp1839
g242
ag243
asS'CHEMBL18'
p1840
(lp1841
S'P07451'
p1842
asS'CHEMBL622'
p1843
(lp1844
g59
asS'CHEMBL1020'
p1845
(lp1846
g34
asS'CHEMBL1021'
p1847
(lp1848
g34
asS'CHEMBL1754'
p1849
(lp1850
g705
ag706
asS'CHEMBL1027'
p1851
(lp1852
S'P30531'
p1853
asS'CHEMBL1201039'
p1854
(lp1855
g313
asS'CHEMBL1025'
p1856
(lp1857
g279
asS'CHEMBL766'
p1858
(lp1859
S'P16444'
p1860
asS'CHEMBL765'
p1861
(lp1862
g97
asS'CHEMBL1450'
p1863
(lp1864
S'Q02768'
p1865
asS'CHEMBL762'
p1866
(lp1867
g531
asS'CHEMBL957'
p1868
(lp1869
g1297
asS'CHEMBL1186610'
p1870
(lp1871
g121
ag122
asS'CHEMBL1592'
p1872
(lp1873
g166
asS'CHEMBL1200522'
p1874
(lp1875
g21
asS'CHEMBL686'
p1876
(lp1877
g34
asS'CHEMBL681'
p1878
(lp1879
g52
asS'CHEMBL768'
p1880
(lp1881
g75
ag76
asS'CHEMBL267936'
p1882
(lp1883
g402
asS'CHEMBL1094966'
p1884
(lp1885
g76
asS'CHEMBL1200472'
p1886
(lp1887
g52
asS'CHEMBL108'
p1888
(lp1889
g7
asS'CHEMBL1059'
p1890
(lp1891
g49
asS'CHEMBL1046'
p1892
(lp1893
g1471
aS'P00750'
p1894
asS'CHEMBL16'
p1895
(lp1896
g7
asS'CHEMBL17'
p1897
(lp1898
g626
ag593
ag627
ag628
asS'CHEMBL1055'
p1899
(lp1900
g313
asS'CHEMBL1054'
p1901
(lp1902
g313
asS'CHEMBL12'
p1903
(lp1904
g52
asS'CHEMBL13'
p1905
(lp1906
g75
asS'CHEMBL11'
p1907
(lp1908
g4
ag97
as.