(dp1
S'PF06212'
p2
(lp3
S'Q86FC0'
p4
aS'G4LXG8'
p5
asS'PF03137'
p6
(lp7
S'G4VAF3'
p8
asS'PF03165'
p9
(lp10
S'A4VC64'
p11
aS'Q5C305'
p12
asS'PF02931'
p13
(lp14
S'A6QL44'
p15
aS'G4LZL6'
p16
aS'Q5BW84'
p17
asS'PF01280'
p18
(lp19
S'G4LVM3'
p20
aS'C7TY97'
p21
asS'PF07225'
p22
(lp23
S'G4VPS8'
p24
aS'Q5BS18'
p25
asS'PF06747'
p26
(lp27
S'Q5DDK5'
p28
aS'G4VMF5'
p29
asS'PF13631'
p30
(lp31
S'Q9B8X3'
p32
aS'D3TTI0'
p33
aS'Q1I0P2'
p34
asS'PF13405'
p35
(lp36
S'Q5DEU2'
p37
aS'G4M1S7'
p38
asS'PF00005'
p39
(lp40
S'G4M278'
p41
aS'Q5BQQ6'
p42
asS'PF07347'
p43
(lp44
S'Q5DBQ1'
p45
aS'C4Q2F8'
p46
asS'PF01111'
p47
(lp48
S'Q5BSH4'
p49
aS'G4VHW3'
p50
asS'PF01112'
p51
(lp52
S'Q5DEJ8'
p53
aS'G4V9Q9'
p54
asS'PF11798'
p55
(lp56
S'G4VDB0'
p57
asS'PF01118'
p58
(lp59
S'G4M1C4'
p60
asS'PF01119'
p61
(lp62
S'G4V9Y8'
p63
asS'PF00163'
p64
(lp65
S'Q5C773'
p66
aS'G4VTQ8'
p67
asS'PB009906'
p68
(lp69
S'Q5DB27'
p70
asS'PB000838'
p71
(lp72
S'Q5DA86'
p73
aS'G4VBN8'
p74
asS'PF02207'
p75
(lp76
S'G4V5Z1'
p77
asS'PF01058'
p78
(lp79
S'Q86EG3'
p80
aS'G4V5Q1'
p81
asS'PF00790'
p82
(lp83
S'G4VL59'
p84
aS'Q5BTJ3'
p85
asS'PF09261'
p86
(lp87
S'Q5BZ38'
p88
aS'G4M0J4'
p89
asS'PF01053'
p90
(lp91
S'G4V6T2'
p92
asS'PF01055'
p93
(lp94
S'G4M039'
p95
aS'Q5BZG5'
p96
asS'PF02709'
p97
(lp98
S'Q5D9C1'
p99
aS'G4VRQ9'
p100
asS'PF02828'
p101
(lp102
S'Q5BY56'
p103
aS'C4QTS1'
p104
asS'PF09127'
p105
(lp106
S'G4M023'
p107
asS'PF00551'
p108
(lp109
S'Q5BZJ0'
p110
aS'G4LX97'
p111
asS'PF01733'
p112
(lp113
S'G4LUK2'
p114
aS'Q5DE61'
p115
asS'PF01734'
p116
(lp117
S'Q5C3J6'
p118
aS'G4M003'
p119
asS'PF12847'
p120
(lp121
S'B5M6Z4'
p122
asS'PF00416'
p123
(lp124
S'G4VH28'
p125
aS'Q5BS01'
p126
asS'PF03725'
p127
(lp128
S'Q5DA97'
p129
aS'G4VDF0'
p130
asS'PB000703'
p131
(lp132
S'G4VK00'
p133
aS'Q5C1P2'
p134
asS'PF02121'
p135
(lp136
S'G4LZU4'
p137
aS'Q5C0B2'
p138
asS'PF13659'
p139
(lp140
S'G4VIS8'
p141
asS'PF06105'
p142
(lp143
S'Q5DBY4'
p144
aS'G4LWL5'
p145
asS'PF13793'
p146
(lp147
S'Q5DCA0'
p148
aS'G4VE33'
p149
asS'PF14604'
p150
(lp151
S'G4VJC2'
p152
aS'Q5C288'
p153
asS'PF00733'
p154
(lp155
S'G4VQC9'
p156
asS'PF00732'
p157
(lp158
S'Q5BZ92'
p159
aS'G4VPI5'
p160
asS'PF00887'
p161
(lp162
S'Q5DAB7'
p163
aS'G4M014'
p164
asS'PF00886'
p165
(lp166
S'Q5DEQ7'
p167
aS'G4LV29'
p168
asS'PF01230'
p169
(lp170
S'Q5DHH9'
p171
aS'G4VSA6'
p172
asS'PF00883'
p173
(lp174
S'Q5BZC8'
p175
aS'D6BNU4'
p176
asS'PF00633'
p177
(lp178
S'Q5DGR9'
p179
aS'G4V9V5'
p180
asS'PF13499'
p181
(lp182
S'A5A6F6'
p183
aS'G4LUD9'
p184
aS'C7TYD4'
p185
asS'PF01239'
p186
(lp187
S'G4LUP4'
p188
aS'B5M6Z9'
p189
asS'PF01238'
p190
(lp191
S'G4V5T8'
p192
aS'Q5BWD9'
p193
asS'PF00008'
p194
(lp195
S'Q5C1F4'
p196
aS'G4V5E1'
p197
asS'PF02932'
p198
(lp199
S'A6QL44'
p200
aS'G4VGC1'
p201
aS'C7TYG3'
p202
asS'PF00410'
p203
(lp204
S'G4VGR1'
p205
aS'Q5DH03'
p206
asS'PF04898'
p207
(lp208
S'G4VS94'
p209
asS'PF07885'
p210
(lp211
S'Q5BRF7'
p212
aS'G4VBJ3'
p213
asS'PF02127'
p214
(lp215
S'G4LVY7'
p216
aS'Q5BSL4'
p217
asS'PF05222'
p218
(lp219
S'G4VN23'
p220
asS'PF01602'
p221
(lp222
S'G4VMT3'
p223
aS'Q5BVY0'
p224
asS'PF01603'
p225
(lp226
S'Q5DF25'
p227
aS'G4LUX9'
p228
asS'PF01425'
p229
(lp230
S'G4LYL3'
p231
aS'Q5BZ72'
p232
asS'PF01426'
p233
(lp234
S'G4M0T8'
p235
aS'Q5C2H0'
p236
asS'PF03404'
p237
(lp238
S'G4V8I5'
p239
asS'PF07686'
p240
(lp241
S'G4VMC5'
p242
aS'Q5BWU0'
p243
asS'PF01421'
p244
(lp245
S'C4QGD8'
p246
asS'PF01423'
p247
(lp248
S'C1M0J1'
p249
aS'Q5BS47'
p250
asS'PF04062'
p251
(lp252
S'G4VSI1'
p253
aS'Q5BT50'
p254
asS'PF01541'
p255
(lp256
S'G4VEP1'
p257
aS'Q5C3I2'
p258
asS'PF01546'
p259
(lp260
S'C4Q2I8'
p261
asS'PF02460'
p262
(lp263
S'G4M0J8'
p264
aS'Q5C0X8'
p265
asS'PF00497'
p266
(lp267
S'G4V951'
p268
asS'PF00494'
p269
(lp270
S'C1M0K9'
p271
aS'Q5C3U7'
p272
asS'PF10276'
p273
(lp274
S'G4VRJ2'
p275
aS'Q5DC02'
p276
asS'PF00490'
p277
(lp278
S'G4VPP6'
p279
asS'PF12838'
p280
(lp281
S'Q5DHM4'
p282
aS'G4VRD8'
p283
asS'PF08336'
p284
(lp285
S'G4VTC9'
p286
asS'PF08725'
p287
(lp288
S'E7BBC0'
p289
aS'Q5C0L6'
p290
asS'PF00498'
p291
(lp292
S'C4QMA9'
p293
aS'Q5BW43'
p294
asS'PF00499'
p295
(lp296
S'Q1I0N5'
p297
aS'Q8HIG1'
p298
aS'A8D3F6'
p299
asS'PF04045'
p300
(lp301
S'Q5DFP2'
p302
aS'G4VMP1'
p303
asS'PF04095'
p304
(lp305
S'Q5C0I2'
p306
aS'G4VE80'
p307
asS'PF00089'
p308
(lp309
S'G8XRZ2'
p310
aS'C4QUA1'
p311
aS'Q8MUV5'
p312
asS'PF00088'
p313
(lp314
S'G4V8C4'
p315
aS'Q5BYN2'
p316
asS'PF00120'
p317
(lp318
S'C4Q2Z2'
p319
aS'B3W674'
p320
asS'PF02637'
p321
(lp322
S'G4LWC3'
p323
asS'PF00085'
p324
(lp325
S'B3GUT5'
p326
aS'C4QPB5'
p327
asS'PF00084'
p328
(lp329
S'C4QRP9'
p330
asS'PF00086'
p331
(lp332
S'G4V9C6'
p333
asS'PF00081'
p334
(lp335
S'G4VSQ5'
p336
aS'Q5DGW3'
p337
asS'PF00080'
p338
(lp339
S'G4M0C9'
p340
aS'Q5BWZ1'
p341
asS'PF00083'
p342
(lp343
S'Q5BWK4'
p344
aS'G4V9R8'
p345
asS'PF00082'
p346
(lp347
S'G4VKQ9'
p348
asS'PF01583'
p349
(lp350
S'Q5BWA6'
p351
aS'G4VMD4'
p352
asS'PF00992'
p353
(lp354
S'C7TYJ2'
p355
aS'G4LYF7'
p356
asS'PB024865'
p357
(lp358
S'G4V5Z4'
p359
asS'PF00648'
p360
(lp361
S'G4LXK2'
p362
aS'A5A6F7'
p363
aS'C7TZP3'
p364
asS'PF03721'
p365
(lp366
S'G4VFD1'
p367
aS'Q5C0W3'
p368
asS'PF07966'
p369
(lp370
S'Q8MPH4'
p371
asS'PF00645'
p372
(lp373
S'G4M0L0'
p374
aS'Q5BY75'
p375
asS'PF00644'
p376
(lp377
S'G4M0L0'
p378
aS'Q5BW72'
p379
asS'PF00643'
p380
(lp381
S'G4LUA6'
p382
asS'PF03727'
p383
(lp384
S'G4VIV9'
p385
aS'Q5DEN8'
p386
asS'PF00640'
p387
(lp388
S'Q5BZM3'
p389
aS'G4VI23'
p390
asS'PF00067'
p391
(lp392
S'Q5D9Z5'
p393
aS'G4VF77'
p394
asS'PF03900'
p395
(lp396
S'G4VRL5'
p397
asS'PF00063'
p398
(lp399
S'G4M0G5'
p400
aS'Q5C0P5'
p401
asS'PF01030'
p402
(lp403
S'Q5DGM4'
p404
aS'G4M1E6'
p405
asS'PF00061'
p406
(lp407
S'G4M130'
p408
aS'A5A6F5'
p409
aS'B5B7Q8'
p410
asS'PF00060'
p411
(lp412
S'G4V5I7'
p413
aS'Q5DFY7'
p414
asS'PF00306'
p415
(lp416
S'Q86EB8'
p417
aS'G4LWA8'
p418
asS'PF00307'
p419
(lp420
S'Q5BYB6'
p421
aS'G4LX56'
p422
asS'PF04042'
p423
(lp424
S'G4V6L8'
p425
aS'Q5C0B8'
p426
asS'PF00435'
p427
(lp428
S'Q5BRC3'
p429
aS'C4Q5J4'
p430
asS'PF00303'
p431
(lp432
S'Q5DEB3'
p433
aS'G4V8Q8'
p434
asS'PF00069'
p435
(lp436
S'C1M0Q3'
p437
aS'B3GUQ1'
p438
aS'D2JVC2'
p439
asS'PF08516'
p440
(lp441
S'C4QGD8'
p442
asS'PF05761'
p443
(lp444
S'G4V7G9'
p445
aS'C7TZH5'
p446
asS'PF12627'
p447
(lp448
S'G4VEK2'
p449
asS'PF14370'
p450
(lp451
S'Q3KTH0'
p452
aS'G4VRG0'
p453
asS'PF03441'
p454
(lp455
S'G4V887'
p456
asS'PF00996'
p457
(lp458
S'G4VC25'
p459
aS'Q5C1X5'
p460
asS'PF00403'
p461
(lp462
S'Q5BQT7'
p463
aS'G4VGF2'
p464
asS'PF00994'
p465
(lp466
S'C7TXS2'
p467
aS'G4V7G7'
p468
asS'PF10531'
p469
(lp470
S'Q5DGE8'
p471
aS'G4VMP3'
p472
asS'PB013485'
p473
(lp474
S'G4V6G7'
p475
aS'Q5C103'
p476
asS'PF02114'
p477
(lp478
S'G4VHU3'
p479
aS'Q5D8Q6'
p480
asS'PF02441'
p481
(lp482
S'G4VHC6'
p483
aS'Q5DHV8'
p484
asS'PF00565'
p485
(lp486
S'Q5C2R8'
p487
aS'C4QP46'
p488
asS'PF05649'
p489
(lp490
S'C7TXX5'
p491
aS'G4VCU9'
p492
asS'PF02922'
p493
(lp494
S'Q5BZT9'
p495
aS'G4V966'
p496
asS'PF02545'
p497
(lp498
S'G4VSQ0'
p499
aS'Q3MJU9'
p500
asS'PB001574'
p501
(lp502
S'Q6T6C6'
p503
asS'PF13344'
p504
(lp505
S'G4VI45'
p506
aS'Q5BZ30'
p507
asS'PF02214'
p508
(lp509
S'Q5BVP4'
p510
aS'G4LVM6'
p511
asS'PF00521'
p512
(lp513
S'G4VPA9'
p514
asS'PF00012'
p515
(lp516
S'C4QFX9'
p517
aS'B3GUU7'
p518
asS'PF00398'
p519
(lp520
S'G4LXG3'
p521
aS'Q5D8X3'
p522
asS'PF00010'
p523
(lp524
S'Q5BSM9'
p525
aS'G4LUM4'
p526
asS'PB000687'
p527
(lp528
S'G4VAL5'
p529
asS'PF02937'
p530
(lp531
S'G4LX46'
p532
asS'PF00017'
p533
(lp534
S'G4VBP7'
p535
aS'Q5BVT1'
p536
asS'PF00014'
p537
(lp538
S'G4VBB1'
p539
aS'Q5DA05'
p540
asS'PF04800'
p541
(lp542
S'G4VNZ5'
p543
aS'Q5DED6'
p544
asS'PB011930'
p545
(lp546
S'G4V8P0'
p547
asS'PF00390'
p548
(lp549
S'G4VPZ9'
p550
aS'Q5BX10'
p551
asS'PF00393'
p552
(lp553
S'Q5C0T5'
p554
aS'G4VCY4'
p555
asS'PF00019'
p556
(lp557
S'D8V162'
p558
aS'A4UAH0'
p559
asS'PF00467'
p560
(lp561
S'G4LWB3'
p562
aS'Q5DC44'
p563
asS'PF02837'
p564
(lp565
S'Q5C3D3'
p566
aS'G4VID6'
p567
asS'PF00397'
p568
(lp569
S'Q5BSG8'
p570
aS'G4V956'
p571
asS'PF00464'
p572
(lp573
S'C7TZH7'
p574
aS'G4V7S8'
p575
asS'PB000831'
p576
(lp577
S'G4V6A0'
p578
aS'Q5C1K0'
p579
asS'PF00501'
p580
(lp581
S'C4QPH4'
p582
aS'C7TXZ1'
p583
asS'PF02210'
p584
(lp585
S'G4M1W9'
p586
aS'Q5C0G2'
p587
asS'PF09258'
p588
(lp589
S'G4V9E0'
p590
aS'Q5C0P8'
p591
asS'PF02223'
p592
(lp593
S'C4PXA6'
p594
aS'B3GUS7'
p595
asS'PF08499'
p596
(lp597
S'G4VN14'
p598
asS'PF00875'
p599
(lp600
S'Q5BVY3'
p601
aS'G4LVC5'
p602
asS'PF00788'
p603
(lp604
S'Q5C0L8'
p605
aS'G4VHZ8'
p606
asS'PF04960'
p607
(lp608
S'G4VKT6'
p609
asS'PF08326'
p610
(lp611
S'G4VJ84'
p612
asS'PF04969'
p613
(lp614
S'G4LW12'
p615
aS'Q5C767'
p616
asS'PF13532'
p617
(lp618
S'Q5D9B4'
p619
aS'G4LWW8'
p620
asS'PF10585'
p621
(lp622
S'C7TZG6'
p623
aS'G4LWD7'
p624
asS'PF13534'
p625
(lp626
S'Q5MB10'
p627
aS'G4V5U3'
p628
asS'PF05000'
p629
(lp630
S'G4VH38'
p631
asS'PF00903'
p632
(lp633
S'Q86F38'
p634
aS'G4VJ60'
p635
asS'PF10589'
p636
(lp637
S'Q5DGE8'
p638
aS'G4VMP3'
p639
asS'PF10588'
p640
(lp641
S'Q5C3Z8'
p642
aS'G4LUK8'
p643
asS'PB000298'
p644
(lp645
S'Q5BSQ6'
p646
aS'G4VFA6'
p647
asS'PF02008'
p648
(lp649
S'G4VE24'
p650
aS'Q5BXE6'
p651
asS'PF02793'
p652
(lp653
S'G4LWU3'
p654
asS'PF12710'
p655
(lp656
S'G4VF82'
p657
asS'PF02749'
p658
(lp659
S'Q5DCL6'
p660
asS'PB000053'
p661
(lp662
S'Q5BSE2'
p663
aS'G4LX88'
p664
asS'PF00266'
p665
(lp666
S'G4LZ70'
p667
aS'Q5BTL9'
p668
asS'PF02065'
p669
(lp670
S'Q5C3M0'
p671
aS'G4VLD7'
p672
asS'PF00262'
p673
(lp674
S'C7TZV6'
p675
aS'C4Q5I7'
p676
asS'PB020319'
p677
(lp678
S'Q5DHS4'
p679
asS'PF02743'
p680
(lp681
S'G4VE22'
p682
asS'PF02744'
p683
(lp684
S'G4VT24'
p685
asS'PF00268'
p686
(lp687
S'Q5BRK1'
p688
aS'C4QCA2'
p689
asS'PF00503'
p690
(lp691
S'C4QDC6'
p692
aS'A1XBS3'
p693
asS'PF05184'
p694
(lp695
S'B6ZBP3'
p696
aS'Q5DGL3'
p697
asS'PF06632'
p698
(lp699
S'G4VPG1'
p700
asS'PF14492'
p701
(lp702
S'G4VR47'
p703
aS'Q5BXM1'
p704
asS'PF01909'
p705
(lp706
S'Q5C400'
p707
aS'G4VJM2'
p708
asS'PF05189'
p709
(lp710
S'Q5BWD6'
p711
aS'G4VP84'
p712
asS'PF00782'
p713
(lp714
S'C4QJ46'
p715
aS'C7TYW3'
p716
asS'PF01417'
p717
(lp718
S'Q5C2A9'
p719
aS'G4LVB4'
p720
asS'PF00104'
p721
(lp722
S'Q5C0D4'
p723
aS'G4VSW8'
p724
asS'PF03160'
p725
(lp726
S'Q5DCN0'
p727
aS'G4V5K3'
p728
asS'PF03167'
p729
(lp730
S'G4VHI3'
p731
aS'Q5DC15'
p732
asS'PF03166'
p733
(lp734
S'Q5BQQ2'
p735
aS'G4V9S6'
p736
asS'PF13450'
p737
(lp738
S'G4VTC3'
p739
aS'Q5DD49'
p740
asS'PF01596'
p741
(lp742
S'G4VHP2'
p743
aS'Q5D9S6'
p744
asS'PF00849'
p745
(lp746
S'G4VDM0'
p747
aS'Q3KZ50'
p748
asS'PF01597'
p749
(lp750
S'G4VTE8'
p751
aS'Q5D8Z8'
p752
asS'PF01645'
p753
(lp754
S'G4VS94'
p755
asS'PF01648'
p756
(lp757
S'G4VF78'
p758
asS'PF01590'
p759
(lp760
S'Q5C0E2'
p761
aS'G4VIQ4'
p762
asS'PB000552'
p763
(lp764
S'G4VQ94'
p765
asS'PB002129'
p766
(lp767
S'Q5BVJ4'
p768
aS'G4V7V3'
p769
asS'PF03453'
p770
(lp771
S'G4LZ84'
p772
asS'PF01082'
p773
(lp774
S'G4VCA0'
p775
aS'Q5DF63'
p776
asS'PF04998'
p777
(lp778
S'Q5C3D2'
p779
aS'G4VH38'
p780
asS'PF01087'
p781
(lp782
S'G4VT24'
p783
asS'PF01084'
p784
(lp785
S'Q5C271'
p786
aS'G4V6L4'
p787
asS'PF04997'
p788
(lp789
S'G4VH38'
p790
asS'PF01233'
p791
(lp792
S'Q5DFY0'
p793
aS'G4LUK0'
p794
asS'PF01167'
p795
(lp796
S'G4VQP4'
p797
asS'PB004973'
p798
(lp799
S'G4LVF0'
p800
asS'PF00698'
p801
(lp802
S'G4M0A2'
p803
aS'C7TXZ9'
p804
asS'PF01740'
p805
(lp806
S'Q5C5W4'
p807
aS'G4VPI4'
p808
asS'PF01743'
p809
(lp810
S'Q5C3N6'
p811
aS'G4VEK2'
p812
asS'PF01747'
p813
(lp814
S'Q5BS25'
p815
aS'G4VMD4'
p816
asS'PF01746'
p817
(lp818
S'G4LZF6'
p819
aS'Q5DG75'
p820
asS'PF00690'
p821
(lp822
S'G4M1H5'
p823
aS'Q5D8T0'
p824
asS'PF00096'
p825
(lp826
S'G4VAP2'
p827
aS'Q5BT35'
p828
asS'PF01462'
p829
(lp830
S'G4LVT7'
p831
asS'PF00694'
p832
(lp833
S'G4VMI0'
p834
aS'Q5D8P1'
p835
asS'PF01466'
p836
(lp837
S'G4VGF4'
p838
aS'Q86E22'
p839
asS'PF01467'
p840
(lp841
S'G4VF56'
p842
aS'Q5BY03'
p843
asS'PF14845'
p844
(lp845
S'G4VEC1'
p846
aS'Q5C4F9'
p847
asS'PF00155'
p848
(lp849
S'Q5BSJ7'
p850
aS'G4V628'
p851
asS'PF00590'
p852
(lp853
S'G4VPC1'
p854
asS'PF00596'
p855
(lp856
S'Q5C1G7'
p857
aS'G4V776'
p858
asS'PF00595'
p859
(lp860
S'Q5BTM1'
p861
aS'G4LWY5'
p862
asS'PF01039'
p863
(lp864
S'Q5BSD9'
p865
aS'G4V686'
p866
asS'PF02244'
p867
(lp868
S'C4N149'
p869
aS'C4QKW6'
p870
asS'PF09173'
p871
(lp872
S'G4VRL7'
p873
aS'Q5D9A1'
p874
asS'PF04193'
p875
(lp876
S'Q5C2M8'
p877
aS'G4V6R9'
p878
asS'PF00795'
p879
(lp880
S'Q5C342'
p881
aS'G4LZ98'
p882
asS'PF01839'
p883
(lp884
S'C4PYZ0'
p885
asS'PF00169'
p886
(lp887
S'Q5BWX3'
p888
aS'C4QKX0'
p889
asS'PF00794'
p890
(lp891
S'G4V7A4'
p892
aS'Q5C4I9'
p893
asS'PF03765'
p894
(lp895
S'G4M251'
p896
aS'Q5DCR8'
p897
asS'PF13620'
p898
(lp899
S'Q5C5E0'
p900
asS'PF00609'
p901
(lp902
S'G4LUV8'
p903
asS'PF01329'
p904
(lp905
S'G4VKX2'
p906
aS'Q86E70'
p907
asS'PF13903'
p908
(lp909
S'Q5DCP0'
p910
aS'G4LV82'
p911
asS'PF01835'
p912
(lp913
S'G4V5U5'
p914
asS'PF07724'
p915
(lp916
S'Q5BXW3'
p917
aS'G4VEI7'
p918
asS'PF14721'
p919
(lp920
S'G4LX00'
p921
asS'PB001893'
p922
(lp923
S'G4V834'
p924
asS'PF14724'
p925
(lp926
S'G4VE48'
p927
aS'Q5C353'
p928
asS'PF01266'
p929
(lp930
S'C7TY75'
p931
aS'G4LWL6'
p932
asS'PF04563'
p933
(lp934
S'G4VEG3'
p935
asS'PF04560'
p936
(lp937
S'Q5D921'
p938
aS'G4VEG3'
p939
asS'PF04561'
p940
(lp941
S'G4VQP1'
p942
asS'PF01262'
p943
(lp944
S'G4VN23'
p945
asS'PF00241'
p946
(lp947
S'G4LX89'
p948
aS'Q5BT38'
p949
asS'PF00762'
p950
(lp951
S'Q5DEU6'
p952
aS'G4V924'
p953
asS'PF04565'
p954
(lp955
S'G4VEG3'
p956
asS'PF00185'
p957
(lp958
S'G4VEM7'
p959
asS'PF02985'
p960
(lp961
S'G4LVD1'
p962
aS'C7TXT7'
p963
asS'PF00028'
p964
(lp965
S'Q5BYH6'
p966
aS'G4M253'
p967
asS'PF00180'
p968
(lp969
S'G4LUW3'
p970
aS'Q5BX67'
p971
asS'PF00181'
p972
(lp973
S'Q5BZD1'
p974
aS'G4LY29'
p975
asS'PF01512'
p976
(lp977
S'Q5DGE8'
p978
aS'G4VMP3'
p979
asS'PF01344'
p980
(lp981
S'Q5C4X9'
p982
aS'G4LYI6'
p983
asS'PF00023'
p984
(lp985
S'Q5BRJ1'
p986
aS'G4VE81'
p987
asS'PF00022'
p988
(lp989
S'G4LW08'
p990
aS'C7TQQ1'
p991
asS'PF00020'
p992
(lp993
S'Q5BVZ1'
p994
aS'D2IGB9'
p995
asS'PF00027'
p996
(lp997
S'Q3MJS0'
p998
aS'C4Q351'
p999
asS'PF00026'
p1000
(lp1001
S'B3W660'
p1002
aS'B0L5P6'
p1003
asS'PF00025'
p1004
(lp1005
S'B2MV83'
p1006
aS'G4LVZ0'
p1007
asS'PF00329'
p1008
(lp1009
S'C4QLY5'
p1010
aS'Q86EL0'
p1011
asS'PF13302'
p1012
(lp1013
S'G4LW68'
p1014
asS'PF07974'
p1015
(lp1016
S'E7BBC0'
p1017
aS'Q5C0L6'
p1018
asS'PF08752'
p1019
(lp1020
S'Q5DA95'
p1021
aS'G4V6J3'
p1022
asS'PF00754'
p1023
(lp1024
S'Q5BWR8'
p1025
aS'G4V7C2'
p1026
asS'PF00189'
p1027
(lp1028
S'B3GUS2'
p1029
aS'C4Q4Q6'
p1030
asS'PF00244'
p1031
(lp1032
S'B3GUU0'
p1033
aS'G4LUI7'
p1034
asS'PF00191'
p1035
(lp1036
S'G4LUW8'
p1037
aS'Q5BS03'
p1038
asS'PF00438'
p1039
(lp1040
S'Q5DD04'
p1041
aS'G4VLI2'
p1042
asS'PF03223'
p1043
(lp1044
S'Q5C182'
p1045
aS'G4M047'
p1046
asS'PF03466'
p1047
(lp1048
S'Q5C0H2'
p1049
asS'PF04679'
p1050
(lp1051
S'G4LYZ4'
p1052
aS'Q5C1W9'
p1053
asS'PF06001'
p1054
(lp1055
S'G4VEQ5'
p1056
asS'PF01833'
p1057
(lp1058
S'Q5C2K5'
p1059
aS'G4VGE5'
p1060
asS'PF07645'
p1061
(lp1062
S'Q5C5F4'
p1063
aS'G4LUK9'
p1064
asS'PF03261'
p1065
(lp1066
S'G4VHQ3'
p1067
asS'PF00118'
p1068
(lp1069
S'G4LWI2'
p1070
aS'B3GUU3'
p1071
asS'PF00117'
p1072
(lp1073
S'Q5C708'
p1074
aS'G4M0Y0'
p1075
asS'PF00116'
p1076
(lp1077
S'Q9MEU5'
p1078
aS'G9B0Z9'
p1079
aS'Q9MD49'
p1080
asS'PF02391'
p1081
(lp1082
S'Q5D8Y9'
p1083
asS'PF00653'
p1084
(lp1085
S'Q5DAH8'
p1086
aS'G4LZ60'
p1087
asS'PF00113'
p1088
(lp1089
S'G4VQ58'
p1090
aS'P33676'
p1091
asS'PF00112'
p1092
(lp1093
S'B3W652'
p1094
aS'G4LUV1'
p1095
asS'PF00111'
p1096
(lp1097
S'Q5DAG9'
p1098
aS'G4LZ25'
p1099
asS'PF00507'
p1100
(lp1101
S'Q9MD44'
p1102
aS'Q1I0N9'
p1103
aS'G9B133'
p1104
asS'PF00337'
p1105
(lp1106
S'Q5C6L1'
p1107
asS'PF00335'
p1108
(lp1109
S'C4Q3U8'
p1110
aS'A5JP10'
p1111
aS'Q26499'
p1112
asS'PF00334'
p1113
(lp1114
S'B3GUP5'
p1115
aS'G4LY79'
p1116
asS'PF00333'
p1117
(lp1118
S'Q86ER5'
p1119
aS'G4M0S7'
p1120
asS'PF06459'
p1121
(lp1122
S'G4LXE8'
p1123
asS'PF02934'
p1124
(lp1125
S'G4LWC3'
p1126
aS'Q5C1L7'
p1127
asS'PF13906'
p1128
(lp1129
S'G4VAD5'
p1130
aS'Q5BS75'
p1131
asS'PF00159'
p1132
(lp1133
S'G4LVY8'
p1134
asS'PF08996'
p1135
(lp1136
S'G4LX42'
p1137
asS'PF00233'
p1138
(lp1139
S'Q5BYM4'
p1140
aS'G4LUV5'
p1141
asS'PF00230'
p1142
(lp1143
S'Q5DH56'
p1144
aS'C4PYI6'
p1145
asS'PF00338'
p1146
(lp1147
S'O17454'
p1148
aS'B3W655'
p1149
asS'PF13574'
p1150
(lp1151
S'G4VEJ8'
p1152
asS'PF04928'
p1153
(lp1154
S'G4LZL5'
p1155
aS'Q5C400'
p1156
asS'PF00378'
p1157
(lp1158
S'C4QS32'
p1159
asS'PF00164'
p1160
(lp1161
S'C7U001'
p1162
aS'G4VRC6'
p1163
asS'PF00560'
p1164
(lp1165
S'Q5C195'
p1166
aS'G4V8E9'
p1167
asS'PF04926'
p1168
(lp1169
S'G4LZL5'
p1170
asS'PF00183'
p1171
(lp1172
S'Q5DBB0'
p1173
aS'Q26582'
p1174
asS'PF04739'
p1175
(lp1176
S'Q5BZ03'
p1177
aS'G4LXW9'
p1178
asS'PF02897'
p1179
(lp1180
S'Q5BVV0'
p1181
asS'PF13927'
p1182
(lp1183
S'G4VHK7'
p1184
aS'B5B7R3'
p1185
asS'PF09005'
p1186
(lp1187
S'G4VQS8'
p1188
aS'C7TYE7'
p1189
asS'PF02026'
p1190
(lp1191
S'G4LXE8'
p1192
asS'PB001594'
p1193
(lp1194
S'G4LXE8'
p1195
asS'PF02786'
p1196
(lp1197
S'G4V7M2'
p1198
aS'Q5BYR3'
p1199
asS'PF02787'
p1200
(lp1201
S'G4VEM7'
p1202
asS'PF02780'
p1203
(lp1204
S'G4V9A5'
p1205
aS'Q5BSR1'
p1206
asS'PF05047'
p1207
(lp1208
S'G4LVF9'
p1209
aS'Q5BRS6'
p1210
asS'PB001379'
p1211
(lp1212
S'G4M0E5'
p1213
asS'PF02803'
p1214
(lp1215
S'G4VEI2'
p1216
aS'Q5BSM6'
p1217
asS'PF08544'
p1218
(lp1219
S'G4VIV3'
p1220
aS'Q5BYX6'
p1221
asS'PF02801'
p1222
(lp1223
S'G4VIH2'
p1224
asS'PF02800'
p1225
(lp1226
S'G4V5I1'
p1227
aS'C7TRL0'
p1228
asS'PF02807'
p1229
(lp1230
S'Q5C104'
p1231
aS'P16641'
p1232
asS'PF02806'
p1233
(lp1234
S'Q5BYN9'
p1235
aS'G4V966'
p1236
asS'PF02148'
p1237
(lp1238
S'G4M151'
p1239
aS'Q5BVR0'
p1240
asS'PF00433'
p1241
(lp1242
S'Q5DF91'
p1243
aS'G4M0Q1'
p1244
asS'PF02146'
p1245
(lp1246
S'Q5BVF7'
p1247
aS'G4VH77'
p1248
asS'PF02809'
p1249
(lp1250
S'G4V670'
p1251
aS'Q5BYI2'
p1252
asS'PF00349'
p1253
(lp1254
S'G4VIV9'
p1255
asS'PF03949'
p1256
(lp1257
S'G4VS91'
p1258
aS'Q5BXZ0'
p1259
asS'PF00439'
p1260
(lp1261
S'G4LUL9'
p1262
aS'C7TXV3'
p1263
asS'PF00769'
p1264
(lp1265
S'C7TXW6'
p1266
aS'G4VND0'
p1267
asS'PF13492'
p1268
(lp1269
S'G4VIQ4'
p1270
asS'PB004580'
p1271
(lp1272
S'G4VAJ2'
p1273
asS'PF09326'
p1274
(lp1275
S'G4LUK7'
p1276
aS'Q5BXF5'
p1277
asS'PF01619'
p1278
(lp1279
S'C7TYZ6'
p1280
aS'G4VHM2'
p1281
asS'PF00730'
p1282
(lp1283
S'G4V5S0'
p1284
aS'Q5BZ67'
p1285
asS'PF00808'
p1286
(lp1287
S'G4LY28'
p1288
aS'Q5DCN4'
p1289
asS'PF00305'
p1290
(lp1291
S'Q5C0R3'
p1292
aS'G4V9T8'
p1293
asS'PF00514'
p1294
(lp1295
S'Q5BR97'
p1296
aS'G4LY37'
p1297
asS'PF13410'
p1298
(lp1299
S'Q5DC25'
p1300
asS'PF08543'
p1301
(lp1302
S'G4LYD3'
p1303
asS'PF00801'
p1304
(lp1305
S'G4VTA6'
p1306
asS'PF13417'
p1307
(lp1308
S'G4M1D8'
p1309
aS'Q5DCE6'
p1310
asS'PF13414'
p1311
(lp1312
S'Q5BWX9'
p1313
aS'G4V5K6'
p1314
asS'PF02230'
p1315
(lp1316
S'G4VPG3'
p1317
aS'C9W186'
p1318
asS'PF01042'
p1319
(lp1320
S'G4VND5'
p1321
asS'PF03129'
p1322
(lp1323
S'Q5BSM0'
p1324
aS'G4V6P1'
p1325
asS'PF14691'
p1326
(lp1327
S'G4VS94'
p1328
asS'PF01124'
p1329
(lp1330
S'G4VH65'
p1331
aS'Q5DAX1'
p1332
asS'PF01127'
p1333
(lp1334
S'Q5DC80'
p1335
aS'G4V7H1'
p1336
asS'PF05221'
p1337
(lp1338
S'G4LX02'
p1339
aS'C7TYU5'
p1340
asS'PF01121'
p1341
(lp1342
S'Q5BS45'
p1343
aS'G4VI32'
p1344
asS'PF01120'
p1345
(lp1346
S'Q86FH9'
p1347
aS'G4LY49'
p1348
asS'PF01048'
p1349
(lp1350
S'G4LWY0'
p1351
aS'Q5C0P1'
p1352
asS'PF09358'
p1353
(lp1354
S'Q86FX4'
p1355
aS'G4VT46'
p1356
asS'PF05347'
p1357
(lp1358
S'Q5DD89'
p1359
aS'G4LWS5'
p1360
asS'PF02736'
p1361
(lp1362
S'C7TZG8'
p1363
aS'G4M0F9'
p1364
asS'PF13764'
p1365
(lp1366
S'G4V702'
p1367
aS'Q5BW95'
p1368
asS'PF01549'
p1369
(lp1370
S'G4VBI2'
p1371
asS'PF00689'
p1372
(lp1373
S'G4M1H5'
p1374
aS'Q5C3S1'
p1375
asS'PF00989'
p1376
(lp1377
S'G4VTB4'
p1378
asS'PF11969'
p1379
(lp1380
S'Q5DGH0'
p1381
aS'G4VBL9'
p1382
asS'PF00631'
p1383
(lp1384
S'G4M241'
p1385
asS'PF12473'
p1386
(lp1387
S'G4V7M8'
p1388
aS'Q5D9G9'
p1389
asS'PF00186'
p1390
(lp1391
S'G4VJD6'
p1392
asS'PF04253'
p1393
(lp1394
S'G4VIQ5'
p1395
asS'PF00984'
p1396
(lp1397
S'G4VFD1'
p1398
asS'PF09379'
p1399
(lp1400
S'Q5DC84'
p1401
aS'G4LVJ2'
p1402
asS'PF00665'
p1403
(lp1404
S'Q5BTF1'
p1405
aS'C4QQP9'
p1406
asS'PF02320'
p1407
(lp1408
S'G4VT15'
p1409
aS'B3GUT1'
p1410
asS'PF03171'
p1411
(lp1412
S'G4VPQ8'
p1413
aS'Q86ED8'
p1414
asS'PF01222'
p1415
(lp1416
S'G4V6C5'
p1417
asS'PF01388'
p1418
(lp1419
S'Q5C2V9'
p1420
aS'G4VD19'
p1421
asS'PF00890'
p1422
(lp1423
S'Q5BZ39'
p1424
aS'G4LY63'
p1425
asS'PF03520'
p1426
(lp1427
S'G4VB79'
p1428
asS'PF01227'
p1429
(lp1430
S'G4VFZ0'
p1431
asS'PF00400'
p1432
(lp1433
S'C7TZP6'
p1434
aS'G4V714'
p1435
asS'PF00728'
p1436
(lp1437
S'G4VEC1'
p1438
aS'Q5C0G9'
p1439
asS'PF01380'
p1440
(lp1441
S'G4VKP9'
p1442
asS'PF13465'
p1443
(lp1444
S'Q5C084'
p1445
aS'C1M0Z0'
p1446
asS'PF00899'
p1447
(lp1448
S'Q5BTB5'
p1449
aS'G4VBY2'
p1450
asS'PF03131'
p1451
(lp1452
S'B3GUW6'
p1453
aS'G4LWZ6'
p1454
asS'PF13460'
p1455
(lp1456
S'Q5D9P7'
p1457
aS'C4QQ81'
p1458
asS'PF08242'
p1459
(lp1460
S'G4VKK8'
p1461
asS'PF14602'
p1462
(lp1463
S'G4V9T4'
p1464
aS'Q5DCG0'
p1465
asS'PF03957'
p1466
(lp1467
S'Q5C166'
p1468
aS'G4VQC3'
p1469
asS'PF01411'
p1470
(lp1471
S'G4VNT2'
p1472
aS'Q5DI40'
p1473
asS'PF01410'
p1474
(lp1475
S'Q5C0K3'
p1476
aS'G4V6S8'
p1477
asS'PF08240'
p1478
(lp1479
S'Q5BRU3'
p1480
aS'G4VEY4'
p1481
asS'PF08246'
p1482
(lp1483
S'Q10834'
p1484
aS'B4XC67'
p1485
asS'PF08245'
p1486
(lp1487
S'G4V6Z6'
p1488
asS'PF07678'
p1489
(lp1490
S'G4V5U5'
p1491
aS'Q5BZH7'
p1492
asS'PF07677'
p1493
(lp1494
S'G4V5U5'
p1495
asS'PF00188'
p1496
(lp1497
S'B3GUV1'
p1498
aS'A3RK85'
p1499
asS'PF04072'
p1500
(lp1501
S'Q5C706'
p1502
aS'G4V5Z4'
p1503
asS'PF10436'
p1504
(lp1505
S'Q5BXW9'
p1506
aS'G4V9U6'
p1507
asS'PF10431'
p1508
(lp1509
S'G4VEI7'
p1510
asS'PF08718'
p1511
(lp1512
S'Q5BS48'
p1513
aS'C1M142'
p1514
asS'PF00570'
p1515
(lp1516
S'Q5C709'
p1517
aS'G4VEU9'
p1518
asS'PF01557'
p1519
(lp1520
S'Q5DFL7'
p1521
aS'G4M1F1'
p1522
asS'PB020950'
p1523
(lp1524
S'G4VD76'
p1525
asS'PF10744'
p1526
(lp1527
S'G4V7K4'
p1528
asS'PF02199'
p1529
(lp1530
S'Q5D981'
p1531
aS'G4LVS4'
p1532
asS'PB003764'
p1533
(lp1534
S'Q5D8Y7'
p1535
asS'PB000162'
p1536
(lp1537
S'G4LZ82'
p1538
asS'PF02197'
p1539
(lp1540
S'Q5DHK8'
p1541
aS'G4LUC8'
p1542
asS'PF02196'
p1543
(lp1544
S'G4VG61'
p1545
asS'PF02190'
p1546
(lp1547
S'G4VN42'
p1548
aS'Q5C1R9'
p1549
asS'PF08490'
p1550
(lp1551
S'G4VQT4'
p1552
asS'PF02192'
p1553
(lp1554
S'G4V7A4'
p1555
asS'PF00153'
p1556
(lp1557
S'G4VHS7'
p1558
aS'C7TXU4'
p1559
asS'PF00152'
p1560
(lp1561
S'C1M2T7'
p1562
aS'Q5BXL5'
p1563
asS'PF00098'
p1564
(lp1565
S'G4VJQ7'
p1566
aS'C9W184'
p1567
asS'PF00150'
p1568
(lp1569
S'C4QQE1'
p1570
aS'Q5DGI7'
p1571
asS'PF00156'
p1572
(lp1573
S'Q5DFR6'
p1574
aS'G4LWP0'
p1575
asS'PF02359'
p1576
(lp1577
S'G4M0P6'
p1578
aS'Q5BZ78'
p1579
asS'PF00092'
p1580
(lp1581
S'G4VPB0'
p1582
asS'PF00090'
p1583
(lp1584
S'G4V8Y0'
p1585
aS'Q5C4K9'
p1586
asS'PF00091'
p1587
(lp1588
S'Q5FYA5'
p1589
aS'G4VBP8'
p1590
aS'Q5BW30'
p1591
asS'PF01907'
p1592
(lp1593
S'Q5BTL2'
p1594
aS'G4VMB4'
p1595
asS'PF01869'
p1596
(lp1597
S'Q5C4V2'
p1598
aS'G4VHY4'
p1599
asS'PF12210'
p1600
(lp1601
S'Q5BYX4'
p1602
aS'G4VTD6'
p1603
asS'PF01257'
p1604
(lp1605
S'Q5BT40'
p1606
aS'G4VK53'
p1607
asS'PF01704'
p1608
(lp1609
S'Q5BWC4'
p1610
aS'G4VDL3'
p1611
asS'PF01255'
p1612
(lp1613
S'G4VSC1'
p1614
aS'B3GUV0'
p1615
asS'PF03185'
p1616
(lp1617
S'G4V6M8'
p1618
asS'PF00659'
p1619
(lp1620
S'D2XBL6'
p1621
aS'Q5DEU3'
p1622
asS'PF01250'
p1623
(lp1624
S'G4VNA1'
p1625
aS'Q5DBB1'
p1626
asS'PF00654'
p1627
(lp1628
S'Q5BR49'
p1629
aS'G4M0B7'
p1630
asS'PF00827'
p1631
(lp1632
S'G4LYP0'
p1633
aS'B3GUU2'
p1634
asS'PF00656'
p1635
(lp1636
S'C4Q500'
p1637
aS'Q5C0Y4'
p1638
asS'PF00657'
p1639
(lp1640
S'G4LZC1'
p1641
aS'Q5DCP1'
p1642
asS'PF00650'
p1643
(lp1644
S'G4M0L2'
p1645
aS'Q5BZ08'
p1646
asS'PF00651'
p1647
(lp1648
S'Q5BTF8'
p1649
aS'C1M0Q4'
p1650
asS'PF00652'
p1651
(lp1652
S'Q5BZK1'
p1653
aS'G4LXX4'
p1654
asS'PF07973'
p1655
(lp1656
S'G4V6P2'
p1657
aS'Q5C0E7'
p1658
asS'PF12796'
p1659
(lp1660
S'C7TY05'
p1661
aS'G4LZI1'
p1662
asS'PF00075'
p1663
(lp1664
S'Q5BXL7'
p1665
aS'C1M257'
p1666
asS'PF00076'
p1667
(lp1668
S'G4LVP3'
p1669
aS'A4GU99'
p1670
asS'PF00077'
p1671
(lp1672
S'Q4QQF7'
p1673
aS'Q5C201'
p1674
asS'PF00070'
p1675
(lp1676
S'B5THG7'
p1677
aS'G4V8J4'
p1678
asS'PF00071'
p1679
(lp1680
S'C4PY91'
p1681
aS'A1XBS0'
p1682
asS'PF03919'
p1683
(lp1684
S'G4LUD1'
p1685
asS'PF00373'
p1686
(lp1687
S'C7TXT2'
p1688
aS'G4LWV5'
p1689
asS'PF03917'
p1690
(lp1691
S'Q5D8T9'
p1692
aS'G4VNT7'
p1693
asS'PF00370'
p1694
(lp1695
S'G4VCJ6'
p1696
aS'Q5C1C4'
p1697
asS'PF00078'
p1698
(lp1699
S'C1M102'
p1700
aS'C7C209'
p1701
asS'PF00079'
p1702
(lp1703
S'G4LYU5'
p1704
aS'B2MV81'
p1705
aS'Q26502'
p1706
asS'PF00375'
p1707
(lp1708
S'G4VEI8'
p1709
aS'Q5BZ02'
p1710
asS'PF12799'
p1711
(lp1712
S'G4VKS6'
p1713
aS'Q5DGE5'
p1714
asS'PF10509'
p1715
(lp1716
S'G4VRV4'
p1717
aS'Q5BYG8'
p1718
asS'PB000013'
p1719
(lp1720
S'Q5BSX8'
p1721
aS'G4M060'
p1722
asS'PF14306'
p1723
(lp1724
S'G4VMD4'
p1725
aS'A2SUQ9'
p1726
asS'PF08669'
p1727
(lp1728
S'G4V9G0'
p1729
asS'PF02939'
p1730
(lp1731
S'G4VIZ2'
p1732
asS'PF10502'
p1733
(lp1734
S'Q3KTF9'
p1735
asS'PF04777'
p1736
(lp1737
S'Q5DC50'
p1738
aS'G4M193'
p1739
asS'PF08205'
p1740
(lp1741
S'G4V824'
p1742
asS'PF07687'
p1743
(lp1744
S'C4Q2I8'
p1745
asS'PB004891'
p1746
(lp1747
S'G4VRR0'
p1748
asS'PF00387'
p1749
(lp1750
S'G4VBK4'
p1751
asS'PF00384'
p1752
(lp1753
S'G4LUK7'
p1754
aS'Q5BXF5'
p1755
asS'PF00385'
p1756
(lp1757
S'G4M0M3'
p1758
aS'Q5BTJ2'
p1759
asS'PF00383'
p1760
(lp1761
S'Q5BSV3'
p1762
aS'G4V9Y6'
p1763
asS'PF00380'
p1764
(lp1765
S'Q5DAT2'
p1766
aS'C4QII3'
p1767
asS'PF02518'
p1768
(lp1769
S'G4V9U6'
p1770
aS'Q5BS88'
p1771
asS'PF08399'
p1772
(lp1773
S'G4LXH5'
p1774
asS'PF13848'
p1775
(lp1776
S'B3W657'
p1777
aS'G4VMZ6'
p1778
asS'PF00388'
p1779
(lp1780
S'G4VBK4'
p1781
asS'PF00389'
p1782
(lp1783
S'G4M046'
p1784
asS'PF00478'
p1785
(lp1786
S'G4V9I5'
p1787
aS'Q5C0P0'
p1788
asS'PF00479'
p1789
(lp1790
S'Q86EP4'
p1791
aS'G4VAM6'
p1792
asS'PF00573'
p1793
(lp1794
S'G4V6B7'
p1795
aS'Q5DEG2'
p1796
asS'PF00549'
p1797
(lp1798
S'G4LX99'
p1799
aS'Q5BS99'
p1800
asS'PF03351'
p1801
(lp1802
S'Q5C0N9'
p1803
asS'PF02928'
p1804
(lp1805
S'G4LUD8'
p1806
asS'PF00578'
p1807
(lp1808
S'G4LV26'
p1809
aS'C7TZK0'
p1810
asS'PF13964'
p1811
(lp1812
S'G4VLQ8'
p1813
asS'PF00474'
p1814
(lp1815
S'G4VE28'
p1816
aS'Q5BW20'
p1817
asS'PF00476'
p1818
(lp1819
S'Q5DHX5'
p1820
aS'G4V9C1'
p1821
asS'PF13688'
p1822
(lp1823
S'G4LXI4'
p1824
asS'PF00207'
p1825
(lp1826
S'G4V5U5'
p1827
asS'PF00206'
p1828
(lp1829
S'G4LVG5'
p1830
aS'Q5C1G4'
p1831
asS'PF00205'
p1832
(lp1833
S'G4LZK6'
p1834
asS'PF00204'
p1835
(lp1836
S'G4VPA9'
p1837
asS'PF00203'
p1838
(lp1839
S'G4VJN9'
p1840
aS'Q5BTN7'
p1841
asS'PF00202'
p1842
(lp1843
S'Q5DDC4'
p1844
aS'A7UAX6'
p1845
asS'PF00200'
p1846
(lp1847
S'C4QGD8'
p1848
asS'PF02852'
p1849
(lp1850
S'B5THG7'
p1851
aS'G4V8J4'
p1852
asS'PF00209'
p1853
(lp1854
S'Q5BTB8'
p1855
aS'A0N0C4'
p1856
asS'PF00208'
p1857
(lp1858
S'G4LYZ1'
p1859
asS'PF00579'
p1860
(lp1861
S'Q5BYF9'
p1862
aS'G4LXR8'
p1863
asS'PF13931'
p1864
(lp1865
S'C4QU01'
p1866
asS'PF02775'
p1867
(lp1868
S'Q5C320'
p1869
asS'PF00930'
p1870
(lp1871
S'G4VMP5'
p1872
asS'PF02777'
p1873
(lp1874
S'Q5DCH6'
p1875
aS'G4VSQ5'
p1876
asS'PF02776'
p1877
(lp1878
S'G4LZK6'
p1879
asS'PF02771'
p1880
(lp1881
S'G4VCG4'
p1882
asS'PF13242'
p1883
(lp1884
S'Q5DEX8'
p1885
aS'G4VFM9'
p1886
asS'PF02773'
p1887
(lp1888
S'Q5DD04'
p1889
aS'G4VLI2'
p1890
asS'PF02772'
p1891
(lp1892
S'Q5DD04'
p1893
aS'G4VLI2'
p1894
asS'PF00939'
p1895
(lp1896
S'Q5BVH8'
p1897
aS'G4VTS9'
p1898
asS'PF01000'
p1899
(lp1900
S'G4LUY0'
p1901
asS'PF02779'
p1902
(lp1903
S'Q5BSL1'
p1904
aS'G4V9A5'
p1905
asS'PF13249'
p1906
(lp1907
S'G4VI00'
p1908
aS'Q5D978'
p1909
asS'PF05175'
p1910
(lp1911
S'C4QC82'
p1912
asS'PF02177'
p1913
(lp1914
S'G4LY13'
p1915
aS'Q5DBI0'
p1916
asS'PF00270'
p1917
(lp1918
S'C7TZN6'
p1919
aS'C4QLP5'
p1920
asS'PF02174'
p1921
(lp1922
S'G4LZ85'
p1923
aS'Q5BX80'
p1924
asS'PF00276'
p1925
(lp1926
S'Q5DFF9'
p1927
aS'G4VLH8'
p1928
asS'PF02172'
p1929
(lp1930
S'G4VEQ5'
p1931
asS'PF00274'
p1932
(lp1933
S'C7U000'
p1934
aS'G4VJT9'
p1935
asS'PF07555'
p1936
(lp1937
S'G4VET1'
p1938
asS'PF06418'
p1939
(lp1940
S'G4VCB5'
p1941
aS'Q5BRU4'
p1942
asS'PB000182'
p1943
(lp1944
S'G4VA15'
p1945
aS'Q5BZY4'
p1946
asS'PF03454'
p1947
(lp1948
S'G4LZ83'
p1949
aS'Q5DGM2'
p1950
asS'PF02179'
p1951
(lp1952
S'G4LUU3'
p1953
aS'B3W677'
p1954
asS'PF05821'
p1955
(lp1956
S'G4VLU9'
p1957
asS'PF05195'
p1958
(lp1959
S'G4VET0'
p1960
aS'Q5D954'
p1961
asS'PF01189'
p1962
(lp1963
S'G4LZF7'
p1964
aS'C7TXW0'
p1965
asS'PF00013'
p1966
(lp1967
S'G4LYQ9'
p1968
aS'Q5BZP7'
p1969
asS'PF05191'
p1970
(lp1971
S'Q5DDI4'
p1972
aS'G4M079'
p1973
asS'PF05193'
p1974
(lp1975
S'Q5DD24'
p1976
aS'G4LV68'
p1977
asS'PF01182'
p1978
(lp1979
S'G4LUQ5'
p1980
aS'Q5DCA2'
p1981
asS'PF01180'
p1982
(lp1983
S'Q5BVT7'
p1984
aS'G4VFD7'
p1985
asS'PF05199'
p1986
(lp1987
S'Q5C038'
p1988
aS'G4VPI5'
p1989
asS'PF00406'
p1990
(lp1991
S'Q5C0W0'
p1992
aS'C4QNP4'
p1993
asS'PB001122'
p1994
(lp1995
S'G4VCP8'
p1996
aS'Q5BZI6'
p1997
asS'PF00857'
p1998
(lp1999
S'Q5BSG1'
p2000
aS'G4LYG9'
p2001
asS'PF12423'
p2002
(lp2003
S'G4VQ20'
p2004
asS'PB001126'
p2005
(lp2006
S'G4LXE8'
p2007
asS'PF13426'
p2008
(lp2009
S'G4VT54'
p2010
asS'PF00850'
p2011
(lp2012
S'A5H658'
p2013
aS'Q5C2D1'
p2014
asS'PF10373'
p2015
(lp2016
S'G4LY27'
p2017
asS'PF02872'
p2018
(lp2019
S'G4VM41'
p2020
aS'Q5C3Y1'
p2021
asS'PF00858'
p2022
(lp2023
S'Q5BW11'
p2024
aS'G4LUW7'
p2025
asS'PB000549'
p2026
(lp2027
S'G4LXE8'
p2028
asS'PB000467'
p2029
(lp2030
S'G4LXE8'
p2031
asS'PF07647'
p2032
(lp2033
S'C7TYB3'
p2034
aS'G4LWA5'
p2035
asS'PF03071'
p2036
(lp2037
S'Q5BVR5'
p2038
aS'G4VFZ1'
p2039
asS'PF00168'
p2040
(lp2041
S'G4M2A8'
p2042
aS'Q5BVG7'
p2043
asS'PF03073'
p2044
(lp2045
S'G4VJX2'
p2046
asS'PF14572'
p2047
(lp2048
S'Q5DCA0'
p2049
aS'G4VE33'
p2050
asS'PF03074'
p2051
(lp2052
S'G4LVH9'
p2053
aS'Q5C216'
p2054
asS'PF10569'
p2055
(lp2056
S'Q5C2N1'
p2057
aS'G4V5U5'
p2058
asS'PF08332'
p2059
(lp2060
S'Q5BS63'
p2061
aS'G4VSZ0'
p2062
asS'PF01331'
p2063
(lp2064
S'G4LUD1'
p2065
aS'Q5BZ60'
p2066
asS'PF14748'
p2067
(lp2068
S'Q5BYJ6'
p2069
aS'G4V8Z5'
p2070
asS'PF10374'
p2071
(lp2072
S'G4LY27'
p2073
asS'PF07650'
p2074
(lp2075
S'B3GUS2'
p2076
aS'C4Q4Q6'
p2077
asS'PF01074'
p2078
(lp2079
S'Q5BYG0'
p2080
aS'G4M0J4'
p2081
asS'PF07653'
p2082
(lp2083
S'G4V6R5'
p2084
aS'Q5C034'
p2085
asS'PF01694'
p2086
(lp2087
S'G4LWH6'
p2088
aS'Q5BZH1'
p2089
asS'PF01693'
p2090
(lp2091
S'C4QPU4'
p2092
asS'PF00692'
p2093
(lp2094
S'C7TZU9'
p2095
aS'G4V790'
p2096
asS'PF00686'
p2097
(lp2098
S'Q5BWQ3'
p2099
aS'G4VT89'
p2100
asS'PF01759'
p2101
(lp2102
S'G4VPQ4'
p2103
asS'PF00571'
p2104
(lp2105
S'G4LUH6'
p2106
aS'Q3MJS8'
p2107
asS'PF05995'
p2108
(lp2109
S'Q9U8F1'
p2110
aS'G4VMS5'
p2111
asS'PF01588'
p2112
(lp2113
S'Q5C1M3'
p2114
aS'G4M0L7'
p2115
asS'PF01753'
p2116
(lp2117
S'B1WA72'
p2118
aS'G4VQ43'
p2119
asS'PF01699'
p2120
(lp2121
S'Q5DB32'
p2122
aS'G4VDQ9'
p2123
asS'PF13385'
p2124
(lp2125
S'G4V5T7'
p2126
asS'PF00581'
p2127
(lp2128
S'G4LWD8'
p2129
aS'Q5DC45'
p2130
asS'PF00583'
p2131
(lp2132
S'Q5C0U1'
p2133
aS'G4V884'
p2134
asS'PF01494'
p2135
(lp2136
S'G4LYR0'
p2137
asS'PB000729'
p2138
(lp2139
S'Q5D9C9'
p2140
asS'PF12254'
p2141
(lp2142
S'G4LX42'
p2143
asS'PF00588'
p2144
(lp2145
S'O17455'
p2146
aS'Q5DH58'
p2147
asS'PF00122'
p2148
(lp2149
S'Q5BVV2'
p2150
aS'G4M0N5'
p2151
asS'PF00115'
p2152
(lp2153
S'C5I6T0'
p2154
aS'B2D0Q6'
p2155
aS'B0FNB5'
p2156
asS'PF02254'
p2157
(lp2158
S'G4V7I3'
p2159
asS'PF13639'
p2160
(lp2161
S'G4LVZ7'
p2162
aS'C7TZ11'
p2163
asS'PF00612'
p2164
(lp2165
S'G4M098'
p2166
aS'Q5D903'
p2167
asS'PF00613'
p2168
(lp2169
S'Q5BYQ1'
p2170
aS'G4LXS4'
p2171
asS'PF00614'
p2172
(lp2173
S'G4V7U9'
p2174
asS'PB001633'
p2175
(lp2176
S'G4VHR1'
p2177
asS'PF00619'
p2178
(lp2179
S'Q5BX06'
p2180
aS'G4LYL7'
p2181
asS'PF03770'
p2182
(lp2183
S'Q5D967'
p2184
aS'G4LWT5'
p2185
asS'PF00121'
p2186
(lp2187
S'B3GUX0'
p2188
aS'G4V6B9'
p2189
aS'A5A6F9'
p2190
asS'PF13733'
p2191
(lp2192
S'G4V5Y6'
p2193
aS'Q5C136'
p2194
asS'PF01825'
p2195
(lp2196
S'G4VNK8'
p2197
asS'PF00505'
p2198
(lp2199
S'Q5BWG2'
p2200
aS'G4LV66'
p2201
asS'PF13193'
p2202
(lp2203
S'G4VI74'
p2204
aS'Q5BS93'
p2205
asS'PF01926'
p2206
(lp2207
S'G4LUR9'
p2208
aS'Q5BZW1'
p2209
asS'PF02274'
p2210
(lp2211
S'Q5DBK4'
p2212
aS'G4VB55'
p2213
asS'PF08447'
p2214
(lp2215
S'G4VTB4'
p2216
asS'PF01210'
p2217
(lp2218
S'C4Q5J8'
p2219
aS'Q5C0H1'
p2220
asS'PF08441'
p2221
(lp2222
S'C4PYZ0'
p2223
asS'PB000026'
p2224
(lp2225
S'G4VTM2'
p2226
aS'Q5BVJ9'
p2227
asS'PF01215'
p2228
(lp2229
S'Q5DAF2'
p2230
aS'G4VST4'
p2231
asS'PF08442'
p2232
(lp2233
S'Q5BXZ4'
p2234
aS'G4LX99'
p2235
asS'PF00038'
p2236
(lp2237
S'Q3KZ84'
p2238
aS'G4LVZ3'
p2239
asS'PF01783'
p2240
(lp2241
S'Q5C3Z1'
p2242
aS'G4V665'
p2243
asS'PF12697'
p2244
(lp2245
S'G4VRS9'
p2246
aS'Q5BY96'
p2247
asS'PF03950'
p2248
(lp2249
S'G4V8J0'
p2250
aS'Q5DAC3'
p2251
asS'PF12695'
p2252
(lp2253
S'Q5DDP9'
p2254
aS'C4QK30'
p2255
asS'PF07748'
p2256
(lp2257
S'Q5C096'
p2258
aS'G4M0J4'
p2259
asS'PF00032'
p2260
(lp2261
S'Q1I0P2'
p2262
aS'B0FNB8'
p2263
aS'Q3KU59'
p2264
asS'PF12698'
p2265
(lp2266
S'G4V5Y9'
p2267
asS'PF00034'
p2268
(lp2269
S'Q86EU4'
p2270
aS'Q15EU2'
p2271
asS'PF00036'
p2272
(lp2273
S'P13566'
p2274
aS'Q5DFN5'
p2275
asS'PF00037'
p2276
(lp2277
S'G4LXI8'
p2278
aS'Q5C0Q9'
p2279
asS'PF01728'
p2280
(lp2281
S'C7TYT9'
p2282
aS'G4LWM3'
p2283
asS'PF00128'
p2284
(lp2285
S'B9P3Q9'
p2286
aS'B9P3Q8'
p2287
asS'PF08214'
p2288
(lp2289
S'G4VEQ5'
p2290
asS'PF11717'
p2291
(lp2292
S'C4PY87'
p2293
aS'Q5C1D5'
p2294
asS'PF04099'
p2295
(lp2296
S'Q5DF44'
p2297
aS'G4M0H2'
p2298
asS'PF12769'
p2299
(lp2300
S'G4VN23'
p2301
asS'PF00535'
p2302
(lp2303
S'G4VIT8'
p2304
aS'Q5BYW7'
p2305
asS'PF13920'
p2306
(lp2307
S'G4LUY5'
p2308
aS'Q5BW32'
p2309
asS'PF00536'
p2310
(lp2311
S'G4LZP0'
p2312
aS'Q5BT66'
p2313
asS'PF00531'
p2314
(lp2315
S'C4Q195'
p2316
aS'Q5BSI9'
p2317
asS'PF00530'
p2318
(lp2319
S'G4V6K5'
p2320
asS'PF00533'
p2321
(lp2322
S'G4LWB7'
p2323
asS'PF13085'
p2324
(lp2325
S'Q5MB10'
p2326
aS'G4V5U2'
p2327
asS'PF02225'
p2328
(lp2329
S'G4VDJ3'
p2330
aS'Q5C2X8'
p2331
asS'PF00330'
p2332
(lp2333
S'G4VMI0'
p2334
aS'Q5BXP5'
p2335
asS'PF03493'
p2336
(lp2337
S'C4QJB8'
p2338
asS'PF02221'
p2339
(lp2340
S'G4VTW4'
p2341
aS'Q5DFZ4'
p2342
asS'PF04137'
p2343
(lp2344
S'G4V613'
p2345
aS'Q5C3Q3'
p2346
asS'PF00108'
p2347
(lp2348
S'Q5C0R7'
p2349
aS'G4VEI2'
p2350
asS'PF00109'
p2351
(lp2352
S'G4VIH2'
p2353
aS'Q5C2A3'
p2354
asS'PF00237'
p2355
(lp2356
S'G4VMA5'
p2357
aS'C7TZX1'
p2358
asS'PF03259'
p2359
(lp2360
S'G4VD69'
p2361
aS'Q5BS32'
p2362
asS'PF00105'
p2363
(lp2364
S'Q5BWT5'
p2365
aS'G4VD34'
p2366
asS'PF00106'
p2367
(lp2368
S'B3GV02'
p2369
aS'G4LVT4'
p2370
asS'PF00107'
p2371
(lp2372
S'G4VEY4'
p2373
asS'PF01459'
p2374
(lp2375
S'G4M1U7'
p2376
aS'C7TZJ6'
p2377
asS'PF01591'
p2378
(lp2379
S'G4VSL5'
p2380
aS'Q5BRC6'
p2381
asS'PF00102'
p2382
(lp2383
S'C7TXS1'
p2384
aS'G4VF06'
p2385
asS'PF01593'
p2386
(lp2387
S'G4VFV2'
p2388
aS'Q5C5E5'
p2389
asS'PF00324'
p2390
(lp2391
S'C4QIX8'
p2392
asS'PF00931'
p2393
(lp2394
S'G4VQU2'
p2395
asS'PF00326'
p2396
(lp2397
S'G4VI69'
p2398
aS'Q5DEP6'
p2399
asS'PF00235'
p2400
(lp2401
S'G4VTE1'
p2402
aS'Q86DW4'
p2403
asS'PF07562'
p2404
(lp2405
S'E2IFV9'
p2406
asS'PF06463'
p2407
(lp2408
S'G4VCX3'
p2409
asS'PF00240'
p2410
(lp2411
S'G4LVJ7'
p2412
aS'Q5BR82'
p2413
asS'PF00328'
p2414
(lp2415
S'Q5BW52'
p2416
aS'C4Q1Q3'
p2417
asS'PF00933'
p2418
(lp2419
S'G4VRX3'
p2420
asS'PF00245'
p2421
(lp2422
S'G4VJ95'
p2423
aS'Q5C1P9'
p2424
asS'PF06466'
p2425
(lp2426
S'G4VJB3'
p2427
aS'Q5C0R9'
p2428
asS'PF03623'
p2429
(lp2430
S'G4VP68'
p2431
asS'PF14598'
p2432
(lp2433
S'G4LVK2'
p2434
asS'PF13561'
p2435
(lp2436
S'Q5DB51'
p2437
aS'G4VFX0'
p2438
asS'PF00970'
p2439
(lp2440
S'G4LXR9'
p2441
aS'B3W667'
p2442
asS'PF03720'
p2443
(lp2444
S'G4VFD1'
p2445
asS'PF00418'
p2446
(lp2447
S'G4VLB5'
p2448
asS'PF14593'
p2449
(lp2450
S'C4QMA7'
p2451
asS'PF00231'
p2452
(lp2453
S'G4LVB6'
p2454
aS'Q5DBP4'
p2455
asS'PF01979'
p2456
(lp2457
S'Q5DF26'
p2458
aS'G4VES2'
p2459
asS'PF01483'
p2460
(lp2461
S'G4V878'
p2462
aS'Q5C2Y4'
p2463
asS'PB004788'
p2464
(lp2465
S'G4VE01'
p2466
asS'PF02037'
p2467
(lp2468
S'G4VKF3'
p2469
aS'C7TY00'
p2470
asS'PF13202'
p2471
(lp2472
S'G4V609'
p2473
aS'Q5BT96'
p2474
asS'PF03952'
p2475
(lp2476
S'P33676'
p2477
aS'Q6LC36'
p2478
asS'PF03953'
p2479
(lp2480
S'C4Q4S5'
p2481
aS'Q5FYA5'
p2482
aS'C7TXT4'
p2483
asS'PF02812'
p2484
(lp2485
S'Q5C192'
p2486
aS'G4LYZ1'
p2487
asS'PF03951'
p2488
(lp2489
S'B3W674'
p2490
aS'G4V9E4'
p2491
asS'PF00405'
p2492
(lp2493
S'Q5C2D3'
p2494
aS'G4VHQ7'
p2495
asS'PF02815'
p2496
(lp2497
S'B3GUY9'
p2498
aS'G4M201'
p2499
asS'PF02816'
p2500
(lp2501
S'G4LY39'
p2502
aS'C7TXW3'
p2503
asS'PF13950'
p2504
(lp2505
S'Q5D9E1'
p2506
aS'G4VEM1'
p2507
asS'PF00408'
p2508
(lp2509
S'Q5DF02'
p2510
aS'G4V958'
p2511
asS'PF00177'
p2512
(lp2513
S'C7TZZ1'
p2514
aS'G4V605'
p2515
asS'PF02135'
p2516
(lp2517
S'Q5C2Q5'
p2518
aS'G4VEQ5'
p2519
asS'PF02134'
p2520
(lp2521
S'Q5C0W2'
p2522
aS'G4LWD7'
p2523
asS'PF00255'
p2524
(lp2525
S'Q86EQ5'
p2526
aS'G4LX59'
p2527
asS'PB014337'
p2528
(lp2529
S'G4VG56'
p2530
asS'PF13621'
p2531
(lp2532
S'Q5BVZ4'
p2533
aS'G4VSC7'
p2534
asS'PF00198'
p2535
(lp2536
S'C7TYV3'
p2537
aS'G4LZ03'
p2538
asS'PF09334'
p2539
(lp2540
S'G4LZ29'
p2541
aS'Q5DH32'
p2542
asS'PF02375'
p2543
(lp2544
S'G4LUD8'
p2545
asS'PF09336'
p2546
(lp2547
S'G4M0P8'
p2548
aS'Q5BST4'
p2549
asS'PF01403'
p2550
(lp2551
S'G4VG15'
p2552
aS'Q5C7J3'
p2553
asS'PF00792'
p2554
(lp2555
S'G4V7A4'
p2556
aS'Q5D960'
p2557
asS'PF13520'
p2558
(lp2559
S'G4LVW6'
p2560
aS'C7TYX2'
p2561
asS'PF14681'
p2562
(lp2563
S'Q5DA17'
p2564
aS'G4VL95'
p2565
asS'PF03034'
p2566
(lp2567
S'G4V9W8'
p2568
aS'Q5D9T7'
p2569
asS'PF01841'
p2570
(lp2571
S'Q5C3X5'
p2572
aS'G4VI28'
p2573
asS'PF03031'
p2574
(lp2575
S'G4LXS7'
p2576
aS'C7TXX3'
p2577
asS'PF00817'
p2578
(lp2579
S'C7TY40'
p2580
aS'G4VDB1'
p2581
asS'PB012313'
p2582
(lp2583
S'G4VA91'
p2584
asS'PF01033'
p2585
(lp2586
S'G4VAK5'
p2587
aS'Q5C236'
p2588
asS'PF13516'
p2589
(lp2590
S'G4V6I3'
p2591
aS'C7TZ26'
p2592
asS'PF01138'
p2593
(lp2594
S'G4M1E0'
p2595
aS'Q5BWV4'
p2596
asS'PF01139'
p2597
(lp2598
S'G4VH20'
p2599
aS'Q5C6U4'
p2600
asS'PF13510'
p2601
(lp2602
S'Q5C3Z8'
p2603
aS'G4LUK8'
p2604
asS'PF01130'
p2605
(lp2606
S'G4LUS7'
p2607
aS'Q5C1Q6'
p2608
asS'PF01131'
p2609
(lp2610
S'Q5BXA8'
p2611
aS'G4VFA7'
p2612
asS'PF01137'
p2613
(lp2614
S'G4VQ15'
p2615
aS'Q5BSE7'
p2616
asS'PF13519'
p2617
(lp2618
S'G4VE22'
p2619
asS'PF01135'
p2620
(lp2621
S'Q5BXT6'
p2622
aS'G4VK42'
p2623
asS'PB000079'
p2624
(lp2625
S'C4Q4D4'
p2626
asS'PF00271'
p2627
(lp2628
S'G4LZZ0'
p2629
aS'Q5BRE0'
p2630
asS'PF02729'
p2631
(lp2632
S'G4VEM7'
p2633
asS'PF04051'
p2634
(lp2635
S'Q5BXP6'
p2636
aS'G4V9C2'
p2637
asS'PB020018'
p2638
(lp2639
S'Q5C506'
p2640
asS'PF02078'
p2641
(lp2642
S'G4VIG8'
p2643
asS'PF04389'
p2644
(lp2645
S'Q5DCW2'
p2646
aS'G4VD11'
p2647
asS'PF04265'
p2648
(lp2649
S'Q5BRD8'
p2650
aS'G4VDG7'
p2651
asS'PF04983'
p2652
(lp2653
S'G4VH38'
p2654
asS'PF01396'
p2655
(lp2656
S'G4VM01'
p2657
asS'PF09380'
p2658
(lp2659
S'C7TXT2'
p2660
aS'G4LVJ2'
p2661
asS'PF01392'
p2662
(lp2663
S'G4VJK4'
p2664
aS'Q5C338'
p2665
asS'PF00300'
p2666
(lp2667
S'B3GUV6'
p2668
aS'G4LY94'
p2669
asS'PF01390'
p2670
(lp2671
S'G4VER0'
p2672
asS'PF01391'
p2673
(lp2674
S'Q5BVR7'
p2675
aS'G4V697'
p2676
asS'PF03530'
p2677
(lp2678
S'Q5C3F6'
p2679
aS'G4LXV9'
p2680
asS'PF00719'
p2681
(lp2682
S'Q5DE13'
p2683
aS'G4VPE8'
p2684
asS'PF02879'
p2685
(lp2686
S'C7TXY1'
p2687
aS'C4QPU4'
p2688
asS'PF00717'
p2689
(lp2690
S'G4VN62'
p2691
aS'Q5DHQ5'
p2692
asS'PF00710'
p2693
(lp2694
S'Q5DEJ2'
p2695
aS'G4VJ31'
p2696
asS'PF13472'
p2697
(lp2698
S'Q5DA50'
p2699
aS'G4V708'
p2700
asS'PF00346'
p2701
(lp2702
S'G4LUI6'
p2703
aS'Q5DHV9'
p2704
asS'PF01179'
p2705
(lp2706
S'G4VGX7'
p2707
asS'PF02785'
p2708
(lp2709
S'G4V7M2'
p2710
aS'Q5C2D4'
p2711
asS'PF14670'
p2712
(lp2713
S'G4VQ02'
p2714
aS'Q5C5F4'
p2715
asS'PF13589'
p2716
(lp2717
S'C7TZI9'
p2718
aS'G4LWS7'
p2719
asS'PF05328'
p2720
(lp2721
S'C7TZ33'
p2722
aS'G4V6D5'
p2723
asS'PF00999'
p2724
(lp2725
S'C1M0Q0'
p2726
aS'Q5C0X1'
p2727
asS'PF01409'
p2728
(lp2729
S'C4QNZ5'
p2730
aS'Q5DAZ9'
p2731
asS'PF01406'
p2732
(lp2733
S'G4VAA5'
p2734
aS'Q5C2D6'
p2735
asS'PF13489'
p2736
(lp2737
S'G4V6C7'
p2738
aS'Q5DBG5'
p2739
asS'PF00413'
p2740
(lp2741
S'G4VEJ4'
p2742
asS'PF08709'
p2743
(lp2744
S'G4LXE8'
p2745
asS'PF00682'
p2746
(lp2747
S'G4V7Q4'
p2748
asS'PF00129'
p2749
(lp2750
S'D2SY10'
p2751
asS'PF01400'
p2752
(lp2753
S'Q5C3I1'
p2754
aS'G4VBI2'
p2755
asS'PF02781'
p2756
(lp2757
S'G4VAM6'
p2758
aS'Q5DH83'
p2759
asS'PF04734'
p2760
(lp2761
S'G4VN86'
p2762
aS'Q5C3C4'
p2763
asS'PF02260'
p2764
(lp2765
S'G4VCG1'
p2766
asS'PF02267'
p2767
(lp2768
S'Q3KZ69'
p2769
aS'G4VAQ4'
p2770
asS'PF02782'
p2771
(lp2772
S'G4VCJ6'
p2773
asS'PF00749'
p2774
(lp2775
S'Q5BT31'
p2776
aS'G4V8J0'
p2777
asS'PF02185'
p2778
(lp2779
S'G4V7X6'
p2780
asS'PF01851'
p2781
(lp2782
S'C4QMW7'
p2783
asS'PF00342'
p2784
(lp2785
S'Q5BYL3'
p2786
aS'G4VPH5'
p2787
asS'PF01853'
p2788
(lp2789
S'Q5BW07'
p2790
aS'G4LXT0'
p2791
asS'PF01852'
p2792
(lp2793
S'C4Q6H2'
p2794
aS'Q5DEY0'
p2795
asS'PF00144'
p2796
(lp2797
S'G4LYN9'
p2798
aS'Q5BXM2'
p2799
asS'PF04675'
p2800
(lp2801
S'G4LYZ4'
p2802
aS'Q5C3W5'
p2803
asS'PF00146'
p2804
(lp2805
S'B2D0R0'
p2806
aS'B0FNC5'
p2807
aS'Q3KUH4'
p2808
asS'PF00343'
p2809
(lp2810
S'Q5BY06'
p2811
aS'G4VSJ6'
p2812
asS'PB001824'
p2813
(lp2814
S'B5B7R2'
p2815
aS'G4VGQ1'
p2816
asS'PF00149'
p2817
(lp2818
S'C7TY21'
p2819
aS'C1LZY9'
p2820
asS'PF02347'
p2821
(lp2822
S'G4VRJ6'
p2823
asS'PF07859'
p2824
(lp2825
S'G4LVU3'
p2826
asS'PF01916'
p2827
(lp2828
S'G4VCR2'
p2829
aS'Q3KTG9'
p2830
asS'PF02615'
p2831
(lp2832
S'G4V698'
p2833
aS'C7TY16'
p2834
asS'PF01712'
p2835
(lp2836
S'Q5DFQ5'
p2837
aS'G4VMF8'
p2838
asS'PF01246'
p2839
(lp2840
S'G4VJ44'
p2841
aS'B3GUS5'
p2842
asS'PF03098'
p2843
(lp2844
S'G4VLK0'
p2845
aS'Q5C3T6'
p2846
asS'PF08412'
p2847
(lp2848
S'Q5DBU8'
p2849
aS'G4LUM2'
p2850
asS'PF00787'
p2851
(lp2852
S'G4VLM8'
p2853
aS'Q5DCX2'
p2854
asS'PF01242'
p2855
(lp2856
S'Q5DCA1'
p2857
aS'G4M0A6'
p2858
asS'PF04547'
p2859
(lp2860
S'G4V6U1'
p2861
aS'Q5BY53'
p2862
asS'PF01363'
p2863
(lp2864
S'G4VAL4'
p2865
aS'Q5BSA5'
p2866
asS'PF00781'
p2867
(lp2868
S'G4LVU2'
p2869
aS'Q3KZA7'
p2870
asS'PF01493'
p2871
(lp2872
S'Q5C3P4'
p2873
aS'G4VS94'
p2874
asS'PF01248'
p2875
(lp2876
S'Q5C2L3'
p2877
aS'G4LUJ5'
p2878
asS'PF00664'
p2879
(lp2880
S'D5LRV4'
p2881
aS'Q5C7Z1'
p2882
asS'PF00667'
p2883
(lp2884
S'Q5BXJ5'
p2885
aS'G4LUL4'
p2886
asS'PF00431'
p2887
(lp2888
S'G4LZ22'
p2889
aS'Q5BZF0'
p2890
asS'PF00041'
p2891
(lp2892
S'Q5BXN3'
p2893
aS'G4LY41'
p2894
asS'PF00043'
p2895
(lp2896
S'G4LXB1'
p2897
aS'Q5BQZ0'
p2898
aS'P30114'
p2899
asS'PF10515'
p2900
(lp2901
S'Q5DGI0'
p2902
asS'PF00045'
p2903
(lp2904
S'G4VEJ3'
p2905
asS'PF00044'
p2906
(lp2907
S'G4V5I1'
p2908
aS'C7TRN6'
p2909
asS'PF00047'
p2910
(lp2911
S'G4V7H2'
p2912
asS'PF00046'
p2913
(lp2914
S'Q5C1S8'
p2915
aS'G4LU79'
p2916
asS'PF00049'
p2917
(lp2918
S'Q5DBU2'
p2919
asS'PF00361'
p2920
(lp2921
S'G4V586'
p2922
aS'B2MV84'
p2923
aS'Q1I0N2'
p2924
asS'PF00362'
p2925
(lp2926
S'E7BBC0'
p2927
aS'Q5C2S8'
p2928
asS'PB005922'
p2929
(lp2930
S'Q5BRV7'
p2931
aS'G4LX11'
p2932
asS'PF00365'
p2933
(lp2934
S'Q5C1U5'
p2935
aS'G4VKA5'
p2936
asS'PF02867'
p2937
(lp2938
S'G4VIG3'
p2939
aS'C7TZG4'
p2940
asS'PF02866'
p2941
(lp2942
S'C7TZT8'
p2943
aS'G4V7Z7'
p2944
asS'PF08919'
p2945
(lp2946
S'D1H0Y8'
p2947
asS'PB003137'
p2948
(lp2949
S'A5H659'
p2950
asS'PF08771'
p2951
(lp2952
S'G4VCG1'
p2953
asS'PF08676'
p2954
(lp2955
S'G4LWS7'
p2956
asS'PF14843'
p2957
(lp2958
S'G4M1E6'
p2959
asS'PB001830'
p2960
(lp2961
S'G4V9A7'
p2962
asS'PF03091'
p2963
(lp2964
S'G4VBZ2'
p2965
aS'Q86FB2'
p2966
asS'PF07699'
p2967
(lp2968
S'G4VNI9'
p2969
asS'PF00856'
p2970
(lp2971
S'G4LVC9'
p2972
aS'Q5BS94'
p2973
asS'PF00441'
p2974
(lp2975
S'Q5BYZ5'
p2976
aS'G4VCG4'
p2977
asS'PB003615'
p2978
(lp2979
S'G4LWQ2'
p2980
asS'PF13855'
p2981
(lp2982
S'G4VG51'
p2983
aS'Q3KZ54'
p2984
asS'PF02142'
p2985
(lp2986
S'G4VEM7'
p2987
asS'PF02466'
p2988
(lp2989
S'Q5D972'
p2990
aS'G4VJK5'
p2991
asS'PF00448'
p2992
(lp2993
S'G4VDN9'
p2994
aS'C7TXS6'
p2995
asS'PF08736'
p2996
(lp2997
S'G4V898'
p2998
asS'PF07883'
p2999
(lp3000
S'Q5DE75'
p3001
aS'G4LU88'
p3002
asS'PF07703'
p3003
(lp3004
S'G4VNG4'
p3005
asS'PF03360'
p3006
(lp3007
S'Q5DCK4'
p3008
aS'G4V7E4'
p3009
asS'PF07701'
p3010
(lp3011
S'G4LU97'
p3012
asS'PF07700'
p3013
(lp3014
S'G4LU97'
p3015
asS'PF07707'
p3016
(lp3017
S'Q5BS16'
p3018
aS'G4LUY1'
p3019
asS'PF00568'
p3020
(lp3021
S'Q5C3H4'
p3022
aS'G4VFM3'
p3023
asS'PF01562'
p3024
(lp3025
S'G4VEJ8'
p3026
aS'Q5C433'
p3027
asS'PF12330'
p3028
(lp3029
S'Q5C2Y1'
p3030
aS'Q6TA38'
p3031
asS'PF02666'
p3032
(lp3033
S'Q5DAI3'
p3034
aS'G4VDV4'
p3035
asS'PF08833'
p3036
(lp3037
S'G4V6H5'
p3038
asS'PF00562'
p3039
(lp3040
S'Q5BWA2'
p3041
aS'G4VEG3'
p3042
asS'PF02910'
p3043
(lp3044
S'G4LY63'
p3045
aS'Q5DE07'
p3046
asS'PF03446'
p3047
(lp3048
S'Q5C0U2'
p3049
aS'G4M238'
p3050
asS'PF00561'
p3051
(lp3052
S'Q5C1M5'
p3053
aS'G4VQT1'
p3054
asS'PF09279'
p3055
(lp3056
S'G4VBK4'
p3057
asS'PF00215'
p3058
(lp3059
S'G4VH85'
p3060
asS'PF00217'
p3061
(lp3062
S'P16641'
p3063
aS'Q5C101'
p3064
asS'PF00210'
p3065
(lp3066
S'B3GUY2'
p3067
aS'G4LUZ7'
p3068
asS'PF00211'
p3069
(lp3070
S'Q5BXD2'
p3071
aS'G4LV56'
p3072
asS'PF09757'
p3073
(lp3074
S'G4VPK5'
p3075
asS'PF02919'
p3076
(lp3077
S'Q5C1T3'
p3078
aS'G4VRF9'
p3079
asS'PF08763'
p3080
(lp3081
S'Q5BWX8'
p3082
aS'G4LVY1'
p3083
asS'PF03104'
p3084
(lp3085
S'G4LX42'
p3086
asS'PF10600'
p3087
(lp3088
S'Q5DHX6'
p3089
asS'PF10607'
p3090
(lp3091
S'Q5BVN9'
p3092
aS'G4V5G9'
p3093
asS'PF01436'
p3094
(lp3095
S'Q3KZE2'
p3096
aS'G4V7U0'
p3097
asS'PF01433'
p3098
(lp3099
S'G4V857'
p3100
aS'Q5BY44'
p3101
asS'PF02933'
p3102
(lp3103
S'G4M0P6'
p3104
aS'Q5C7K1'
p3105
asS'PF00569'
p3106
(lp3107
S'Q5D8S2'
p3108
aS'G4VBY7'
p3109
asS'PF01431'
p3110
(lp3111
S'Q5BYP6'
p3112
aS'G4VCE9'
p3113
asS'PF00929'
p3114
(lp3115
S'G4LY06'
p3116
aS'Q5BXI2'
p3117
asS'PF02769'
p3118
(lp3119
S'B3GUX9'
p3120
asS'PF00923'
p3121
(lp3122
S'Q5DEG0'
p3123
aS'G4LZK0'
p3124
asS'PF02167'
p3125
(lp3126
S'Q5C336'
p3127
aS'G4LZ24'
p3128
asS'PB000032'
p3129
(lp3130
S'G4VMZ5'
p3131
asS'PF00289'
p3132
(lp3133
S'G4V7M2'
p3134
aS'Q5DDR2'
p3135
asS'PF00288'
p3136
(lp3137
S'G4LZ01'
p3138
aS'Q5BYG8'
p3139
asS'PF00285'
p3140
(lp3141
S'G4LZD0'
p3142
aS'Q5D8S4'
p3143
asS'PF12140'
p3144
(lp3145
S'Q5BRV0'
p3146
aS'G4VGJ6'
p3147
asS'PF00282'
p3148
(lp3149
S'Q5BVX9'
p3150
aS'G4LVM4'
p3151
asS'PF00281'
p3152
(lp3153
S'Q5DAR3'
p3154
aS'G4VMJ4'
p3155
asS'PF02936'
p3156
(lp3157
S'Q5DF62'
p3158
aS'G4VS06'
p3159
asS'PF06325'
p3160
(lp3161
S'G4VGV6'
p3162
aS'Q5DFE1'
p3163
asS'PF00248'
p3164
(lp3165
S'Q5D8T1'
p3166
aS'G4LXR4'
p3167
asS'PF10590'
p3168
(lp3169
S'G4M1K6'
p3170
asS'PF00491'
p3171
(lp3172
S'B3GUR2'
p3173
aS'Q6TA39'
p3174
asS'PF01192'
p3175
(lp3176
S'G4V787'
p3177
aS'Q5D946'
p3178
asS'PF01193'
p3179
(lp3180
S'G4LUY0'
p3181
asS'PF03477'
p3182
(lp3183
S'G4VIG3'
p3184
aS'C7TZG4'
p3185
asS'PF13432'
p3186
(lp3187
S'G4M0C0'
p3188
asS'PF03062'
p3189
(lp3190
S'C4PZS7'
p3191
aS'Q5BW94'
p3192
asS'PF00462'
p3193
(lp3194
S'Q5BS26'
p3195
aS'G4M055'
p3196
asS'PF03144'
p3197
(lp3198
S'Q5BYH7'
p3199
aS'G4LUY4'
p3200
asS'PF03147'
p3201
(lp3202
S'G4VKS1'
p3203
aS'Q5C108'
p3204
asS'PF00018'
p3205
(lp3206
S'Q3KZ48'
p3207
aS'G4LZX2'
p3208
asS'PF03143'
p3209
(lp3210
S'G4V5Z8'
p3211
aS'Q5BZC4'
p3212
asS'PF00411'
p3213
(lp3214
S'Q5DCW6'
p3215
aS'G4VH52'
p3216
asS'PF02836'
p3217
(lp3218
S'G4VID6'
p3219
asS'PF01661'
p3220
(lp3221
S'G4V946'
p3222
aS'Q5DCZ3'
p3223
asS'PF00466'
p3224
(lp3225
S'B3GUY4'
p3226
aS'C4PZS6'
p3227
asS'PF13847'
p3228
(lp3229
S'G4VMR5'
p3230
asS'PF02136'
p3231
(lp3232
S'Q5BSP6'
p3233
aS'G4VLS7'
p3234
asS'PF13419'
p3235
(lp3236
S'Q5DGK0'
p3237
aS'G4VJE6'
p3238
asS'PF01068'
p3239
(lp3240
S'G4LYZ4'
p3241
aS'Q5C1W9'
p3242
asS'PF01064'
p3243
(lp3244
S'G4VCJ8'
p3245
asS'PB000322'
p3246
(lp3247
S'G4LZH2'
p3248
asS'PF01066'
p3249
(lp3250
S'G4LUE3'
p3251
aS'Q5D8U3'
p3252
asS'PF01067'
p3253
(lp3254
S'G4LXK2'
p3255
aS'A5A6F7'
p3256
aS'O45033'
p3257
asS'PF01061'
p3258
(lp3259
S'Q5BY69'
p3260
aS'G4VAE5'
p3261
asS'PF01687'
p3262
(lp3263
S'G4M0L1'
p3264
aS'Q5BXG8'
p3265
asS'PF10200'
p3266
(lp3267
S'Q5DDL6'
p3268
aS'G4VNQ7'
p3269
asS'PF00348'
p3270
(lp3271
S'Q5DC19'
p3272
aS'G4V9A4'
p3273
asS'PF00011'
p3274
(lp3275
S'G4V8X3'
p3276
aS'Q5BS14'
p3277
asS'PF08423'
p3278
(lp3279
S'Q5BVG3'
p3280
aS'G4VE32'
p3281
asS'PF00238'
p3282
(lp3283
S'G4V5P4'
p3284
aS'Q5D8F4'
p3285
asS'PF01702'
p3286
(lp3287
S'Q5BY11'
p3288
aS'G4VDV6'
p3289
asS'PF13640'
p3290
(lp3291
S'G4VKQ0'
p3292
asS'PF13646'
p3293
(lp3294
S'Q5BXC8'
p3295
aS'C4QMW7'
p3296
asS'PF01812'
p3297
(lp3298
S'G4VJG8'
p3299
asS'PF09110'
p3300
(lp3301
S'G4VIH9'
p3302
asS'PF09111'
p3303
(lp3304
S'G4VIH9'
p3305
asS'PB001622'
p3306
(lp3307
S'G4LX30'
p3308
aS'Q5C415'
p3309
asS'PF13177'
p3310
(lp3311
S'Q5C286'
p3312
aS'G4VIB2'
p3313
asS'PF05071'
p3314
(lp3315
S'Q5D916'
p3316
aS'G4LVM0'
p3317
asS'PF00629'
p3318
(lp3319
S'G4V8Z6'
p3320
asS'PF00628'
p3321
(lp3322
S'G4V761'
p3323
aS'Q5BVH6'
p3324
asS'PF00412'
p3325
(lp3326
S'Q5BS49'
p3327
aS'G4LVB2'
p3328
asS'PF00625'
p3329
(lp3330
S'A8WCK5'
p3331
aS'G4V6E8'
p3332
asS'PF00626'
p3333
(lp3334
S'Q5BW92'
p3335
aS'G4LUY9'
p3336
asS'PF00639'
p3337
(lp3338
S'G4VT92'
p3339
aS'Q5DFQ6'
p3340
asS'PF00620'
p3341
(lp3342
S'Q5BZL0'
p3343
aS'C1LZZ3'
p3344
asS'PF00623'
p3345
(lp3346
S'G4VH38'
p3347
asS'PF00622'
p3348
(lp3349
S'G4LZ14'
p3350
aS'Q5BXS8'
p3351
asS'PF01208'
p3352
(lp3353
S'G4VSS2'
p3354
aS'Q5C2L8'
p3355
asS'PF03099'
p3356
(lp3357
S'G4VR13'
p3358
asS'PF09180'
p3359
(lp3360
S'G4VLU3'
p3361
aS'Q5C5I9'
p3362
asS'PF00763'
p3363
(lp3364
S'B3GUY3'
p3365
aS'G4VBG1'
p3366
asS'PF08515'
p3367
(lp3368
S'G4LWP9'
p3369
asS'PF02877'
p3370
(lp3371
S'G4M0L0'
p3372
aS'Q5DAZ0'
p3373
asS'PF01576'
p3374
(lp3375
S'G4V802'
p3376
aS'B1PS35'
p3377
aS'A5A6F8'
p3378
asS'PF01202'
p3379
(lp3380
S'G4VGN2'
p3381
asS'PF02585'
p3382
(lp3383
S'G4V821'
p3384
aS'Q5D8W3'
p3385
asS'PF01612'
p3386
(lp3387
S'G4VHH8'
p3388
asS'PF08454'
p3389
(lp3390
S'G4LXE8'
p3391
aS'Q5C2C3'
p3392
asS'PF01207'
p3393
(lp3394
S'Q5BXB9'
p3395
aS'C4QMR1'
p3396
asS'PF01437'
p3397
(lp3398
S'C4QN32'
p3399
asS'PF12681'
p3400
(lp3401
S'G4VDP7'
p3402
asS'PF01434'
p3403
(lp3404
S'B1WA67'
p3405
aS'G4VGL9'
p3406
asS'PF10417'
p3407
(lp3408
S'Q5DEY1'
p3409
aS'G4LXH7'
p3410
asS'PF07690'
p3411
(lp3412
S'Q5BRU8'
p3413
aS'G4LUV3'
p3414
asS'PF10415'
p3415
(lp3416
S'G4LVG5'
p3417
asS'PF01843'
p3418
(lp3419
S'G4M0U9'
p3420
asS'PF01534'
p3421
(lp3422
S'G4LUU9'
p3423
aS'Q5C2E0'
p3424
asS'PF04055'
p3425
(lp3426
S'C4PZQ3'
p3427
aS'Q5BZA1'
p3428
asS'PF01532'
p3429
(lp3430
S'Q3MJW4'
p3431
aS'G4VG81'
p3432
asS'PF00520'
p3433
(lp3434
S'G4LUV6'
p3435
aS'Q5BXH8'
p3436
asS'PF01530'
p3437
(lp3438
S'G4VQW7'
p3439
asS'PF03807'
p3440
(lp3441
S'Q5BY94'
p3442
aS'G4V8Z5'
p3443
asS'PF13897'
p3444
(lp3445
S'Q5DEX4'
p3446
aS'G4M014'
p3447
asS'PF13894'
p3448
(lp3449
S'C7TQQ5'
p3450
aS'G4VE16'
p3451
asS'PF13895'
p3452
(lp3453
S'G4LXJ8'
p3454
aS'Q5BS71'
p3455
asS'PF13892'
p3456
(lp3457
S'G4LXF9'
p3458
asS'PF00162'
p3459
(lp3460
S'B3W661'
p3461
aS'G4VG19'
p3462
asS'PF14813'
p3463
(lp3464
S'Q5DFH1'
p3465
aS'G4VP96'
p3466
asS'PF12925'
p3467
(lp3468
S'G4LY13'
p3469
aS'Q5C135'
p3470
asS'PF00696'
p3471
(lp3472
S'G4VJT6'
p3473
asS'PF13899'
p3474
(lp3475
S'G4VTI9'
p3476
asS'PF04101'
p3477
(lp3478
S'Q5DG98'
p3479
aS'G4VC87'
p3480
asS'PB000664'
p3481
(lp3482
S'G4LVG3'
p3483
asS'PF14520'
p3484
(lp3485
S'Q5BVG3'
p3486
aS'G4V6K0'
p3487
asS'PF01965'
p3488
(lp3489
S'Q5DC05'
p3490
aS'G4VDR4'
p3491
asS'PF03489'
p3492
(lp3493
S'Q5BZS8'
p3494
aS'G4VBU2'
p3495
asS'PF01966'
p3496
(lp3497
S'G4VCL3'
p3498
asS'PF03484'
p3499
(lp3500
S'Q5DGS2'
p3501
aS'G4LV70'
p3502
asS'PF02906'
p3503
(lp3504
S'G4V773'
p3505
aS'Q5DCU1'
p3506
asS'PF02629'
p3507
(lp3508
S'G4VI16'
p3509
aS'Q5BZ95'
p3510
asS'PB001716'
p3511
(lp3512
S'G4LXE8'
p3513
asS'PF00485'
p3514
(lp3515
S'G4LVN9'
p3516
aS'Q5BVL3'
p3517
asS'PF00487'
p3518
(lp3519
S'Q5DI16'
p3520
aS'G4VMQ4'
p3521
asS'PF03483'
p3522
(lp3523
S'Q5DGS2'
p3524
aS'G4LV70'
p3525
asS'PF11865'
p3526
(lp3527
S'G4VCG1'
p3528
asS'PF01336'
p3529
(lp3530
S'C1M093'
p3531
aS'Q5BY80'
p3532
asS'PF03947'
p3533
(lp3534
S'C7TZL1'
p3535
aS'G4LY29'
p3536
asS'PF03719'
p3537
(lp3538
S'Q86ER5'
p3539
aS'G4M0S7'
p3540
asS'PF00130'
p3541
(lp3542
S'G4VS77'
p3543
aS'Q5C3X7'
p3544
asS'PF00133'
p3545
(lp3546
S'G4LVH7'
p3547
aS'C7TZQ6'
p3548
asS'PF00132'
p3549
(lp3550
S'Q5DGG7'
p3551
aS'G4VNG9'
p3552
asS'PF00135'
p3553
(lp3554
S'Q86GL8'
p3555
aS'Q5C0Z4'
p3556
aS'G4LUT1'
p3557
asS'PF00483'
p3558
(lp3559
S'Q5BXH6'
p3560
aS'G4LYI3'
p3561
asS'PF03712'
p3562
(lp3563
S'Q5DF63'
p3564
aS'G4VIT2'
p3565
asS'PF00136'
p3566
(lp3567
S'Q5BZ17'
p3568
aS'G4LX42'
p3569
asS'PF00258'
p3570
(lp3571
S'G4LUL4'
p3572
asS'PF00310'
p3573
(lp3574
S'G4VS93'
p3575
asS'PF00312'
p3576
(lp3577
S'G4VJD7'
p3578
aS'Q5D9B3'
p3579
asS'PF03931'
p3580
(lp3581
S'G4VL24'
p3582
aS'Q5BS80'
p3583
asS'PF00317'
p3584
(lp3585
S'G4VIG3'
p3586
aS'C7TZG4'
p3587
asS'PF00316'
p3588
(lp3589
S'G4VML1'
p3590
aS'Q5DFJ0'
p3591
asS'PF07479'
p3592
(lp3593
S'C4Q5J8'
p3594
aS'C7TZA1'
p3595
asS'PF00318'
p3596
(lp3597
S'G4VAS0'
p3598
aS'Q5DFQ7'
p3599
asS'PF00252'
p3600
(lp3601
S'Q5C205'
p3602
aS'G4M0K4'
p3603
asS'PF00253'
p3604
(lp3605
S'G4V8K8'
p3606
aS'Q5BTL1'
p3607
asS'PF00254'
p3608
(lp3609
S'C7TYC0'
p3610
aS'Q8MTB4'
p3611
asS'PF03939'
p3612
(lp3613
S'B3GUS3'
p3614
aS'G4V6P4'
p3615
asS'PF00962'
p3616
(lp3617
S'Q1A7N0'
p3618
aS'G4LVD7'
p3619
asS'PF03946'
p3620
(lp3621
S'G4V9G5'
p3622
aS'Q5BT17'
p3623
asS'PF05856'
p3624
(lp3625
S'G4V7X7'
p3626
aS'Q5DFU4'
p3627
asS'PF02544'
p3628
(lp3629
S'G4LY75'
p3630
aS'Q5DAJ9'
p3631
asS'PF04716'
p3632
(lp3633
S'G4V672'
p3634
aS'B5B7Q0'
p3635
asS'PF08127'
p3636
(lp3637
S'Q5BTD7'
p3638
aS'G4V5C2'
p3639
asS'PF10525'
p3640
(lp3641
S'G4VRE6'
p3642
asS'PF02233'
p3643
(lp3644
S'G4VN23'
p3645
asS'PF08122'
p3646
(lp3647
S'Q5BQW1'
p3648
aS'G4VBY8'
p3649
asS'PF00621'
p3650
(lp3651
S'G4LUE0'
p3652
aS'Q5BSP8'
p3653
asS'PF02436'
p3654
(lp3655
S'G4V7Q5'
p3656
aS'Q5DFC2'
p3657
asS'PF07992'
p3658
(lp3659
S'G4LZN7'
p3660
aS'Q5BY90'
p3661
asS'PB1'
p3662
(lp3663
S'Q5BRP2'
p3664
aS'G4VS52'
p3665
asS'PB002669'
p3666
(lp3667
S'G4LXH8'
p3668
asS'PF02493'
p3669
(lp3670
S'G4LXF4'
p3671
aS'Q5D9Y0'
p3672
asS'PF05652'
p3673
(lp3674
S'Q5DGH0'
p3675
aS'G4LZ61'
p3676
asS'PF00557'
p3677
(lp3678
S'G4LWL8'
p3679
aS'C7TZT2'
p3680
asS'PF00004'
p3681
(lp3682
S'Q5BQQ4'
p3683
aS'A9NI52'
p3684
asS'PF00006'
p3685
(lp3686
S'Q5DGP2'
p3687
aS'G4LWA8'
p3688
asS'PF00001'
p3689
(lp3690
S'Q5BWB8'
p3691
aS'C4Q8W8'
p3692
asS'PF02284'
p3693
(lp3694
S'Q5DBT0'
p3695
aS'G4LWP3'
p3696
asS'PF00003'
p3697
(lp3698
S'E2IFV9'
p3699
asS'PF00002'
p3700
(lp3701
S'C4QU58'
p3702
asS'PF12349'
p3703
(lp3704
S'G4M1J9'
p3705
asS'PF02824'
p3706
(lp3707
S'G4V6P3'
p3708
aS'Q5BXD7'
p3709
asS'PF12062'
p3710
(lp3711
S'G4VEB3'
p3712
asS'PF02826'
p3713
(lp3714
S'G4VI07'
p3715
asS'PF00009'
p3716
(lp3717
S'C7TZL4'
p3718
aS'G4V5S7'
p3719
asS'PF02820'
p3720
(lp3721
S'Q5D9R9'
p3722
aS'G4VGJ6'
p3723
asS'PF02823'
p3724
(lp3725
S'Q3KTI0'
p3726
aS'C4QJA1'
p3727
asS'PF04127'
p3728
(lp3729
S'G4VHG2'
p3730
asS'PF05676'
p3731
(lp3732
S'Q5DHM9'
p3733
aS'G4LVB0'
p3734
asS'PF13802'
p3735
(lp3736
S'G4M039'
p3737
asS'PF11799'
p3738
(lp3739
S'G4VAP7'
p3740
asS'PF11601'
p3741
(lp3742
S'G4V7X8'
p3743
asS'PF01019'
p3744
(lp3745
S'Q5BW02'
p3746
aS'G4VHL2'
p3747
asS'PF01751'
p3748
(lp3749
S'Q5DFL5'
p3750
aS'G4VFA7'
p3751
asS'PF04083'
p3752
(lp3753
S'G4VKU5'
p3754
aS'Q5BWP0'
p3755
asS'PF03024'
p3756
(lp3757
S'Q5DDB9'
p3758
asS'PF00145'
p3759
(lp3760
S'C4Q8S0'
p3761
asS'PF13504'
p3762
(lp3763
S'G4LZA1'
p3764
asS'PF13506'
p3765
(lp3766
S'G4VJB9'
p3767
aS'Q5BZI3'
p3768
asS'PF05406'
p3769
(lp3770
S'G4M0L0'
p3771
aS'Q5C0T7'
p3772
asS'PF12706'
p3773
(lp3774
S'Q5BYT0'
p3775
aS'G4V6P9'
p3776
asS'PF01028'
p3777
(lp3778
S'Q5BXE0'
p3779
aS'G4VRF9'
p3780
asS'PF10637'
p3781
(lp3782
S'G4VKQ0'
p3783
asS'PF00246'
p3784
(lp3785
S'G4LZF2'
p3786
aS'Q5BS02'
p3787
asS'PF00134'
p3788
(lp3789
S'G4LX75'
p3790
aS'Q5BXU5'
p3791
asS'PF02297'
p3792
(lp3793
S'C4Q820'
p3794
asS'PF02259'
p3795
(lp3796
S'G4VCG1'
p3797
asS'PF00137'
p3798
(lp3799
S'G4V5T1'
p3800
aS'B5B7Q4'
p3801
asS'PF02750'
p3802
(lp3803
S'G4VIG8'
p3804
asS'PF00550'
p3805
(lp3806
S'Q5BRK9'
p3807
aS'G4VSN6'
p3808
asS'PF02755'
p3809
(lp3810
S'G4LUR4'
p3811
asS'PF06479'
p3812
(lp3813
S'G4VLR4'
p3814
asS'PF06026'
p3815
(lp3816
S'Q5DFM4'
p3817
aS'G4LWP8'
p3818
asS'PF01016'
p3819
(lp3820
S'G4VRH7'
p3821
aS'Q5C671'
p3822
asS'PF09011'
p3823
(lp3824
S'Q6Q478'
p3825
aS'G4M0Z0'
p3826
aS'Q5DA81'
p3827
asS'PF00586'
p3828
(lp3829
S'B3GUX9'
p3830
asS'PF01018'
p3831
(lp3832
S'Q5BYE1'
p3833
aS'G4LZ58'
p3834
asS'PF01725'
p3835
(lp3836
S'G4VMH6'
p3837
aS'Q5BXX0'
p3838
asS'PF00587'
p3839
(lp3840
S'G4V5K7'
p3841
aS'Q5C055'
p3842
asS'PF08540'
p3843
(lp3844
S'G4LWY6'
p3845
asS'PF00170'
p3846
(lp3847
S'Q5C2F9'
p3848
aS'G4LXW5'
p3849
asS'PF01915'
p3850
(lp3851
S'G4VRX3'
p3852
asS'PF00821'
p3853
(lp3854
S'G4V721'
p3855
aS'Q5DGF3'
p3856
asS'PF09781'
p3857
(lp3858
S'G4LYK7'
p3859
aS'Q5C2C0'
p3860
asS'PF09782'
p3861
(lp3862
S'Q5DH98'
p3863
aS'G4VSL8'
p3864
asS'PF02817'
p3865
(lp3866
S'G4LZ03'
p3867
aS'C7TXS4'
p3868
asS'PB001103'
p3869
(lp3870
S'G4VKM0'
p3871
asS'PF01652'
p3872
(lp3873
S'G4VCF5'
p3874
aS'Q5DGB4'
p3875
asS'PF00708'
p3876
(lp3877
S'Q5DFQ8'
p3878
asS'PF00709'
p3879
(lp3880
S'C4QCD2'
p3881
aS'Q5D8V5'
p3882
asS'PF10584'
p3883
(lp3884
S'B9VRG0'
p3885
aS'G4LZ69'
p3886
asS'PF00264'
p3887
(lp3888
S'G4LWK1'
p3889
aS'H6QX60'
p3890
asS'PF00702'
p3891
(lp3892
S'Q5C7Z8'
p3893
aS'Q26545'
p3894
asS'PF00703'
p3895
(lp3896
S'G4VID6'
p3897
asS'PF00876'
p3898
(lp3899
S'C1M280'
p3900
aS'Q3KZ46'
p3901
asS'PF01791'
p3902
(lp3903
S'G4VM45'
p3904
aS'Q5D8M8'
p3905
asS'PF00870'
p3906
(lp3907
S'G4LYM1'
p3908
asS'PF01369'
p3909
(lp3910
S'C4QNZ8'
p3911
aS'Q5BZ89'
p3912
asS'PF00704'
p3913
(lp3914
S'G4VC11'
p3915
aS'Q5BZA4'
p3916
asS'PF01795'
p3917
(lp3918
S'G4LXT3'
p3919
asS'PF01094'
p3920
(lp3921
S'Q5C7X4'
p3922
aS'E2IFW0'
p3923
asS'PF10397'
p3924
(lp3925
S'G4VQX9'
p3926
aS'Q5BTN6'
p3927
asS'PF13638'
p3928
(lp3929
S'G4VE87'
p3930
asS'PB004447'
p3931
(lp3932
S'G4VJ87'
p3933
asS'PF01154'
p3934
(lp3935
S'Q5BWB2'
p3936
asS'PF00786'
p3937
(lp3938
S'G4M136'
p3939
asS'PF01151'
p3940
(lp3941
S'G4VGB8'
p3942
aS'Q5BZX8'
p3943
asS'PB008275'
p3944
(lp3945
S'G4LXA8'
p3946
asS'PF01479'
p3947
(lp3948
S'G4V917'
p3949
aS'Q5C773'
p3950
asS'PF00688'
p3951
(lp3952
S'D8V162'
p3953
asS'PF11838'
p3954
(lp3955
S'G4V856'
p3956
aS'Q5C0I3'
p3957
asS'PF08264'
p3958
(lp3959
S'Q5C105'
p3960
aS'G4LVH7'
p3961
asS'PF01471'
p3962
(lp3963
S'Q5C129'
p3964
asS'PF01715'
p3965
(lp3966
S'G4VB83'
p3967
aS'Q5BVL0'
p3968
asS'PF01477'
p3969
(lp3970
S'G4V9T7'
p3971
aS'Q5C6I2'
p3972
asS'PF07654'
p3973
(lp3974
S'D2SY00'
p3975
asS'PF00685'
p3976
(lp3977
S'G4LVI5'
p3978
aS'Q5BZT5'
p3979
asS'PF00641'
p3980
(lp3981
S'C7TZJ1'
p3982
aS'G4LUQ0'
p3983
asS'PF02271'
p3984
(lp3985
S'G4VQ59'
p3986
aS'Q86EV2'
p3987
asS'PF02272'
p3988
(lp3989
S'G4VNT2'
p3990
asS'PF10249'
p3991
(lp3992
S'G4VK46'
p3993
aS'Q5DFU2'
p3994
asS'PF02978'
p3995
(lp3996
S'Q5BW89'
p3997
aS'G4VKV4'
p3998
asS'PF01490'
p3999
(lp4000
S'G4LWB0'
p4001
aS'Q5BXS0'
p4002
asS'PB002743'
p4003
(lp4004
S'G4V7U4'
p4005
asS'PF00366'
p4006
(lp4007
S'G4VDH7'
p4008
aS'Q5DB08'
p4009
asS'PF08063'
p4010
(lp4011
S'G4M0L0'
p4012
asS'PF00351'
p4013
(lp4014
S'G4VPY9'
p4015
aS'C7TY28'
p4016
asS'PF00615'
p4017
(lp4018
S'G4V7M9'
p4019
aS'Q5BSJ8'
p4020
asS'PF00676'
p4021
(lp4022
S'G4VT40'
p4023
aS'Q5C0P6'
p4024
asS'PF03199'
p4025
(lp4026
S'G4VNT9'
p4027
asS'PF00675'
p4028
(lp4029
S'Q5C2R5'
p4030
aS'C4Q011'
p4031
asS'PF00179'
p4032
(lp4033
S'B3GUR5'
p4034
aS'C4QJB4'
p4035
asS'PF00673'
p4036
(lp4037
S'Q5DAR3'
p4038
aS'G4VMJ4'
p4039
asS'PF00670'
p4040
(lp4041
S'G4LX02'
p4042
aS'C7TYU5'
p4043
asS'PF00175'
p4044
(lp4045
S'Q5D9L4'
p4046
aS'G4LUL4'
p4047
asS'PF00174'
p4048
(lp4049
S'G4V8I5'
p4050
asS'PF02373'
p4051
(lp4052
S'G4V5L1'
p4053
aS'Q5DGD8'
p4054
asS'PF00176'
p4055
(lp4056
S'Q5BYY9'
p4057
aS'G4LWJ6'
p4058
asS'PF00171'
p4059
(lp4060
S'G4LWI3'
p4061
aS'A9XKA4'
p4062
asS'PF02374'
p4063
(lp4064
S'G4V6J4'
p4065
aS'Q5BZ44'
p4066
asS'PF00173'
p4067
(lp4068
S'Q5D901'
p4069
aS'G4V9R2'
p4070
asS'PF00679'
p4071
(lp4072
S'G4LVU7'
p4073
aS'Q5DD28'
p4074
asS'PF01379'
p4075
(lp4076
S'G4VRL5'
p4077
aS'B2MV86'
p4078
asS'PF00432'
p4079
(lp4080
S'G4VIK6'
p4081
aS'Q5DCT8'
p4082
asS'PF01365'
p4083
(lp4084
S'G4LXE8'
p4085
asS'PF00779'
p4086
(lp4087
S'G4V5Z2'
p4088
asS'PF00778'
p4089
(lp4090
S'C4Q7D5'
p4091
asS'PF01370'
p4092
(lp4093
S'C1M169'
p4094
aS'Q5BYG4'
p4095
asS'PF02201'
p4096
(lp4097
S'G4M1Y7'
p4098
aS'Q5DGK9'
p4099
asS'PF05889'
p4100
(lp4101
S'G4VL61'
p4102
asS'PF00368'
p4103
(lp4104
S'C4Q5I9'
p4105
asS'PF00160'
p4106
(lp4107
S'G4VFI9'
p4108
aS'C7TZJ5'
p4109
asS'PF00194'
p4110
(lp4111
S'G4M116'
p4112
aS'Q5BRC9'
p4113
asS'PF04699'
p4114
(lp4115
S'G4V6Z7'
p4116
aS'B3GUW2'
p4117
asS'PF01501'
p4118
(lp4119
S'Q5C3E1'
p4120
aS'G4LZN3'
p4121
asS'PF00059'
p4122
(lp4123
S'Q5C1X6'
p4124
aS'G4M0W9'
p4125
asS'PF00056'
p4126
(lp4127
S'C7TZT8'
p4128
aS'P37227'
p4129
asS'PF00057'
p4130
(lp4131
S'Q5BXY9'
p4132
aS'G4VEU3'
p4133
asS'PF00054'
p4134
(lp4135
S'G4VG21'
p4136
asS'PF00051'
p4137
(lp4138
S'G4VK82'
p4139
asS'PF00042'
p4140
(lp4141
S'B3GUR1'
p4142
aS'G4LZC6'
p4143
asS'PF02540'
p4144
(lp4145
S'Q5C0M0'
p4146
aS'G4VH07'
p4147
asS'PF00572'
p4148
(lp4149
S'G4VGE1'
p4150
aS'Q5D932'
p4151
asS'PF02089'
p4152
(lp4153
S'Q5DBS6'
p4154
aS'G4VNU1'
p4155
asS'PF02921'
p4156
(lp4157
S'G4VNI0'
p4158
aS'B3GUZ5'
p4159
asS'PF00452'
p4160
(lp4161
S'G4V9D2'
p4162
aS'Q5BWX6'
p4163
asS'PF01243'
p4164
(lp4165
S'Q5DDA2'
p4166
aS'G4M1K6'
p4167
asS'PF00450'
p4168
(lp4169
S'G4VHZ1'
p4170
aS'Q5DB18'
p4171
asS'PF13594'
p4172
(lp4173
S'G4V5P8'
p4174
aS'Q5BYH0'
p4175
asS'PF00456'
p4176
(lp4177
S'G4V9A5'
p4178
aS'Q5C313'
p4179
asS'PF02984'
p4180
(lp4181
S'C7TZT4'
p4182
aS'G4V5F9'
p4183
asS'PF00454'
p4184
(lp4185
S'Q5C1Z3'
p4186
aS'G4VGN6'
p4187
asS'PF02574'
p4188
(lp4189
S'G4VBH2'
p4190
asS'PF00458'
p4191
(lp4192
S'Q5C3S2'
p4193
aS'G4VFP9'
p4194
asS'PF00459'
p4195
(lp4196
S'Q5C0C1'
p4197
aS'G4LW64'
p4198
asS'PF02874'
p4199
(lp4200
S'Q5D925'
p4201
aS'G4LWA8'
p4202
asS'PF13091'
p4203
(lp4204
S'G4V7U9'
p4205
aS'Q5C3L2'
p4206
asS'PF13909'
p4207
(lp4208
S'Q5BWG4'
p4209
aS'G4VM79'
p4210
asS'PF01571'
p4211
(lp4212
S'G4V9G0'
p4213
aS'Q5C0J6'
p4214
asS'PF07714'
p4215
(lp4216
S'G4LXX3'
p4217
aS'Q3MJT9'
p4218
asS'PF01575'
p4219
(lp4220
S'G4V9Z7'
p4221
aS'Q5C0P9'
p4222
asS'PB009698'
p4223
(lp4224
S'G4M129'
p4225
asS'PF07719'
p4226
(lp4227
S'C4Q5L0'
p4228
aS'C7TYY0'
p4229
asS'PF00510'
p4230
(lp4231
S'Q1I0P3'
p4232
aS'B3W653'
p4233
aS'Q9B8X4'
p4234
asS'PF03372'
p4235
(lp4236
S'G4LY21'
p4237
aS'Q5BVS0'
p4238
asS'PF00515'
p4239
(lp4240
S'Q5BRB1'
p4241
aS'C4Q5L1'
p4242
asS'PF13907'
p4243
(lp4244
S'G4VJQ0'
p4245
asS'PF01663'
p4246
(lp4247
S'B2D1S3'
p4248
aS'Q5BVW7'
p4249
asS'PF00225'
p4250
(lp4251
S'C4QT37'
p4252
aS'C7TZG7'
p4253
asS'PF00224'
p4254
(lp4255
S'G4VAH9'
p4256
aS'Q5C2V0'
p4257
asS'PF00227'
p4258
(lp4259
S'C7TY90'
p4260
aS'G4LUJ6'
p4261
asS'PF01223'
p4262
(lp4263
S'G4M111'
p4264
asS'PF00364'
p4265
(lp4266
S'G4LZ03'
p4267
aS'Q5BSC4'
p4268
asS'PF13833'
p4269
(lp4270
S'A5A6F7'
p4271
aS'Q3MJS5'
p4272
aS'G4VFV6'
p4273
asS'PF07679'
p4274
(lp4275
S'G4VFE7'
p4276
aS'Q3KZB1'
p4277
asS'PF02888'
p4278
(lp4279
S'G4LXV9'
p4280
asS'PF00574'
p4281
(lp4282
S'G4V8C7'
p4283
aS'Q3MJW3'
p4284
asS'PF02882'
p4285
(lp4286
S'B3GUY3'
p4287
aS'G4VBG1'
p4288
asS'PF02881'
p4289
(lp4290
S'G4VDN9'
p4291
aS'C7TXS6'
p4292
asS'PF02880'
p4293
(lp4294
S'C7TXY1'
p4295
aS'C4QPU8'
p4296
asS'PF02887'
p4297
(lp4298
S'G4VAH9'
p4299
aS'Q5D8L3'
p4300
asS'PF00753'
p4301
(lp4302
S'G4LZQ3'
p4303
aS'Q5BTH5'
p4304
asS'PB003214'
p4305
(lp4306
S'Q5BRG1'
p4307
aS'G4VFK0'
p4308
asS'PF00958'
p4309
(lp4310
S'G4M0Y0'
p4311
aS'Q5DH96'
p4312
asS'PF02799'
p4313
(lp4314
S'Q5DFY0'
p4315
aS'G4LUK0'
p4316
asS'PF02798'
p4317
(lp4318
S'G4LXF8'
p4319
aS'Q5D8M1'
p4320
aS'P30114'
p4321
asS'PF00755'
p4322
(lp4323
S'G4VPS9'
p4324
asS'PF05724'
p4325
(lp4326
S'Q5DFB8'
p4327
asS'PF12662'
p4328
(lp4329
S'G4V7D5'
p4330
asS'PF02790'
p4331
(lp4332
S'G9B0Z9'
p4333
asS'PF00355'
p4334
(lp4335
S'G4VNI0'
p4336
aS'B3GUZ5'
p4337
asS'PF01381'
p4338
(lp4339
S'B3GUV5'
p4340
aS'G4VEG1'
p4341
asS'PF00425'
p4342
(lp4343
S'Q5BRM4'
p4344
asS'PF00298'
p4345
(lp4346
S'G4V9G5'
p4347
aS'Q5DDS8'
p4348
asS'PF00757'
p4349
(lp4350
S'C7DT89'
p4351
aS'G4VRX5'
p4352
asS'PF12465'
p4353
(lp4354
S'Q5DEZ9'
p4355
aS'G4VSW3'
p4356
asS'PF00294'
p4357
(lp4358
S'Q5C191'
p4359
aS'G4V7G4'
p4360
asS'PF03764'
p4361
(lp4362
S'G4VI96'
p4363
aS'Q5BXM0'
p4364
asS'PF00297'
p4365
(lp4366
S'Q5DGM0'
p4367
aS'C4QKQ4'
p4368
asS'PF02403'
p4369
(lp4370
S'Q5C1K0'
p4371
aS'G4VIZ9'
p4372
asS'PF00291'
p4373
(lp4374
S'Q5BWI3'
p4375
aS'G4LWZ5'
p4376
asS'PF02878'
p4377
(lp4378
S'C4QPU4'
p4379
aS'Q5C2A4'
p4380
asS'PF00293'
p4381
(lp4382
S'Q5C0D7'
p4383
aS'G4LZC2'
p4384
as.