(dp1
S'3.90.650.10'
p2
(lp3
S'B3GUX9'
p4
asS'4.10.320.10'
p5
(lp6
S'G4LZ03'
p7
aS'C1LD57'
p8
asS'1.10.100.10'
p9
(lp10
S'Q5DBU2'
p11
asS'3.20.90.10'
p12
(lp13
S'G4VQP4'
p14
asS'3.40.1360.10'
p15
(lp16
S'G4VE89'
p17
asS'3.40.50.10300'
p18
(lp19
S'Q5BZK8'
p20
aS'G4VHG2'
p21
asS'3.40.50.40'
p22
(lp23
S'G4VJ31'
p24
asS'3.40.50.10760'
p25
(lp26
S'C1L491'
p27
aS'G4LWM3'
p28
asS'1.20.5.740'
p29
(lp30
S'G4VTR7'
p31
asS'1.10.8.100'
p32
(lp33
S'G4LXG3'
p34
aS'Q5D8X3'
p35
asS'1.10.196.10'
p36
(lp37
S'G4VCF1'
p38
aS'Q5BSJ8'
p39
asS'3.40.800.10'
p40
(lp41
S'B3GUR2'
p42
aS'Q6TA39'
p43
asS'2.130.10.80'
p44
(lp45
S'Q5C073'
p46
aS'G4V6R2'
p47
asS'3.90.950.10'
p48
(lp49
S'Q3MJU9'
p50
aS'G4VMH6'
p51
asS'3.30.1370.30'
p52
(lp53
S'G4VGR1'
p54
aS'C1LBQ1'
p55
asS'1.10.220.20'
p56
(lp57
S'Q5BYD8'
p58
aS'C4QNZ8'
p59
asS'3.30.565.10'
p60
(lp61
S'C1LEA1'
p62
aS'G4M1N5'
p63
asS'3.10.110.10'
p64
(lp65
S'B3GUP9'
p66
aS'C4QU53'
p67
asS'3.90.190.20'
p68
(lp69
S'G4V6Z6'
p70
aS'Q5C6W5'
p71
asS'3.30.70.870'
p72
(lp73
S'C1LFJ1'
p74
aS'G4LVU7'
p75
asS'1.20.150.20'
p76
(lp77
S'Q5BSQ1'
p78
aS'G4VLJ0'
p79
asS'2.20.25.30'
p80
(lp81
S'G4V5D8'
p82
aS'C1LPY8'
p83
asS'3.30.1020.10'
p84
(lp85
S'G4LXH7'
p86
aS'C1LB64'
p87
asS'1.25.40.70'
p88
(lp89
S'Q5BYQ1'
p90
aS'G4LXS4'
p91
asS'3.40.50.10810'
p92
(lp93
S'Q5DI15'
p94
aS'G4LWJ6'
p95
asS'1.20.1300.10'
p96
(lp97
S'C7TZ33'
p98
aS'G4V6D5'
p99
asS'1.10.460.10'
p100
(lp101
S'G4VFA7'
p102
asS'2.60.40.1480'
p103
(lp104
S'Q5DA95'
p105
aS'G4V6J3'
p106
asS'1.10.760.10'
p107
(lp108
S'Q5C336'
p109
aS'Q15EU2'
p110
asS'1.20.5.630'
p111
(lp112
S'E7BBC0'
p113
aS'Q5C0L6'
p114
asS'3.30.310.10'
p115
(lp116
S'Q5BSA7'
p117
aS'C4QKR1'
p118
asS'3.10.580.10'
p119
(lp120
S'Q3KZ72'
p121
aS'G4M1A8'
p122
asS'3.30.420.10'
p123
(lp124
S'C1LHF1'
p125
aS'G4LVX3'
p126
asS'1.20.5.730'
p127
(lp128
S'G4LVX4'
p129
aS'C1L504'
p130
asS'4.10.1170.10'
p131
(lp132
S'Q5C3J3'
p133
aS'G4VJ06'
p134
asS'1.20.120.350'
p135
(lp136
S'C1LER9'
p137
aS'G4M1N7'
p138
asS'2.60.40.670'
p139
(lp140
S'G4VTA6'
p141
asS'3.30.60.60'
p142
(lp143
S'C1L8D7'
p144
aS'G4LXT0'
p145
asS'1.20.1020.10'
p146
(lp147
S'Q5C2Q5'
p148
aS'G4VEQ5'
p149
asS'2.60.40.770'
p150
(lp151
S'G4VTW4'
p152
aS'Q5DFZ4'
p153
asS'1.10.287.600'
p154
(lp155
S'C4Q4S5'
p156
aS'Q5FYA5'
p157
aS'C1L471'
p158
asS'2.40.30.30'
p159
(lp160
S'G4M0L1'
p161
aS'Q5BXG8'
p162
asS'3.30.70.370'
p163
(lp164
S'Q5DHX5'
p165
aS'G4V993'
p166
asS'3.40.50.10860'
p167
(lp168
S'G4LYZ1'
p169
aS'B3GUY3'
p170
asS'1.20.5.1050'
p171
(lp172
S'G4LV43'
p173
aS'C1LG15'
p174
aS'A5A6F8'
p175
asS'3.30.70.270'
p176
(lp177
S'C4QS60'
p178
aS'C7TXU1'
p179
asS'3.40.1160.10'
p180
(lp181
S'G4VJT6'
p182
aS'C1LEW7'
p183
asS'3.30.2350.10'
p184
(lp185
S'C1L5Q8'
p186
aS'G4VDL7'
p187
asS'3.40.50.720'
p188
(lp189
S'B3GV02'
p190
aS'C4QQ81'
p191
asS'2.60.40.10'
p192
(lp193
S'C4Q5U5'
p194
aS'B5B7R3'
p195
asS'2.60.40.690'
p196
(lp197
S'G4V5U5'
p198
asS'3.60.20.10'
p199
(lp200
S'B9VRG0'
p201
aS'G4LUJ6'
p202
asS'3.30.360.10'
p203
(lp204
S'G4V5I1'
p205
aS'C1LD52'
p206
asS'1.10.245.10'
p207
(lp208
S'G4V888'
p209
aS'C1LM21'
p210
asS'1.10.1200.10'
p211
(lp212
S'C1L5E9'
p213
aS'G4VSN6'
p214
asS'1.10.2000.10'
p215
(lp216
S'C1L3T3'
p217
aS'G4M1Q0'
p218
asS'3.90.470.20'
p219
(lp220
S'Q5DCI8'
p221
aS'G4VF78'
p222
asS'3.30.56.20'
p223
(lp224
S'Q5DGS2'
p225
aS'G4LV70'
p226
asS'1.10.287.890'
p227
(lp228
S'G4VB83'
p229
aS'C1LE20'
p230
asS'3.90.660.20'
p231
(lp232
S'G4VTC3'
p233
asS'3.30.450.40'
p234
(lp235
S'Q5C2K7'
p236
aS'G4VIQ4'
p237
asS'3.40.50.10140'
p238
(lp239
S'G4LXN9'
p240
aS'Q5C6A1'
p241
asS'3.40.1090.10'
p242
(lp243
S'Q5C3J4'
p244
aS'G4VCI7'
p245
asS'3.20.110.10'
p246
(lp247
S'Q5BYG0'
p248
aS'G4M0J4'
p249
asS'3.90.190.10'
p250
(lp251
S'B5B7R5'
p252
aS'C4QJ46'
p253
asS'3.40.33.10'
p254
(lp255
S'B3GUV1'
p256
aS'A3RK85'
p257
asS'1.10.287.770'
p258
(lp259
S'Q5BW11'
p260
aS'G4VKI6'
p261
asS'3.40.50.150'
p262
(lp263
S'C1L4C6'
p264
aS'C4QC82'
p265
asS'1.10.1140.10'
p266
(lp267
S'Q86EB8'
p268
aS'G4LWA8'
p269
asS'2.140.10.10'
p270
(lp271
S'G4LZA3'
p272
aS'Q5C070'
p273
asS'3.30.1430.10'
p274
(lp275
S'G4VN87'
p276
aS'C1LBG8'
p277
asS'2.60.40.60'
p278
(lp279
S'Q5BYV3'
p280
aS'C1M031'
p281
asS'1.20.1460.10'
p282
(lp283
S'C1L796'
p284
aS'G4M047'
p285
asS'2.40.70.10'
p286
(lp287
S'G4M1W1'
p288
aS'C1L3W6'
p289
asS'2.60.470.10'
p290
(lp291
S'G4LVW8'
p292
asS'3.40.50.1240'
p293
(lp294
S'B3GUV6'
p295
aS'C4Q1Q3'
p296
asS'1.20.1080.10'
p297
(lp298
S'C1L811'
p299
aS'C4PYI6'
p300
asS'1.20.5.560'
p301
(lp302
S'G4LVM3'
p303
aS'C1LDT1'
p304
asS'3.40.1010.10'
p305
(lp306
S'G4VPC1'
p307
asS'3.40.50.1480'
p308
(lp309
S'G4LX02'
p310
aS'C1L5M9'
p311
asS'3.30.70.890'
p312
(lp313
S'G4LZ01'
p314
aS'C1L4K8'
p315
asS'3.90.1110.10'
p316
(lp317
S'G4VEG3'
p318
aS'C1LF25'
p319
asS'3.10.450.40'
p320
(lp321
S'G4VGX7'
p322
asS'1.25.40.90'
p323
(lp324
S'G4LVB4'
p325
aS'Q5BRK2'
p326
asS'3.90.215.10'
p327
(lp328
S'Q5D8X6'
p329
asS'3.90.570.10'
p330
(lp331
S'G4LY13'
p332
aS'Q5DBI0'
p333
asS'2.170.300.10'
p334
(lp335
S'G4V5U5'
p336
aS'C1L4W7'
p337
asS'2.120.10.30'
p338
(lp339
S'G4V7U1'
p340
aS'C1LFP7'
p341
asS'3.90.850.10'
p342
(lp343
S'Q5DFL7'
p344
aS'G4M1F1'
p345
asS'2.10.50.10'
p346
(lp347
S'G4VIL7'
p348
aS'Q5BVZ1'
p349
asS'1.10.168.10'
p350
(lp351
S'Q5DHB6'
p352
aS'G4VHU3'
p353
asS'2.10.220.10'
p354
(lp355
S'G4VRX7'
p356
aS'Q5C4K2'
p357
asS'1.20.80.10'
p358
(lp359
S'C1L6K1'
p360
aS'G4LWV5'
p361
asS'3.10.400.10'
p362
(lp363
S'G4VMD4'
p364
aS'A2SUQ9'
p365
asS'2.30.110.10'
p366
(lp367
S'Q5DDA2'
p368
aS'G4M1K6'
p369
asS'4.10.60.10'
p370
(lp371
S'C1LAF9'
p372
aS'G4M0F2'
p373
asS'1.10.10.250'
p374
(lp375
S'C1LN85'
p376
aS'G4V9G5'
p377
asS'2.60.220.10'
p378
(lp379
S'C4Q5U3'
p380
aS'C1LED5'
p381
asS'1.10.555.10'
p382
(lp383
S'C4QRU8'
p384
aS'C1LIT2'
p385
asS'1.10.260.40'
p386
(lp387
S'Q5BY20'
p388
aS'G4LY22'
p389
asS'1.20.272.10'
p390
(lp391
S'G4LY44'
p392
aS'Q5BYM8'
p393
asS'3.30.1740.10'
p394
(lp395
S'G4M0L0'
p396
aS'Q5BY75'
p397
asS'1.10.286.10'
p398
(lp399
S'G4VFZ0'
p400
asS'3.30.1110.10'
p401
(lp402
S'C1L3V2'
p403
aS'G4V7G4'
p404
asS'3.30.70.1180'
p405
(lp406
S'C1L793'
p407
aS'G4M047'
p408
asS'3.30.300.10'
p409
(lp410
S'G4M0Y0'
p411
aS'Q5DH96'
p412
asS'1.10.287.20'
p413
(lp414
S'G4VT15'
p415
aS'B3GUT1'
p416
asS'1.20.1170.10'
p417
(lp418
S'G4LWZ8'
p419
aS'C1LEI7'
p420
asS'1.20.5.510'
p421
(lp422
S'G4V8L8'
p423
asS'1.10.10.10'
p424
(lp425
S'A6XDL3'
p426
aS'B3GUP6'
p427
asS'3.40.50.2300'
p428
(lp429
S'C4QPD0'
p430
aS'Q5C7X4'
p431
asS'3.60.110.10'
p432
(lp433
S'G4LZ98'
p434
aS'C1L4B4'
p435
asS'2.40.160.10'
p436
(lp437
S'G4M1U7'
p438
aS'C1L6E8'
p439
asS'2.60.120.590'
p440
(lp441
S'C1LEC8'
p442
aS'C4QTP7'
p443
asS'4.10.830.10'
p444
(lp445
S'G4V8K8'
p446
aS'Q5BTL1'
p447
asS'2.60.120.320'
p448
(lp449
S'Q5BRD8'
p450
aS'G4VDG7'
p451
asS'3.30.70.590'
p452
(lp453
S'G4LZL5'
p454
aS'C1LE67'
p455
asS'2.40.10.170'
p456
(lp457
S'C1L762'
p458
aS'G4VHN3'
p459
asS'3.75.10.10'
p460
(lp461
S'G4LYW6'
p462
aS'C1L7A2'
p463
asS'3.40.50.10420'
p464
(lp465
S'C1LE23'
p466
aS'G4VJG8'
p467
asS'4.10.280.10'
p468
(lp469
S'G4LUA7'
p470
aS'C1L6A5'
p471
asS'3.40.1190.20'
p472
(lp473
S'G4LYI8'
p474
aS'C1L3Q7'
p475
asS'1.50.40.10'
p476
(lp477
S'G4LYG3'
p478
aS'C1L8V6'
p479
asS'1.20.5.100'
p480
(lp481
S'Q5C234'
p482
aS'G4VAP6'
p483
asS'3.20.20.190'
p484
(lp485
S'Q5BSL2'
p486
aS'G4V7U6'
p487
asS'2.70.20.10'
p488
(lp489
S'G4VFA7'
p490
asS'1.20.120.310'
p491
(lp492
S'G4M193'
p493
aS'C1L747'
p494
asS'3.30.70.1230'
p495
(lp496
S'Q5BXD2'
p497
aS'G4VMY6'
p498
asS'1.10.472.10'
p499
(lp500
S'C1LLP7'
p501
aS'G4LUG9'
p502
asS'3.90.1430.10'
p503
(lp504
S'C1LIY5'
p505
aS'G4LVU7'
p506
asS'3.20.20.10'
p507
(lp508
S'C1LEV4'
p509
asS'2.130.10.120'
p510
(lp511
S'G4M0R1'
p512
aS'C1L3V3'
p513
asS'4.10.110.10'
p514
(lp515
S'G4V8C4'
p516
aS'Q5BYN2'
p517
asS'1.10.1030.10'
p518
(lp519
S'G4VEM7'
p520
asS'3.10.20.90'
p521
(lp522
S'C1L3S9'
p523
aS'C4QLP6'
p524
asS'2.40.460.10'
p525
(lp526
S'G4VJ84'
p527
asS'3.80.10.10'
p528
(lp529
S'C4QRK3'
p530
aS'C1L577'
p531
asS'1.20.58.100'
p532
(lp533
S'G4LY63'
p534
aS'Q5DE07'
p535
asS'3.20.20.100'
p536
(lp537
S'C1L9V4'
p538
aS'G4LXR4'
p539
asS'3.90.1520.10'
p540
(lp541
S'G4LU97'
p542
asS'3.20.20.330'
p543
(lp544
S'G4VBH2'
p545
asS'2.170.210.10'
p546
(lp547
S'C1LHX9'
p548
asS'2.110.10.10'
p549
(lp550
S'G4VEJ3'
p551
asS'2.60.40.790'
p552
(lp553
S'C1L7M3'
p554
aS'G4LW11'
p555
asS'3.90.940.10'
p556
(lp557
S'G4V787'
p558
aS'Q5D946'
p559
asS'1.10.730.10'
p560
(lp561
S'Q5C105'
p562
aS'G4LVH7'
p563
asS'3.90.230.10'
p564
(lp565
S'G4VM23'
p566
aS'Q5BZ27'
p567
asS'3.10.200.10'
p568
(lp569
S'G4M116'
p570
aS'C1LFK7'
p571
asS'3.90.105.10'
p572
(lp573
S'G4LZ84'
p574
asS'3.10.20.70'
p575
(lp576
S'C1LHA1'
p577
aS'C4Q2Z2'
p578
asS'1.20.120.550'
p579
(lp580
S'G4VH65'
p581
aS'C1LQ48'
p582
asS'3.40.970.10'
p583
(lp584
S'C4QPU4'
p585
asS'3.30.590.10'
p586
(lp587
S'C1LHA0'
p588
aS'G4VT35'
p589
asS'3.40.430.10'
p590
(lp591
S'G4VJD6'
p592
aS'C1LGY1'
p593
asS'1.10.230.10'
p594
(lp595
S'G4LZD0'
p596
aS'C1LFJ7'
p597
asS'3.40.525.10'
p598
(lp599
S'C4QKW8'
p600
aS'C1LHD2'
p601
asS'4.10.960.10'
p602
(lp603
S'Q5DGM0'
p604
aS'C4QKQ4'
p605
asS'2.60.40.720'
p606
(lp607
S'G4LYM1'
p608
aS'Q5BZ83'
p609
asS'3.30.65.10'
p610
(lp611
S'G4VM01'
p612
asS'3.30.60.30'
p613
(lp614
S'Q5DB64'
p615
aS'G4LY67'
p616
asS'1.10.287.630'
p617
(lp618
S'G4LUM1'
p619
asS'1.10.287.980'
p620
(lp621
S'I6LB07'
p622
asS'2.30.38.10'
p623
(lp624
S'C1L632'
p625
aS'G4VQZ1'
p626
asS'3.40.50.970'
p627
(lp628
S'C1LFH4'
p629
aS'G4VT40'
p630
asS'2.70.160.11'
p631
(lp632
S'Q5BXN8'
p633
aS'G4VCV7'
p634
asS'1.10.1160.10'
p635
(lp636
S'C1L4U3'
p637
aS'G4V9R9'
p638
asS'2.170.11.10'
p639
(lp640
S'Q5C1T3'
p641
aS'G4VRF9'
p642
asS'2.160.20.60'
p643
(lp644
S'Q5C3P4'
p645
aS'G4VS94'
p646
asS'2.20.28.10'
p647
(lp648
S'C1L4T0'
p649
aS'C1M255'
p650
asS'1.10.565.10'
p651
(lp652
S'G4LXS8'
p653
aS'Q5BSD6'
p654
asS'2.40.33.10'
p655
(lp656
S'G4VAH9'
p657
aS'Q5DAM7'
p658
asS'2.40.50.40'
p659
(lp660
S'G4VMB0'
p661
aS'C1LJ18'
p662
asS'3.40.50.1440'
p663
(lp664
S'C4Q4S5'
p665
aS'Q5FYA5'
p666
aS'C1LBB6'
p667
asS'4.10.1220.10'
p668
(lp669
S'G4M010'
p670
asS'1.20.5.320'
p671
(lp672
S'G4VCY4'
p673
aS'C1LJA0'
p674
asS'3.90.470.10'
p675
(lp676
S'C1L667'
p677
aS'G4M060'
p678
asS'3.10.180.20'
p679
(lp680
S'G4VFZ1'
p681
asS'3.30.479.10'
p682
(lp683
S'Q5DCA1'
p684
aS'G4M0A6'
p685
asS'2.80.10.50'
p686
(lp687
S'G4LUM3'
p688
aS'B3GUY9'
p689
asS'2.60.120.620'
p690
(lp691
S'G4VKQ0'
p692
aS'C1LFF4'
p693
asS'3.30.379.10'
p694
(lp695
S'G4VHP9'
p696
aS'Q5C4F9'
p697
asS'3.30.1360.40'
p698
(lp699
S'G4VPA9'
p700
asS'1.20.82.10'
p701
(lp702
S'Q32TF5'
p703
aS'Q86FH3'
p704
asS'1.10.390.10'
p705
(lp706
S'G4M023'
p707
aS'C1L457'
p708
asS'3.30.230.10'
p709
(lp710
S'C4QII4'
p711
aS'C1LV98'
p712
asS'3.40.50.1700'
p713
(lp714
S'G4VRX3'
p715
asS'3.30.1330.10'
p716
(lp717
S'B3GUX9'
p718
asS'3.30.410.10'
p719
(lp720
S'Q5BRS9'
p721
aS'G4VPI5'
p722
asS'1.10.580.10'
p723
(lp724
S'G4LZD0'
p725
aS'C1LFJ7'
p726
asS'2.140.10.20'
p727
(lp728
S'C1LAI6'
p729
aS'G4VIF4'
p730
asS'2.70.130.10'
p731
(lp732
S'G4VIG9'
p733
aS'Q5DHR4'
p734
asS'3.50.40.10'
p735
(lp736
S'Q5DGS2'
p737
aS'G4LV70'
p738
asS'3.30.497.10'
p739
(lp740
S'B2MV81'
p741
aS'G4LYU6'
p742
aS'Q26502'
p743
asS'1.10.287.160'
p744
(lp745
S'G4LY72'
p746
aS'C1LCS1'
p747
asS'1.10.238.110'
p748
(lp749
S'G4LVT5'
p750
aS'Q3MJS5'
p751
asS'3.30.70.960'
p752
(lp753
S'G4VER0'
p754
aS'C1LNK2'
p755
asS'1.10.3080.10'
p756
(lp757
S'Q5BR49'
p758
aS'G4M0B7'
p759
asS'3.90.1150.10'
p760
(lp761
S'A7UAX6'
p762
aS'C1L634'
p763
asS'3.30.1550.10'
p764
(lp765
S'G4V9G5'
p766
aS'Q5BT17'
p767
asS'1.10.1200.60'
p768
(lp769
S'G4LVM3'
p770
aS'C1LDT1'
p771
asS'3.30.950.10'
p772
(lp773
S'G4VPC1'
p774
asS'1.10.3110.10'
p775
(lp776
S'G4VTC3'
p777
aS'Q5DD49'
p778
asS'3.40.1060.10'
p779
(lp780
S'G4VMI0'
p781
aS'Q5BXP5'
p782
asS'3.30.70.141'
p783
(lp784
S'B3GUP5'
p785
aS'G4LY79'
p786
asS'4.10.640.10'
p787
(lp788
S'C1LFW5'
p789
aS'G4V6L4'
p790
asS'1.10.800.10'
p791
(lp792
S'G4VPY9'
p793
aS'C1LDI3'
p794
asS'2.60.40.1510'
p795
(lp796
S'C4PYZ0'
p797
asS'1.10.1530.10'
p798
(lp799
S'G4V698'
p800
aS'C7TY16'
p801
asS'1.10.400.10'
p802
(lp803
S'C4QDC6'
p804
aS'A1XBS3'
p805
asS'3.10.450.60'
p806
(lp807
S'G4V9T8'
p808
asS'1.10.1410.10'
p809
(lp810
S'G4LWJ3'
p811
aS'C1LE67'
p812
asS'3.40.1190.10'
p813
(lp814
S'G4V6Z6'
p815
aS'Q5C3N8'
p816
asS'1.20.5.1190'
p817
(lp818
S'G4VIH9'
p819
asS'3.40.1380.20'
p820
(lp821
S'G4VAH9'
p822
aS'Q5D8L3'
p823
asS'3.40.50.850'
p824
(lp825
S'Q5BSG1'
p826
aS'G4LYG9'
p827
asS'3.40.440.10'
p828
(lp829
S'C4QCD2'
p830
aS'Q5D8V5'
p831
asS'1.10.10.41'
p832
(lp833
S'Q5C1T3'
p834
aS'G4VRF9'
p835
asS'3.30.160.20'
p836
(lp837
S'G4VFC5'
p838
aS'C1LG44'
p839
asS'1.10.132.10'
p840
(lp841
S'Q3KTH0'
p842
aS'G4VRF9'
p843
asS'3.90.79.10'
p844
(lp845
S'G4V6Y0'
p846
aS'C1L555'
p847
asS'3.40.50.1110'
p848
(lp849
S'G4LZC1'
p850
aS'C1LFE9'
p851
asS'3.30.1050.10'
p852
(lp853
S'G4LWZ7'
p854
asS'3.20.20.370'
p855
(lp856
S'G4VB04'
p857
asS'4.10.910.10'
p858
(lp859
S'C1L9P9'
p860
aS'G4VH28'
p861
asS'3.90.226.10'
p862
(lp863
S'C4QS32'
p864
aS'C1L6K4'
p865
asS'1.10.240.10'
p866
(lp867
S'G4LXR8'
p868
aS'C1L6H3'
p869
asS'2.40.155.10'
p870
(lp871
S'Q5BT35'
p872
aS'G4LZ07'
p873
asS'2.70.210.12'
p874
(lp875
S'Q5BYE1'
p876
aS'G4LZ58'
p877
asS'1.10.405.10'
p878
(lp879
S'G4VC26'
p880
aS'C1LEP2'
p881
asS'3.40.50.200'
p882
(lp883
S'G4VKQ9'
p884
aS'C1LEI4'
p885
asS'1.20.5.170'
p886
(lp887
S'C1LRV3'
p888
aS'G4LV44'
p889
asS'3.10.20.30'
p890
(lp891
S'C4QC98'
p892
aS'C1LEI3'
p893
asS'3.40.720.10'
p894
(lp895
S'A8TKU6'
p896
aS'Q5BX03'
p897
asS'2.30.130.40'
p898
(lp899
S'G4VN42'
p900
aS'C1L659'
p901
asS'1.10.3860.10'
p902
(lp903
S'Q5BZ02'
p904
aS'G4VKW8'
p905
asS'1.20.120.610'
p906
(lp907
S'B5B7Q6'
p908
aS'G4LXI9'
p909
asS'3.40.50.20'
p910
(lp911
S'G4V7M2'
p912
aS'Q5DDR2'
p913
asS'1.10.1050.10'
p914
(lp915
S'Q5C773'
p916
asS'3.60.10.10'
p917
(lp918
S'G4LY21'
p919
aS'C1L4Q8'
p920
asS'3.30.1600.10'
p921
(lp922
S'C4Q5J6'
p923
aS'C1LH16'
p924
asS'2.40.30.20'
p925
(lp926
S'Q5D925'
p927
aS'G4VLJ0'
p928
asS'3.40.50.1980'
p929
(lp930
S'C1L5A2'
p931
aS'G4VN22'
p932
asS'1.10.533.10'
p933
(lp934
S'C4Q195'
p935
aS'Q5BSI9'
p936
asS'1.20.5.10'
p937
(lp938
S'Q5C1K9'
p939
aS'G4VNZ4'
p940
asS'4.10.70.10'
p941
(lp942
S'C4QGD8'
p943
asS'3.40.50.1010'
p944
(lp945
S'C1LIM9'
p946
aS'G4V7F0'
p947
asS'3.30.420.40'
p948
(lp949
S'C1L3Z1'
p950
aS'C4QUB0'
p951
asS'3.30.70.260'
p952
(lp953
S'Q5DFM4'
p954
aS'G4LWP8'
p955
asS'2.30.30.30'
p956
(lp957
S'G4LWB3'
p958
aS'C1LAK1'
p959
asS'2.40.50.100'
p960
(lp961
S'C1L6Q3'
p962
aS'G4VRH7'
p963
asS'3.30.390.10'
p964
(lp965
S'P33676'
p966
aS'Q6LC36'
p967
asS'4.10.80.40'
p968
(lp969
S'G4LY63'
p970
aS'Q5DE07'
p971
asS'3.30.1330.40'
p972
(lp973
S'G4VND5'
p974
aS'C1LIW9'
p975
asS'3.30.1440.10'
p976
(lp977
S'C1L7V2'
p978
aS'G4VMJ4'
p979
asS'1.10.20.10'
p980
(lp981
S'C1M1H8'
p982
aS'C1L450'
p983
asS'2.10.10.10'
p984
(lp985
S'G4VLC4'
p986
asS'3.40.50.1400'
p987
(lp988
S'Q5DEU6'
p989
aS'G4V924'
p990
asS'1.10.40.30'
p991
(lp992
S'G4LVG5'
p993
aS'C1LGX3'
p994
asS'1.25.40.10'
p995
(lp996
S'B3GUQ8'
p997
aS'C4PZS9'
p998
asS'2.60.120.290'
p999
(lp1000
S'C4Q5F4'
p1001
aS'Q5BZF0'
p1002
asS'3.30.1010.10'
p1003
(lp1004
S'G4V7A4'
p1005
aS'Q5BXA1'
p1006
asS'1.20.5.210'
p1007
(lp1008
S'G4VIZ2'
p1009
aS'C1L8W8'
p1010
asS'3.10.290.10'
p1011
(lp1012
S'G4V917'
p1013
aS'C1LT49'
p1014
asS'1.20.1260.10'
p1015
(lp1016
S'B3GUY2'
p1017
aS'G4LUZ7'
p1018
asS'3.40.390.10'
p1019
(lp1020
S'G4VCE9'
p1021
aS'Q5BVG6'
p1022
asS'4.10.800.10'
p1023
(lp1024
S'G4V9C6'
p1025
asS'3.20.20.70'
p1026
(lp1027
S'C4PZQ3'
p1028
aS'B3GUX0'
p1029
aS'A5A6F9'
p1030
asS'3.30.870.10'
p1031
(lp1032
S'Q5C3M2'
p1033
aS'G4VFV5'
p1034
asS'2.30.29.30'
p1035
(lp1036
S'B5B7R0'
p1037
aS'C4QKX0'
p1038
asS'1.10.10.350'
p1039
(lp1040
S'G4V9R9'
p1041
asS'3.90.780.10'
p1042
(lp1043
S'G4VM41'
p1044
aS'C1LJ95'
p1045
asS'1.10.1080.10'
p1046
(lp1047
S'C1L3Q0'
p1048
aS'G4VNT7'
p1049
asS'3.40.50.880'
p1050
(lp1051
S'G4V7R9'
p1052
aS'C1L4D8'
p1053
asS'3.40.50.140'
p1054
(lp1055
S'Q5DFL5'
p1056
aS'G4VFA7'
p1057
asS'3.90.640.10'
p1058
(lp1059
S'C4QFX9'
p1060
aS'B3GUU7'
p1061
asS'1.25.10.30'
p1062
(lp1063
S'G4LXE8'
p1064
asS'1.10.225.10'
p1065
(lp1066
S'B6ZBP3'
p1067
aS'C1L7I2'
p1068
asS'3.40.50.920'
p1069
(lp1070
S'G4V9A5'
p1071
aS'Q5BSR1'
p1072
asS'3.90.740.10'
p1073
(lp1074
S'G4LVH7'
p1075
aS'Q5BRJ7'
p1076
asS'2.60.120.680'
p1077
(lp1078
S'C1L3U5'
p1079
aS'G4VCQ4'
p1080
asS'1.10.437.10'
p1081
(lp1082
S'C1L437'
p1083
aS'G4V9D2'
p1084
asS'2.60.175.10'
p1085
(lp1086
S'G4VCJ9'
p1087
asS'3.30.1460.20'
p1088
(lp1089
S'G4V7X7'
p1090
aS'Q5DFU4'
p1091
asS'1.10.10.520'
p1092
(lp1093
S'C1LIQ4'
p1094
aS'G4LWD7'
p1095
asS'3.90.20.10'
p1096
(lp1097
S'C1LGT8'
p1098
aS'G4V8E0'
p1099
asS'3.10.180.10'
p1100
(lp1101
S'G4VG72'
p1102
aS'Q5BS34'
p1103
asS'3.90.180.10'
p1104
(lp1105
S'C1LFV4'
p1106
aS'G4VEY4'
p1107
asS'3.30.1520.10'
p1108
(lp1109
S'C4QU97'
p1110
aS'Q5DCX2'
p1111
asS'3.30.70.1470'
p1112
(lp1113
S'C1L8Y1'
p1114
aS'C4Q500'
p1115
asS'2.30.170.20'
p1116
(lp1117
S'G4VJ44'
p1118
aS'B3GUS5'
p1119
asS'3.40.50.10320'
p1120
(lp1121
S'G4V821'
p1122
aS'Q5D8W3'
p1123
asS'1.20.5.350'
p1124
(lp1125
S'C1LDC4'
p1126
aS'G4LYF7'
p1127
asS'3.30.530.20'
p1128
(lp1129
S'C4Q6H2'
p1130
aS'C1L8Q1'
p1131
asS'2.60.120.200'
p1132
(lp1133
S'C1L9B0'
p1134
aS'C4Q5I7'
p1135
asS'2.70.40.10'
p1136
(lp1137
S'C1L7G7'
p1138
aS'G4V790'
p1139
asS'4.10.1240.10'
p1140
(lp1141
S'G4LWU3'
p1142
asS'3.90.110.10'
p1143
(lp1144
S'C1L7C9'
p1145
aS'G4M189'
p1146
asS'1.20.200.10'
p1147
(lp1148
S'G4LVG5'
p1149
aS'Q5BTN6'
p1150
asS'3.40.605.10'
p1151
(lp1152
S'Q26538'
p1153
aS'Q3KZ91'
p1154
asS'3.90.1800.10'
p1155
(lp1156
S'G4VEG3'
p1157
aS'C1LF25'
p1158
asS'2.60.350.10'
p1159
(lp1160
S'Q5BYL9'
p1161
aS'G4LVP9'
p1162
asS'3.30.1360.10'
p1163
(lp1164
S'G4VFR0'
p1165
aS'C1L6J4'
p1166
asS'3.40.50.10730'
p1167
(lp1168
S'G4VR32'
p1169
asS'2.60.40.420'
p1170
(lp1171
S'Q9MEU5'
p1172
aS'G9B0Z9'
p1173
aS'G4V8F0'
p1174
asS'2.60.120.430'
p1175
(lp1176
S'G4V5M2'
p1177
aS'B5B7Q1'
p1178
asS'3.90.25.10'
p1179
(lp1180
S'C1L6L8'
p1181
aS'C1M169'
p1182
asS'3.90.1170.20'
p1183
(lp1184
S'C1L631'
p1185
asS'1.20.1270.50'
p1186
(lp1187
S'Q5BZ38'
p1188
aS'G4M0J4'
p1189
asS'1.10.1090.10'
p1190
(lp1191
S'G4VQ59'
p1192
aS'Q86EV2'
p1193
asS'3.30.160.190'
p1194
(lp1195
S'G4VNZ5'
p1196
aS'Q5DED6'
p1197
asS'1.10.640.10'
p1198
(lp1199
S'G4VLK0'
p1200
aS'Q5C3T6'
p1201
asS'1.10.1060.10'
p1202
(lp1203
S'Q5DAK2'
p1204
aS'G4V5U2'
p1205
asS'3.30.1370.60'
p1206
(lp1207
S'G4V698'
p1208
aS'Q5DB34'
p1209
asS'3.40.250.10'
p1210
(lp1211
S'G4V5X6'
p1212
aS'C1L7E1'
p1213
asS'3.60.15.10'
p1214
(lp1215
S'G4LZQ3'
p1216
aS'B3GUV8'
p1217
asS'3.10.100.10'
p1218
(lp1219
S'G4M0Q3'
p1220
aS'Q5BVN7'
p1221
asS'1.10.268.10'
p1222
(lp1223
S'G4VPA9'
p1224
asS'2.10.90.10'
p1225
(lp1226
S'G9B6P3'
p1227
aS'A4UAH0'
p1228
asS'1.10.287.10'
p1229
(lp1230
S'Q5DHC1'
p1231
aS'G4VCG6'
p1232
asS'3.30.160.60'
p1233
(lp1234
S'Q5BVX4'
p1235
aS'G4VAH7'
p1236
asS'2.20.110.10'
p1237
(lp1238
S'G4LXF4'
p1239
aS'Q5DCE0'
p1240
asS'1.20.1340.10'
p1241
(lp1242
S'Q5BVX9'
p1243
aS'G4LVM4'
p1244
asS'3.40.50.10380'
p1245
(lp1246
S'G4VPZ9'
p1247
aS'Q5BX10'
p1248
asS'3.30.1490.10'
p1249
(lp1250
S'G4VGR1'
p1251
aS'C1LBQ1'
p1252
asS'2.30.30.40'
p1253
(lp1254
S'G4LZX2'
p1255
aS'B3GUP4'
p1256
asS'2.30.39.10'
p1257
(lp1258
S'G4LYU5'
p1259
aS'B3W658'
p1260
aS'Q26502'
p1261
asS'3.20.20.80'
p1262
(lp1263
S'C1L466'
p1264
aS'G4LY49'
p1265
asS'2.102.10.10'
p1266
(lp1267
S'G4VNI0'
p1268
aS'B3GUZ5'
p1269
asS'3.30.54.20'
p1270
(lp1271
S'G4V6P2'
p1272
asS'3.40.50.1780'
p1273
(lp1274
S'G4V773'
p1275
aS'Q5BYR2'
p1276
asS'3.30.1330.20'
p1277
(lp1278
S'C4Q4S5'
p1279
aS'Q5FYA5'
p1280
aS'C1L471'
p1281
asS'1.10.455.10'
p1282
(lp1283
S'G4V605'
p1284
aS'C1LAD5'
p1285
asS'3.40.120.10'
p1286
(lp1287
S'C4QPU4'
p1288
aS'Q5C2A4'
p1289
asS'2.60.20.10'
p1290
(lp1291
S'B3GUT6'
p1292
aS'G4V5X1'
p1293
asS'1.10.1390.10'
p1294
(lp1295
S'C1L6Q2'
p1296
aS'G4VPH5'
p1297
asS'3.30.1120.30'
p1298
(lp1299
S'G4V5L2'
p1300
aS'Q5DEU3'
p1301
asS'1.20.5.440'
p1302
(lp1303
S'Q3KTI0'
p1304
aS'C4QJA1'
p1305
asS'2.130.10.130'
p1306
(lp1307
S'E7BBC3'
p1308
asS'2.70.150.10'
p1309
(lp1310
S'G4M1H5'
p1311
aS'C1LD05'
p1312
asS'3.40.190.10'
p1313
(lp1314
S'D5JEH1'
p1315
aS'Q5C0H2'
p1316
asS'1.10.150.170'
p1317
(lp1318
S'G4LXT3'
p1319
asS'3.30.70.100'
p1320
(lp1321
S'Q5BQT7'
p1322
aS'G4VGF2'
p1323
asS'1.10.150.80'
p1324
(lp1325
S'G4V5P6'
p1326
aS'C1LHK1'
p1327
asS'3.30.310.50'
p1328
(lp1329
S'Q5DF02'
p1330
aS'C4QPU4'
p1331
asS'2.60.40.1330'
p1332
(lp1333
S'Q3KZB1'
p1334
aS'C4QII1'
p1335
asS'3.40.640.10'
p1336
(lp1337
S'A7UAX6'
p1338
aS'Q5C258'
p1339
asS'3.90.1180.10'
p1340
(lp1341
S'G4VGE1'
p1342
aS'C1LJK3'
p1343
asS'2.20.25.10'
p1344
(lp1345
S'C1LEQ0'
p1346
aS'G4LVZ6'
p1347
asS'3.40.309.10'
p1348
(lp1349
S'G4M1B6'
p1350
aS'C1LF69'
p1351
asS'3.20.20.300'
p1352
(lp1353
S'G4VRX3'
p1354
asS'3.30.70.850'
p1355
(lp1356
S'G4V878'
p1357
aS'C1LEI4'
p1358
asS'1.10.880.10'
p1359
(lp1360
S'B3GUW6'
p1361
aS'G4VT11'
p1362
asS'2.40.150.20'
p1363
(lp1364
S'G4V5P4'
p1365
aS'C1LC14'
p1366
asS'3.30.450.30'
p1367
(lp1368
S'C1LAS8'
p1369
aS'G4LWW9'
p1370
asS'3.30.2240.10'
p1371
(lp1372
S'Q5DGH0'
p1373
aS'G4LZ61'
p1374
asS'1.20.5.990'
p1375
(lp1376
S'Q5C1L8'
p1377
aS'G4VFK5'
p1378
asS'1.20.1640.10'
p1379
(lp1380
S'Q5C0X8'
p1381
aS'G4M1J9'
p1382
asS'3.40.50.2020'
p1383
(lp1384
S'C1L5R6'
p1385
aS'G4LWP0'
p1386
asS'3.30.450.70'
p1387
(lp1388
S'C1L6V6'
p1389
aS'G4M0H2'
p1390
asS'3.30.460.10'
p1391
(lp1392
S'G4LV53'
p1393
aS'C1L668'
p1394
asS'1.10.1280.10'
p1395
(lp1396
S'G4LWK1'
p1397
aS'H6QX60'
p1398
asS'2.60.40.650'
p1399
(lp1400
S'G4V8I5'
p1401
asS'1.10.8.10'
p1402
(lp1403
S'G4LYJ0'
p1404
aS'C1L4T5'
p1405
asS'2.40.30.10'
p1406
(lp1407
S'G4LUY4'
p1408
aS'Q5BTN1'
p1409
asS'1.10.645.10'
p1410
(lp1411
S'G4LUI6'
p1412
aS'C1L4W6'
p1413
asS'1.10.287.990'
p1414
(lp1415
S'G4VSQ5'
p1416
aS'Q5DGW3'
p1417
asS'1.10.287.620'
p1418
(lp1419
S'C1LF04'
p1420
aS'G4LVL7'
p1421
asS'3.40.710.10'
p1422
(lp1423
S'G4VKT6'
p1424
aS'Q5BXM2'
p1425
asS'3.30.70.600'
p1426
(lp1427
S'G4LUY8'
p1428
aS'B3W655'
p1429
asS'2.60.200.20'
p1430
(lp1431
S'C1L717'
p1432
aS'C4QMA9'
p1433
asS'3.30.860.10'
p1434
(lp1435
S'C1LBQ7'
p1436
aS'G4VJN9'
p1437
asS'3.90.1770.10'
p1438
(lp1439
S'G4VJ84'
p1440
asS'3.40.50.740'
p1441
(lp1442
S'G4LUK7'
p1443
aS'Q5BXF5'
p1444
asS'1.20.20.10'
p1445
(lp1446
S'G4V5T1'
p1447
aS'B5B7Q4'
p1448
asS'1.10.287.470'
p1449
(lp1450
S'G4V8A2'
p1451
aS'C1LFJ8'
p1452
asS'3.30.1380.10'
p1453
(lp1454
S'Q5C1N4'
p1455
aS'G4VHZ0'
p1456
asS'2.40.30.110'
p1457
(lp1458
S'G4V9G0'
p1459
asS'1.10.540.10'
p1460
(lp1461
S'G4VCG4'
p1462
asS'3.30.559.10'
p1463
(lp1464
S'G4LZ03'
p1465
aS'C1L595'
p1466
asS'2.20.28.20'
p1467
(lp1468
S'G4VFQ2'
p1469
asS'2.160.20.50'
p1470
(lp1471
S'Q5C132'
p1472
aS'G4VMK7'
p1473
asS'1.20.245.10'
p1474
(lp1475
S'Q5C0R3'
p1476
aS'G4V9T8'
p1477
asS'4.10.45.10'
p1478
(lp1479
S'G4LUA6'
p1480
asS'1.25.40.20'
p1481
(lp1482
S'G4LZI1'
p1483
aS'C1LDV1'
p1484
asS'1.10.10.140'
p1485
(lp1486
S'C4Q820'
p1487
aS'C1LM95'
p1488
asS'1.20.120.80'
p1489
(lp1490
S'Q1I0P3'
p1491
aS'B3W653'
p1492
aS'Q9B8X4'
p1493
asS'2.60.120.650'
p1494
(lp1495
S'Q5BVZ4'
p1496
aS'G4M088'
p1497
asS'1.20.120.430'
p1498
(lp1499
S'Q5C7J6'
p1500
asS'3.90.170.10'
p1501
(lp1502
S'C4QCD2'
p1503
aS'Q5D8V5'
p1504
asS'3.30.420.80'
p1505
(lp1506
S'G4VH52'
p1507
aS'C1L722'
p1508
asS'3.40.50.360'
p1509
(lp1510
S'C1L3S0'
p1511
aS'G4LUL4'
p1512
asS'1.20.1270.10'
p1513
(lp1514
S'Q5BYZ1'
p1515
aS'Q9BHK5'
p1516
asS'3.30.70.1170'
p1517
(lp1518
S'G4LZF7'
p1519
aS'Q5BX76'
p1520
asS'1.10.1450.10'
p1521
(lp1522
S'C4Q3U8'
p1523
aS'A5JP10'
p1524
aS'Q26499'
p1525
asS'3.40.470.10'
p1526
(lp1527
S'C1LEA8'
p1528
aS'G4VHI3'
p1529
asS'1.10.560.10'
p1530
(lp1531
S'G4LWI2'
p1532
aS'B3GUU3'
p1533
asS'4.10.950.10'
p1534
(lp1535
S'C1LBJ5'
p1536
aS'G4LY29'
p1537
asS'3.40.50.1220'
p1538
(lp1539
S'G4VCC3'
p1540
aS'C1LH17'
p1541
asS'3.30.70.20'
p1542
(lp1543
S'G4LXI8'
p1544
aS'C1LE80'
p1545
asS'1.20.5.540'
p1546
(lp1547
S'Q5DC80'
p1548
aS'G4V7H1'
p1549
asS'1.20.5.260'
p1550
(lp1551
S'C1LRY2'
p1552
asS'3.30.342.10'
p1553
(lp1554
S'G4LZ59'
p1555
asS'3.30.110.30'
p1556
(lp1557
S'G4VLU3'
p1558
aS'Q5C5I9'
p1559
asS'3.40.50.620'
p1560
(lp1561
S'C1M0Q2'
p1562
aS'C1L4K4'
p1563
asS'3.90.15.10'
p1564
(lp1565
S'Q5BXE0'
p1566
aS'G4VRF9'
p1567
asS'1.10.150.50'
p1568
(lp1569
S'C1L583'
p1570
aS'G4LWA5'
p1571
asS'3.30.1490.70'
p1572
(lp1573
S'G4LYZ4'
p1574
aS'C1LDV7'
p1575
asS'1.10.510.10'
p1576
(lp1577
S'B3GUQ1'
p1578
aS'C4QJA8'
p1579
aS'D2JVC2'
p1580
asS'1.20.1250.20'
p1581
(lp1582
S'C4PYV9'
p1583
aS'C1L540'
p1584
asS'1.20.1540.10'
p1585
(lp1586
S'C1L484'
p1587
aS'G4V8F3'
p1588
asS'2.10.310.10'
p1589
(lp1590
S'G4LZN2'
p1591
aS'Q5D935'
p1592
asS'3.30.50.10'
p1593
(lp1594
S'Q5C527'
p1595
aS'G4VD34'
p1596
asS'3.10.450.50'
p1597
(lp1598
S'G4VJI9'
p1599
aS'C1L4X9'
p1600
asS'3.40.50.1580'
p1601
(lp1602
S'G4LWY0'
p1603
aS'C1L5G7'
p1604
asS'3.30.1370.10'
p1605
(lp1606
S'G4LYQ9'
p1607
aS'C1L3W5'
p1608
asS'3.40.50.980'
p1609
(lp1610
S'C1LFE4'
p1611
aS'G4VQY9'
p1612
asS'4.10.49.10'
p1613
(lp1614
S'C1L8Z5'
p1615
aS'G4VSZ8'
p1616
asS'3.40.20.10'
p1617
(lp1618
S'G4LX89'
p1619
aS'C1L4C4'
p1620
asS'3.90.120.10'
p1621
(lp1622
S'G4LX14'
p1623
asS'3.90.1600.10'
p1624
(lp1625
S'Q5BZ17'
p1626
aS'G4LX42'
p1627
asS'1.10.132.20'
p1628
(lp1629
S'Q5C425'
p1630
asS'3.30.170.10'
p1631
(lp1632
S'C1LJY4'
p1633
aS'G4VHW3'
p1634
asS'2.70.170.10'
p1635
(lp1636
S'A6QL44'
p1637
aS'Q5BQU5'
p1638
aS'C4Q9B3'
p1639
asS'1.10.287.650'
p1640
(lp1641
S'Q5C6Q6'
p1642
aS'C4QTS1'
p1643
asS'1.10.3210.10'
p1644
(lp1645
S'C1LE10'
p1646
aS'G4VCL3'
p1647
asS'3.30.1490.20'
p1648
(lp1649
S'C1L4E9'
p1650
aS'G4LX99'
p1651
asS'1.20.140.10'
p1652
(lp1653
S'Q5BYZ5'
p1654
aS'G4VCG4'
p1655
asS'1.20.1560.10'
p1656
(lp1657
S'Q5C7Z5'
p1658
aS'D5LRV4'
p1659
asS'3.40.367.20'
p1660
(lp1661
S'G4VIV9'
p1662
aS'Q5DEN8'
p1663
asS'4.10.280.30'
p1664
(lp1665
S'Q5C6B6'
p1666
asS'4.10.260.10'
p1667
(lp1668
S'G4M241'
p1669
aS'C1LEC0'
p1670
asS'3.90.80.10'
p1671
(lp1672
S'Q5DE13'
p1673
aS'G4VPE8'
p1674
asS'3.40.50.450'
p1675
(lp1676
S'G4LW05'
p1677
aS'Q5C1U5'
p1678
asS'4.10.1130.10'
p1679
(lp1680
S'G4V5Z2'
p1681
asS'2.60.40.1180'
p1682
(lp1683
S'C1L537'
p1684
aS'G4V966'
p1685
asS'3.30.60.20'
p1686
(lp1687
S'G4VS77'
p1688
aS'Q5BWW9'
p1689
asS'2.30.42.10'
p1690
(lp1691
S'B3GUZ0'
p1692
aS'G4LWH3'
p1693
asS'3.30.470.30'
p1694
(lp1695
S'G4VBV7'
p1696
aS'Q5BZ60'
p1697
asS'3.30.70.250'
p1698
(lp1699
S'G4M0A2'
p1700
aS'C7TXZ9'
p1701
asS'3.40.140.10'
p1702
(lp1703
S'G4V9Y6'
p1704
aS'C1LJX2'
p1705
asS'3.40.50.1000'
p1706
(lp1707
S'C1LFI7'
p1708
aS'C4Q4J8'
p1709
asS'1.10.1070.11'
p1710
(lp1711
S'G4VP29'
p1712
aS'Q5C0W1'
p1713
asS'3.90.1100.10'
p1714
(lp1715
S'G4VQP1'
p1716
aS'C1LF25'
p1717
asS'3.40.50.10490'
p1718
(lp1719
S'G4VAS0'
p1720
aS'C1LA78'
p1721
asS'3.40.50.1360'
p1722
(lp1723
S'G4LUQ5'
p1724
aS'C1LEM3'
p1725
asS'2.10.60.10'
p1726
(lp1727
S'C1L622'
p1728
aS'B8Y6H3'
p1729
asS'3.30.1330.30'
p1730
(lp1731
S'G4LUJ5'
p1732
aS'C1L7Y8'
p1733
asS'2.160.20.10'
p1734
(lp1735
S'G4V6K6'
p1736
asS'3.40.225.10'
p1737
(lp1738
S'Q5C1F6'
p1739
aS'G4V775'
p1740
asS'1.50.10.20'
p1741
(lp1742
S'G4VI00'
p1743
aS'Q5BZH7'
p1744
asS'3.60.20.30'
p1745
(lp1746
S'G4V9Q9'
p1747
aS'Q5DGG1'
p1748
asS'3.30.500.10'
p1749
(lp1750
S'D2SY10'
p1751
asS'3.30.750.24'
p1752
(lp1753
S'G4VIT5'
p1754
aS'Q5C5W4'
p1755
asS'2.60.200.10'
p1756
(lp1757
S'C1LFV7'
p1758
aS'G4V9S6'
p1759
asS'2.120.10.80'
p1760
(lp1761
S'Q5C3Q6'
p1762
aS'G4V9Y9'
p1763
asS'3.10.10.10'
p1764
(lp1765
S'G4VK73'
p1766
aS'Q5BRL7'
p1767
asS'2.40.20.10'
p1768
(lp1769
S'G4LX52'
p1770
asS'3.30.499.10'
p1771
(lp1772
S'G4VMI0'
p1773
aS'Q5BXP5'
p1774
asS'2.60.260.40'
p1775
(lp1776
S'C1M0L1'
p1777
aS'Q5DC02'
p1778
asS'3.10.600.10'
p1779
(lp1780
S'G4V7Q4'
p1781
aS'Q5DFC2'
p1782
asS'3.20.20.60'
p1783
(lp1784
S'G4VAH9'
p1785
aS'Q5C2V0'
p1786
asS'1.20.5.190'
p1787
(lp1788
S'C1M0Q9'
p1789
aS'Q5D903'
p1790
asS'1.20.58.390'
p1791
(lp1792
S'A6QL44'
p1793
aS'G4VGC1'
p1794
aS'Q5DEI5'
p1795
asS'3.40.50.410'
p1796
(lp1797
S'G4VPZ8'
p1798
aS'C1LNP9'
p1799
asS'1.10.246.20'
p1800
(lp1801
S'G4VEQ5'
p1802
asS'3.60.120.10'
p1803
(lp1804
S'Q5BRM4'
p1805
asS'4.10.400.10'
p1806
(lp1807
S'G4LZA8'
p1808
aS'Q9U8F4'
p1809
asS'3.40.850.10'
p1810
(lp1811
S'C4Q3A1'
p1812
aS'C7TZG7'
p1813
asS'1.10.490.10'
p1814
(lp1815
S'B3GUR1'
p1816
aS'G4LZC6'
p1817
asS'3.40.50.80'
p1818
(lp1819
S'Q5D9L4'
p1820
aS'G4LUL4'
p1821
asS'3.40.50.670'
p1822
(lp1823
S'G4VPA9'
p1824
asS'1.10.1300.10'
p1825
(lp1826
S'Q5BYM4'
p1827
aS'G4LUV5'
p1828
asS'2.140.10.30'
p1829
(lp1830
S'G4LZX1'
p1831
aS'Q5C544'
p1832
asS'1.25.40.190'
p1833
(lp1834
S'G4V6Z7'
p1835
aS'B3GUW2'
p1836
asS'2.40.40.20'
p1837
(lp1838
S'G4M0P6'
p1839
aS'C1LF61'
p1840
asS'3.90.550.10'
p1841
(lp1842
S'G4LUT9'
p1843
aS'C1L3U3'
p1844
asS'1.25.10.20'
p1845
(lp1846
S'G4LYV7'
p1847
asS'2.70.98.20'
p1848
(lp1849
S'G4VGX8'
p1850
asS'3.40.50.1260'
p1851
(lp1852
S'C1LAI8'
p1853
aS'G4VG19'
p1854
asS'3.40.910.10'
p1855
(lp1856
S'G4VCR2'
p1857
aS'Q3KTG9'
p1858
asS'3.30.1380.20'
p1859
(lp1860
S'C1L4I1'
p1861
aS'G4V9C2'
p1862
asS'1.10.287.90'
p1863
(lp1864
S'G9B0Z9'
p1865
aS'Q9MD49'
p1866
asS'3.10.250.10'
p1867
(lp1868
S'G4V6Q5'
p1869
asS'1.20.5.220'
p1870
(lp1871
S'C1L9N2'
p1872
asS'3.30.1320.10'
p1873
(lp1874
S'Q5DEQ7'
p1875
aS'G4LV29'
p1876
asS'3.30.70.60'
p1877
(lp1878
S'G4VNA1'
p1879
aS'C1LNE5'
p1880
asS'2.40.50.140'
p1881
(lp1882
S'C1L3R9'
p1883
aS'G4LXC4'
p1884
asS'1.20.5.340'
p1885
(lp1886
S'G4LWJ0'
p1887
aS'C1LDB4'
p1888
aS'A5A6F8'
p1889
asS'3.40.50.10330'
p1890
(lp1891
S'G4LVU2'
p1892
aS'C1LJ80'
p1893
asS'3.40.449.10'
p1894
(lp1895
S'G4V721'
p1896
aS'Q5DGF3'
p1897
asS'3.40.50.1460'
p1898
(lp1899
S'G4VD88'
p1900
aS'Q5BXY2'
p1901
asS'2.60.120.230'
p1902
(lp1903
S'G4VCA0'
p1904
aS'C1LS63'
p1905
asS'1.10.3520.10'
p1906
(lp1907
S'C1LFI2'
p1908
aS'C1M142'
p1909
asS'2.60.11.10'
p1910
(lp1911
S'C1L926'
p1912
aS'C4Q308'
p1913
asS'1.20.1070.10'
p1914
(lp1915
S'C1LEE2'
p1916
aS'C4QJX8'
p1917
asS'2.40.100.10'
p1918
(lp1919
S'C4QM49'
p1920
aS'C1L4K1'
p1921
asS'3.30.70.340'
p1922
(lp1923
S'C4N149'
p1924
aS'C4QKW6'
p1925
asS'3.30.56.10'
p1926
(lp1927
S'Q5DGS2'
p1928
aS'G4LV70'
p1929
asS'1.20.120.150'
p1930
(lp1931
S'G4VCG1'
p1932
asS'3.40.50.700'
p1933
(lp1934
S'G4V5Q1'
p1935
aS'C1LJN9'
p1936
asS'3.20.20.105'
p1937
(lp1938
S'C1L6J9'
p1939
aS'G4VDV6'
p1940
asS'3.10.450.10'
p1941
(lp1942
S'C1LAB5'
p1943
aS'B8Y6H4'
p1944
asS'3.90.1170.10'
p1945
(lp1946
S'C1LTH2'
p1947
aS'G4M0K4'
p1948
asS'3.20.70.20'
p1949
(lp1950
S'G4VIG3'
p1951
aS'C7TZG4'
p1952
asS'3.40.50.1820'
p1953
(lp1954
S'Q86GL8'
p1955
aS'C4QK30'
p1956
aS'C1L3S3'
p1957
asS'4.10.900.10'
p1958
(lp1959
S'G4VKX3'
p1960
asS'3.30.300.30'
p1961
(lp1962
S'Q5BS93'
p1963
aS'G4LY16'
p1964
asS'1.20.5.490'
p1965
(lp1966
S'C4Q5J3'
p1967
aS'Q5DAS4'
p1968
asS'3.30.40.10'
p1969
(lp1970
S'B3GUZ8'
p1971
aS'C4QU04'
p1972
asS'3.90.700.10'
p1973
(lp1974
S'G4LY63'
p1975
aS'Q5DE07'
p1976
asS'1.10.8.50'
p1977
(lp1978
S'G4VH28'
p1979
aS'Q5DAC4'
p1980
asS'1.10.30.10'
p1981
(lp1982
S'Q6Q478'
p1983
aS'C1LF99'
p1984
aS'G4LV66'
p1985
asS'3.30.760.10'
p1986
(lp1987
S'G4VCF5'
p1988
aS'Q5DGB4'
p1989
asS'1.20.1050.10'
p1990
(lp1991
S'C1LCH6'
p1992
aS'G4LV03'
p1993
aS'P30114'
p1994
asS'3.90.228.10'
p1995
(lp1996
S'G4M0L0'
p1997
aS'Q5BW72'
p1998
asS'3.40.950.10'
p1999
(lp2000
S'G4V773'
p2001
asS'2.170.190.11'
p2002
(lp2003
S'G4LZ84'
p2004
asS'3.40.50.170'
p2005
(lp2006
S'Q5BZJ0'
p2007
aS'G4LX97'
p2008
asS'2.20.100.10'
p2009
(lp2010
S'G4VGP2'
p2011
aS'Q5BWB5'
p2012
asS'2.30.30.160'
p2013
(lp2014
S'Q5BWU5'
p2015
aS'G4LWC7'
p2016
asS'3.40.50.10190'
p2017
(lp2018
S'G4V908'
p2019
aS'C1LG27'
p2020
asS'3.40.30.10'
p2021
(lp2022
S'B3GUT5'
p2023
aS'P30114'
p2024
aS'C4QPB5'
p2025
asS'3.10.120.10'
p2026
(lp2027
S'G4V9R2'
p2028
aS'C1LFE1'
p2029
asS'3.40.190.80'
p2030
(lp2031
S'G4VTV1'
p2032
aS'C1L4U6'
p2033
asS'3.90.810.10'
p2034
(lp2035
S'G4M136'
p2036
asS'1.20.210.10'
p2037
(lp2038
S'C5I6T0'
p2039
aS'B2D0Q6'
p2040
aS'B0FNB5'
p2041
asS'1.10.150.20'
p2042
(lp2043
S'C1LDH2'
p2044
aS'G4LWC6'
p2045
asS'1.20.1060.10'
p2046
(lp2047
S'G4VND8'
p2048
asS'1.10.579.10'
p2049
(lp2050
S'G4LVC5'
p2051
aS'C1LEH0'
p2052
asS'2.60.40.150'
p2053
(lp2054
S'C1L4J4'
p2055
aS'G4LWG8'
p2056
asS'1.20.120.330'
p2057
(lp2058
S'G4V5E4'
p2059
aS'C1L490'
p2060
aS'A5A6F8'
p2061
asS'3.40.800.20'
p2062
(lp2063
S'A5H658'
p2064
aS'C1LDW8'
p2065
asS'3.40.1380.10'
p2066
(lp2067
S'G4LVB7'
p2068
aS'C1LBB8'
p2069
asS'3.30.930.10'
p2070
(lp2071
S'C1M2T7'
p2072
aS'C1L3N2'
p2073
asS'1.20.5.450'
p2074
(lp2075
S'C1LD79'
p2076
aS'G4VND0'
p2077
asS'3.30.200.20'
p2078
(lp2079
S'C1L7H5'
p2080
aS'C4QMU7'
p2081
aS'D2JVC2'
p2082
asS'1.10.260.30'
p2083
(lp2084
S'G4VKV4'
p2085
aS'C7TXS6'
p2086
asS'3.40.1080.10'
p2087
(lp2088
S'G4V5J1'
p2089
aS'Q5D9U6'
p2090
asS'1.10.3260.10'
p2091
(lp2092
S'G4LYZ4'
p2093
aS'Q5C3W5'
p2094
asS'3.20.20.120'
p2095
(lp2096
S'P33676'
p2097
aS'G4LYE2'
p2098
asS'1.10.1650.10'
p2099
(lp2100
S'G4LVM3'
p2101
aS'C1LDT1'
p2102
asS'3.40.718.10'
p2103
(lp2104
S'G4LUW3'
p2105
aS'C1L761'
p2106
asS'1.20.58.120'
p2107
(lp2108
S'G4V7I5'
p2109
aS'B3W677'
p2110
asS'3.90.520.10'
p2111
(lp2112
S'A4VC64'
p2113
aS'Q5C305'
p2114
asS'1.10.150.240'
p2115
(lp2116
S'Q5D9I2'
p2117
asS'1.10.620.20'
p2118
(lp2119
S'Q5BRK1'
p2120
aS'C4QCA2'
p2121
asS'1.10.600.10'
p2122
(lp2123
S'C1M0K9'
p2124
aS'C1L545'
p2125
asS'3.30.1360.20'
p2126
(lp2127
S'G4VKX2'
p2128
aS'Q86E70'
p2129
asS'1.20.5.390'
p2130
(lp2131
S'C1L512'
p2132
aS'G4VFR2'
p2133
asS'2.40.240.10'
p2134
(lp2135
S'C1L4U3'
p2136
aS'G4V8J0'
p2137
asS'3.30.830.10'
p2138
(lp2139
S'C4Q011'
p2140
aS'Q5C111'
p2141
asS'2.20.70.10'
p2142
(lp2143
S'C1LFT4'
p2144
aS'G4V956'
p2145
asS'3.40.366.10'
p2146
(lp2147
S'G4M0A2'
p2148
aS'Q5BZU2'
p2149
asS'3.80.20.20'
p2150
(lp2151
S'G4VEU5'
p2152
aS'Q5BR80'
p2153
asS'4.10.1250.10'
p2154
(lp2155
S'G4V9G0'
p2156
asS'1.20.810.10'
p2157
(lp2158
S'Q1I0P2'
p2159
aS'B0FNB8'
p2160
aS'I6LB10'
p2161
asS'1.20.140.20'
p2162
(lp2163
S'Q5BXW9'
p2164
aS'G4V9U6'
p2165
asS'3.30.310.80'
p2166
(lp2167
S'C4QUG1'
p2168
aS'Q5BWC8'
p2169
asS'3.30.450.20'
p2170
(lp2171
S'G4VT54'
p2172
aS'Q5DAD6'
p2173
asS'3.40.50.1760'
p2174
(lp2175
S'G4VNT9'
p2176
aS'C1L3Q0'
p2177
asS'3.90.420.10'
p2178
(lp2179
S'G4V8I5'
p2180
asS'2.40.340.10'
p2181
(lp2182
S'G4LZ83'
p2183
aS'Q5DGM2'
p2184
asS'3.40.1370.10'
p2185
(lp2186
S'G4V6B7'
p2187
aS'C1L880'
p2188
asS'3.30.70.360'
p2189
(lp2190
S'C4Q2I8'
p2191
asS'2.10.110.10'
p2192
(lp2193
S'C1L3Q6'
p2194
aS'G4LVB2'
p2195
asS'3.20.140.10'
p2196
(lp2197
S'G4VE80'
p2198
aS'Q5C0H3'
p2199
asS'3.30.505.10'
p2200
(lp2201
S'G4LVC3'
p2202
aS'Q5BVT1'
p2203
asS'3.20.20.220'
p2204
(lp2205
S'C7TYZ6'
p2206
aS'G4VHM2'
p2207
asS'3.60.21.10'
p2208
(lp2209
S'C1LZY9'
p2210
aS'B3W654'
p2211
asS'3.30.390.30'
p2212
(lp2213
S'G4LX00'
p2214
aS'B5THG7'
p2215
asS'4.10.1080.10'
p2216
(lp2217
S'Q6TA37'
p2218
aS'Q5C1H8'
p2219
asS'2.10.70.10'
p2220
(lp2221
S'C1LG80'
p2222
aS'C4QRP9'
p2223
asS'2.60.34.10'
p2224
(lp2225
S'C4QFY0'
p2226
aS'B3GUU7'
p2227
asS'3.40.220.10'
p2228
(lp2229
S'G4V945'
p2230
aS'C1L4X7'
p2231
asS'1.50.10.10'
p2232
(lp2233
S'C1L5F2'
p2234
aS'G4M1X2'
p2235
asS'3.30.1140.32'
p2236
(lp2237
S'C4Q4Q6'
p2238
aS'C1LC22'
p2239
asS'4.10.410.10'
p2240
(lp2241
S'G4VBB1'
p2242
aS'C1L478'
p2243
asS'3.40.1440.10'
p2244
(lp2245
S'Q5BX83'
p2246
aS'G4VIY0'
p2247
asS'3.30.70.380'
p2248
(lp2249
S'G4VKS1'
p2250
aS'Q5C108'
p2251
asS'3.40.50.300'
p2252
(lp2253
S'A1XBS0'
p2254
aS'C1M0V8'
p2255
asS'1.20.190.20'
p2256
(lp2257
S'B3GUU0'
p2258
aS'G4LUI7'
p2259
asS'1.20.5.300'
p2260
(lp2261
S'Q5BWS7'
p2262
asS'3.90.660.10'
p2263
(lp2264
S'G4VDC3'
p2265
aS'Q5C5E5'
p2266
asS'1.20.1000.10'
p2267
(lp2268
S'C1L3W9'
p2269
aS'G4VPP5'
p2270
asS'1.25.40.120'
p2271
(lp2272
S'G4LUP4'
p2273
aS'B5M6Z9'
p2274
asS'2.30.30.360'
p2275
(lp2276
S'C7TZG8'
p2277
aS'G4VPS2'
p2278
asS'3.30.519.10'
p2279
(lp2280
S'G4VC25'
p2281
aS'C1LEP2'
p2282
asS'1.10.720.30'
p2283
(lp2284
S'C1L4Y5'
p2285
aS'G4VN50'
p2286
asS'1.20.5.930'
p2287
(lp2288
S'Q5C1T9'
p2289
aS'C4PYZ0'
p2290
asS'2.60.40.200'
p2291
(lp2292
S'G4M0C9'
p2293
aS'C1L8R5'
p2294
asS'2.60.40.360'
p2295
(lp2296
S'G4LVE3'
p2297
aS'C1L8W1'
p2298
asS'1.20.1600.10'
p2299
(lp2300
S'C4QB33'
p2301
aS'Q5BVG4'
p2302
asS'2.40.10.10'
p2303
(lp2304
S'Q8MUV5'
p2305
aS'G4M1L5'
p2306
aS'Q5BSE6'
p2307
asS'3.10.129.10'
p2308
(lp2309
S'G4V9Z7'
p2310
aS'C1L5N4'
p2311
asS'1.10.287.380'
p2312
(lp2313
S'G4M0N7'
p2314
aS'Q5C1B6'
p2315
asS'3.40.1110.10'
p2316
(lp2317
S'Q3KZH9'
p2318
aS'C4QPU0'
p2319
asS'3.20.19.10'
p2320
(lp2321
S'G4VMI0'
p2322
aS'C1L4H1'
p2323
asS'3.30.572.10'
p2324
(lp2325
S'Q5DEB3'
p2326
aS'G4V8Q8'
p2327
asS'2.10.25.10'
p2328
(lp2329
S'C1M2U2'
p2330
aS'C1L3R7'
p2331
asS'1.25.10.10'
p2332
(lp2333
S'C4Q4S4'
p2334
aS'C1L4C9'
p2335
asS'3.40.50.800'
p2336
(lp2337
S'Q5BSM0'
p2338
aS'C1M0L0'
p2339
asS'1.10.287.140'
p2340
(lp2341
S'G4LYZ1'
p2342
aS'C1L6B7'
p2343
asS'3.50.50.60'
p2344
(lp2345
S'C4QJB2'
p2346
aS'C1L4K0'
p2347
asS'1.10.287.40'
p2348
(lp2349
S'G4V8U6'
p2350
aS'C1LMG6'
p2351
asS'3.20.20.140'
p2352
(lp2353
S'C1LE16'
p2354
aS'G4LVD7'
p2355
asS'1.20.5.270'
p2356
(lp2357
S'G4VNI0'
p2358
aS'B3GUZ5'
p2359
asS'2.40.50.90'
p2360
(lp2361
S'Q5C0Q4'
p2362
aS'C4QP46'
p2363
asS'1.20.5.370'
p2364
(lp2365
S'C1LHX8'
p2366
aS'G4VKJ7'
p2367
asS'1.20.1110.10'
p2368
(lp2369
S'G4M0N6'
p2370
aS'Q5BWL2'
p2371
asS'2.90.20.10'
p2372
(lp2373
S'Q5C3E4'
p2374
aS'G4LZS3'
p2375
asS'2.10.109.10'
p2376
(lp2377
S'C1L6N8'
p2378
aS'G4VGP1'
p2379
asS'1.10.3730.10'
p2380
(lp2381
S'Q5BYJ6'
p2382
aS'G4V8Z5'
p2383
asS'3.40.1180.10'
p2384
(lp2385
S'B3GUV0'
p2386
aS'G4VNU3'
p2387
asS'3.10.50.40'
p2388
(lp2389
S'G4V8N4'
p2390
aS'C1LAW9'
p2391
asS'3.90.1200.10'
p2392
(lp2393
S'Q5BZT8'
p2394
aS'G4VGA6'
p2395
asS'2.60.120.260'
p2396
(lp2397
S'C1LD59'
p2398
aS'G4VDF2'
p2399
asS'3.90.175.10'
p2400
(lp2401
S'G4M196'
p2402
aS'C1L788'
p2403
asS'3.40.1280.10'
p2404
(lp2405
S'O17455'
p2406
aS'Q5DH58'
p2407
asS'3.30.9.10'
p2408
(lp2409
S'C1L3R6'
p2410
aS'G4LWL6'
p2411
asS'2.30.30.100'
p2412
(lp2413
S'C1M0J1'
p2414
aS'C1L4H2'
p2415
asS'3.40.350.10'
p2416
(lp2417
S'G4M1N3'
p2418
aS'C1LFE5'
p2419
asS'1.20.1250.10'
p2420
(lp2421
S'C1LGR4'
p2422
aS'G4LUF7'
p2423
asS'1.10.1370.10'
p2424
(lp2425
S'Q5BYU5'
p2426
aS'G4LW91'
p2427
asS'1.10.1040.10'
p2428
(lp2429
S'C4Q5J8'
p2430
aS'Q5C0T5'
p2431
asS'3.90.1170.40'
p2432
(lp2433
S'C1LFW6'
p2434
asS'3.90.70.10'
p2435
(lp2436
S'A5A6F7'
p2437
aS'B3W652'
p2438
aS'A5GXR8'
p2439
asS'3.50.4.10'
p2440
(lp2441
S'Q5DBB4'
p2442
asS'1.20.990.10'
p2443
(lp2444
S'C1LE85'
p2445
aS'G4LUL4'
p2446
asS'3.30.63.10'
p2447
(lp2448
S'C1L4W2'
p2449
aS'G4LY48'
p2450
asS'3.90.199.10'
p2451
(lp2452
S'G4VPA9'
p2453
asS'1.10.10.60'
p2454
(lp2455
S'C1LE29'
p2456
aS'C4QRY1'
p2457
asS'1.10.8.60'
p2458
(lp2459
S'Q5BW48'
p2460
aS'A9NI52'
p2461
asS'1.10.220.10'
p2462
(lp2463
S'G4LUW8'
p2464
aS'C1L650'
p2465
asS'2.20.140.10'
p2466
(lp2467
S'G4M0L0'
p2468
aS'Q5C0T7'
p2469
asS'1.20.58.60'
p2470
(lp2471
S'Q5BRC3'
p2472
aS'G4V9E7'
p2473
asS'3.30.160.40'
p2474
(lp2475
S'G4VRL5'
p2476
aS'C1LDH1'
p2477
asS'1.10.418.10'
p2478
(lp2479
S'G4LXQ9'
p2480
aS'B3GUZ6'
p2481
asS'1.10.150.210'
p2482
(lp2483
S'Q26545'
p2484
asS'1.20.5.50'
p2485
(lp2486
S'C1L462'
p2487
aS'C1M0V9'
p2488
aS'A5A6F8'
p2489
asS'1.10.442.10'
p2490
(lp2491
S'G4VS06'
p2492
aS'C1LA99'
p2493
asS'3.30.30.30'
p2494
(lp2495
S'C4QFY0'
p2496
aS'B3GUU7'
p2497
asS'3.20.20.210'
p2498
(lp2499
S'G4VSS2'
p2500
aS'C1L3V1'
p2501
asS'3.30.1490.30'
p2502
(lp2503
S'G4VPA9'
p2504
asS'1.20.5.110'
p2505
(lp2506
S'G4LUG3'
p2507
aS'B3GUR4'
p2508
asS'3.10.20.10'
p2509
(lp2510
S'C1LB26'
p2511
asS'3.50.30.30'
p2512
(lp2513
S'G4VDJ3'
p2514
aS'Q5C2X8'
p2515
asS'1.20.142.10'
p2516
(lp2517
S'G4M0L0'
p2518
aS'Q5C0T7'
p2519
asS'3.30.1130.10'
p2520
(lp2521
S'G4VFZ0'
p2522
asS'2.60.15.10'
p2523
(lp2524
S'C4QJA1'
p2525
aS'C1L798'
p2526
asS'3.40.1120.10'
p2527
(lp2528
S'G4LYP0'
p2529
aS'B3GUU2'
p2530
asS'1.10.135.10'
p2531
(lp2532
S'P16641'
p2533
aS'C1LFZ8'
p2534
asS'1.10.1170.10'
p2535
(lp2536
S'C1LAE5'
p2537
aS'G4LZ60'
p2538
asS'3.40.50.1170'
p2539
(lp2540
S'Q5DEJ2'
p2541
aS'G4VJ31'
p2542
asS'1.20.900.10'
p2543
(lp2544
S'Q5BWE4'
p2545
aS'G4LZ97'
p2546
asS'3.30.470.20'
p2547
(lp2548
S'G4V8R8'
p2549
aS'C1LEZ1'
p2550
asS'1.10.1330.10'
p2551
(lp2552
S'Q5DHW4'
p2553
aS'G4VDK5'
p2554
asS'1.10.3270.10'
p2555
(lp2556
S'C1L525'
p2557
aS'C4Q5I9'
p2558
asS'2.30.40.10'
p2559
(lp2560
S'C1L524'
p2561
aS'G4V5P9'
p2562
asS'1.10.1000.11'
p2563
(lp2564
S'C4QNZ8'
p2565
aS'C1LFQ5'
p2566
asS'3.30.300.20'
p2567
(lp2568
S'C4Q4Q6'
p2569
aS'Q5BRF4'
p2570
asS'3.30.70.240'
p2571
(lp2572
S'G4VI96'
p2573
aS'Q5DD28'
p2574
asS'1.10.150.60'
p2575
(lp2576
S'Q5C2V9'
p2577
aS'G4VD19'
p2578
asS'1.10.150.110'
p2579
(lp2580
S'G4VH71'
p2581
aS'Q5C5V9'
p2582
asS'1.10.630.10'
p2583
(lp2584
S'Q5D9Z5'
p2585
aS'G4VF77'
p2586
asS'1.20.890.10'
p2587
(lp2588
S'G4VER9'
p2589
aS'C1LF58'
p2590
asS'3.40.50.1370'
p2591
(lp2592
S'G4VEM7'
p2593
asS'1.10.238.10'
p2594
(lp2595
S'B3GV00'
p2596
aS'A5A6F6'
p2597
aS'C4Q2F2'
p2598
asS'2.60.40.1730'
p2599
(lp2600
S'G4M023'
p2601
aS'Q5BY44'
p2602
asS'3.30.980.10'
p2603
(lp2604
S'G4V6P2'
p2605
aS'Q5C0E7'
p2606
asS'1.10.3090.10'
p2607
(lp2608
S'G4VEK2'
p2609
asS'3.30.710.10'
p2610
(lp2611
S'C1L653'
p2612
aS'C1M0Q4'
p2613
asS'3.30.1490.50'
p2614
(lp2615
S'C1L3Q0'
p2616
aS'G4VNT7'
p2617
asS'2.40.128.20'
p2618
(lp2619
S'G4M130'
p2620
aS'A5A6F5'
p2621
aS'B5B7Q8'
p2622
asS'3.30.70.830'
p2623
(lp2624
S'G4VBZ2'
p2625
aS'Q86FB2'
p2626
asS'3.30.428.10'
p2627
(lp2628
S'C1L7D7'
p2629
aS'G4VBL9'
p2630
asS'3.30.1490.80'
p2631
(lp2632
S'C1L3Q0'
p2633
asS'3.40.50.2000'
p2634
(lp2635
S'G4LVD0'
p2636
aS'C1L4V6'
p2637
asS'3.40.50.1380'
p2638
(lp2639
S'G4VEM7'
p2640
asS'3.65.10.20'
p2641
(lp2642
S'C1LE24'
p2643
aS'G4VP84'
p2644
asS'3.30.230.70'
p2645
(lp2646
S'C1LFQ3'
p2647
aS'G4LX43'
p2648
asS'3.10.490.10'
p2649
(lp2650
S'G4VNF4'
p2651
aS'Q5DCE9'
p2652
asS'2.60.40.320'
p2653
(lp2654
S'G4V8G3'
p2655
asS'1.10.340.30'
p2656
(lp2657
S'G4V5S0'
p2658
aS'Q5BZ67'
p2659
asS'3.30.70.330'
p2660
(lp2661
S'G4LWV3'
p2662
aS'A4GU99'
p2663
asS'3.40.50.1100'
p2664
(lp2665
S'Q5BWI3'
p2666
aS'G4LWZ5'
p2667
asS'3.40.570.10'
p2668
(lp2669
S'G4M111'
p2670
asS'2.60.40.1120'
p2671
(lp2672
S'G4LY69'
p2673
aS'C1LHE2'
p2674
asS'2.60.60.20'
p2675
(lp2676
S'G4V9T7'
p2677
aS'Q5C6I2'
p2678
asS'4.10.270.10'
p2679
(lp2680
S'G4LUH3'
p2681
aS'Q5C356'
p2682
asS'1.10.287.80'
p2683
(lp2684
S'G4LVB6'
p2685
aS'C1LBB8'
p2686
asS'2.60.120.10'
p2687
(lp2688
S'C1L6U9'
p2689
aS'C1M2M7'
p2690
asS'2.170.270.10'
p2691
(lp2692
S'C1L6A2'
p2693
aS'G4LYT0'
p2694
asS'3.90.1300.10'
p2695
(lp2696
S'G4LYL3'
p2697
aS'Q5BWE9'
p2698
asS'2.70.98.30'
p2699
(lp2700
S'Q5D8N0'
p2701
aS'G4M0J4'
p2702
asS'3.30.70.900'
p2703
(lp2704
S'C1L5F0'
p2705
aS'G4VAF5'
p2706
asS'2.160.10.10'
p2707
(lp2708
S'C1L3Y9'
p2709
aS'G4LVH1'
p2710
asS'1.20.930.40'
p2711
(lp2712
S'G4VIQ5'
p2713
asS'3.30.540.10'
p2714
(lp2715
S'G4VTV0'
p2716
aS'C1L4U6'
p2717
asS'2.60.120.380'
p2718
(lp2719
S'G4LXK2'
p2720
aS'A5A6F7'
p2721
aS'C1L4W3'
p2722
asS'1.25.40.40'
p2723
(lp2724
S'G4LUS6'
p2725
aS'C1L628'
p2726
asS'2.40.50.150'
p2727
(lp2728
S'G4VEG3'
p2729
aS'C1LF25'
p2730
asS'1.10.275.10'
p2731
(lp2732
S'G4LVG5'
p2733
aS'A1XA55'
p2734
asS'3.30.1680.10'
p2735
(lp2736
S'G4V6Q4'
p2737
asS'3.40.50.261'
p2738
(lp2739
S'G4LX99'
p2740
aS'Q5BS99'
p2741
asS'1.10.1760.10'
p2742
(lp2743
S'G4VSI1'
p2744
aS'C1L5L1'
p2745
asS'1.20.120.140'
p2746
(lp2747
S'G4VDN9'
p2748
aS'C7TXS6'
p2749
asS'1.10.167.10'
p2750
(lp2751
S'C1LE57'
p2752
aS'G4LY84'
p2753
asS'3.20.200.10'
p2754
(lp2755
S'C1LJ27'
p2756
aS'G4LY39'
p2757
asS'3.40.630.30'
p2758
(lp2759
S'C1L5V5'
p2760
aS'G4V884'
p2761
asS'1.10.1670.10'
p2762
(lp2763
S'G4V5S0'
p2764
aS'Q5DA14'
p2765
asS'2.60.120.310'
p2766
(lp2767
S'G4VCA0'
p2768
aS'C1LS63'
p2769
asS'2.130.10.10'
p2770
(lp2771
S'C1L4J2'
p2772
aS'C4Q352'
p2773
asS'1.10.601.10'
p2774
(lp2775
S'G4M0V5'
p2776
asS'3.30.70.1390'
p2777
(lp2778
S'C1LE76'
p2779
aS'G4VPR5'
p2780
asS'3.40.50.1950'
p2781
(lp2782
S'G4VHC6'
p2783
aS'Q5DHV8'
p2784
asS'2.60.120.550'
p2785
(lp2786
S'G4LZA1'
p2787
aS'Q5BXI8'
p2788
asS'3.40.50.1810'
p2789
(lp2790
S'Q5DB25'
p2791
asS'1.20.920.10'
p2792
(lp2793
S'Q5BSP7'
p2794
aS'G4LUL9'
p2795
asS'3.10.330.10'
p2796
(lp2797
S'G4M0P6'
p2798
aS'C1L6H6'
p2799
asS'2.60.120.40'
p2800
(lp2801
S'G4M297'
p2802
asS'3.30.1490.100'
p2803
(lp2804
S'G4VAP7'
p2805
asS'3.40.47.10'
p2806
(lp2807
S'G4VEI2'
p2808
aS'Q5BSM6'
p2809
asS'3.40.980.10'
p2810
(lp2811
S'C7TXS2'
p2812
aS'G4V7G7'
p2813
asS'3.90.770.10'
p2814
(lp2815
S'C1L525'
p2816
aS'C4Q5I9'
p2817
asS'1.10.287.70'
p2818
(lp2819
S'G4LYK1'
p2820
aS'C1L3N0'
p2821
asS'2.40.270.10'
p2822
(lp2823
S'G4VEG3'
p2824
aS'C1LF25'
p2825
asS'3.30.1360.120'
p2826
(lp2827
S'G4V9G0'
p2828
asS'2.60.40.1530'
p2829
(lp2830
S'G4VDY6'
p2831
aS'Q5C1T9'
p2832
asS'1.25.40.80'
p2833
(lp2834
S'G4LVC5'
p2835
aS'C1LEH0'
p2836
asS'2.40.50.120'
p2837
(lp2838
S'G4VJK4'
p2839
asS'3.90.228.20'
p2840
(lp2841
S'G4V721'
p2842
aS'Q5DGF3'
p2843
asS'1.10.10.200'
p2844
(lp2845
S'G4LV96'
p2846
aS'C1LFS4'
p2847
asS'3.40.630.10'
p2848
(lp2849
S'D6BNU4'
p2850
aS'C1L5C5'
p2851
as.