ccopy_reg
_reconstructor
p1
(c__main__
AutoVivification
p2
c__builtin__
dict
p3
(dp4
S'CHEMBL549'
p5
g1
(g2
g3
(dp6
S'P31645'
p7
g1
(g2
g3
(dp8
S'PF00209'
p9
(lp10
S'Q5BTB8'
p11
aS'A0N0C4'
p12
astRp13
stRp14
sS'CHEMBL58323'
p15
g1
(g2
g3
(dp16
S'Q99250'
p17
g1
(g2
g3
(dp18
S'PF00520'
p19
(lp20
S'G4LUV6'
p21
aS'Q5BXH8'
p22
asS'1.25.10.10'
p23
(lp24
S'C4Q4S4'
p25
aS'C1L4C9'
p26
asS'1.10.287.70'
p27
(lp28
S'G4LYK1'
p29
aS'C1L3N0'
p30
astRp31
stRp32
sS'CHEMBL811'
p33
g1
(g2
g3
(dp34
S'P35367'
p35
g1
(g2
g3
(dp36
S'1.20.1070.10'
p37
(lp38
S'C1LEE2'
p39
aS'C4QJX8'
p40
asS'PF00001'
p41
(lp42
S'Q5BWB8'
p43
aS'C4Q8W8'
p44
astRp45
stRp46
sS'CHEMBL813'
p47
g1
(g2
g3
(dp48
S'P30556'
p49
g1
(g2
g3
(dp50
S'1.20.1070.10'
p51
(lp52
g39
ag40
asS'PF00001'
p53
(lp54
g43
ag44
astRp55
stRp56
sS'CHEMBL814'
p57
g1
(g2
g3
(dp58
g7
g1
(g2
g3
(dp59
g9
(lp60
g11
ag12
astRp61
stRp62
sS'CHEMBL817'
p63
g1
(g2
g3
(dp64
S'Q14654'
p65
g1
(g2
g3
(dp66
S'1.10.287.70'
p67
(lp68
g29
ag30
astRp69
stRp70
sS'CHEMBL544'
p71
g1
(g2
g3
(dp72
S'P14679'
p73
g1
(g2
g3
(dp74
S'PF00264'
p75
(lp76
S'G4LWK1'
p77
aS'H6QX60'
p78
asS'1.10.1280.10'
p79
(lp80
S'G4LWK1'
p81
aS'H6QX60'
p82
astRp83
stRp84
sS'CHEMBL460'
p85
g1
(g2
g3
(dp86
S'P28223'
p87
g1
(g2
g3
(dp88
S'1.20.1070.10'
p89
(lp90
g39
ag40
asS'PF00001'
p91
(lp92
g43
ag44
astRp93
sS'P14416'
p94
g1
(g2
g3
(dp95
S'1.20.1070.10'
p96
(lp97
g39
ag40
asS'PF00001'
p98
(lp99
g43
ag44
astRp100
stRp101
sS'CHEMBL467'
p102
g1
(g2
g3
(dp103
S'P31350'
p104
g1
(g2
g3
(dp105
S'1.10.620.20'
p106
(lp107
S'Q5BRK1'
p108
aS'C4QCA2'
p109
asS'PF00268'
p110
(lp111
S'Q5BRK1'
p112
aS'C4QCA2'
p113
astRp114
stRp115
sS'CHEMBL1624'
p116
g1
(g2
g3
(dp117
S'P10827'
p118
g1
(g2
g3
(dp119
S'PF00104'
p120
(lp121
S'Q5C0D4'
p122
aS'G4VSW8'
p123
asS'PF00105'
p124
(lp125
S'Q5BWT5'
p126
aS'G4VD34'
p127
asS'3.30.50.10'
p128
(lp129
S'Q5C527'
p130
aS'G4VD34'
p131
asS'1.10.565.10'
p132
(lp133
S'G4LXS8'
p134
aS'Q5BSD6'
p135
astRp136
stRp137
sS'CHEMBL469'
p138
g1
(g2
g3
(dp139
S'P23219'
p140
g1
(g2
g3
(dp141
S'1.10.640.10'
p142
(lp143
S'G4VLK0'
p144
aS'Q5C3T6'
p145
asS'PF03098'
p146
(lp147
S'G4VLK0'
p148
aS'Q5C3T6'
p149
asS'2.10.25.10'
p150
(lp151
S'C1M2U2'
p152
aS'C1L3R7'
p153
astRp154
stRp155
sS'CHEMBL1626'
p156
g1
(g2
g3
(dp157
g35
g1
(g2
g3
(dp158
g37
(lp159
g39
ag40
asg41
(lp160
g43
ag44
astRp161
stRp162
sS'CHEMBL1621'
p163
g1
(g2
g3
(dp164
g87
g1
(g2
g3
(dp165
g89
(lp166
g39
ag40
asg91
(lp167
g43
ag44
astRp168
sg94
g1
(g2
g3
(dp169
g96
(lp170
g39
ag40
asg98
(lp171
g43
ag44
astRp172
stRp173
sS'CHEMBL1623'
p174
g1
(g2
g3
(dp175
g35
g1
(g2
g3
(dp176
g37
(lp177
g39
ag40
asg41
(lp178
g43
ag44
astRp179
stRp180
sS'CHEMBL887'
p181
g1
(g2
g3
(dp182
S'P27338'
p183
g1
(g2
g3
(dp184
S'3.90.660.10'
p185
(lp186
S'G4VDC3'
p187
aS'Q5C5E5'
p188
asS'1.10.405.10'
p189
(lp190
S'G4VC26'
p191
aS'C1LEP2'
p192
asS'3.40.50.720'
p193
(lp194
S'B3GV02'
p195
aS'C4QQ81'
p196
asS'3.50.50.60'
p197
(lp198
S'C4QJB2'
p199
aS'C1L4K0'
p200
asS'PF01593'
p201
(lp202
S'G4VFV2'
p203
aS'Q5C5E5'
p204
astRp205
stRp206
sS'CHEMBL940'
p207
g1
(g2
g3
(dp208
S'Q13936'
p209
g1
(g2
g3
(dp210
S'PF00520'
p211
(lp212
g21
ag22
asS'1.10.287.70'
p213
(lp214
g29
ag30
asS'1.20.120.350'
p215
(lp216
S'C1LER9'
p217
aS'G4M1N7'
p218
asS'PF08763'
p219
(lp220
S'Q5BWX8'
p221
aS'G4LVY1'
p222
astRp223
stRp224
sS'CHEMBL106'
p225
g1
(g2
g3
(dp226
S'P10613'
p227
g1
(g2
g3
(dp228
S'PF00067'
p229
(lp230
S'Q5D9Z5'
p231
aS'G4VF77'
p232
asS'1.10.630.10'
p233
(lp234
S'Q5D9Z5'
p235
aS'G4VF77'
p236
astRp237
stRp238
sS'CHEMBL1087'
p239
g1
(g2
g3
(dp240
g17
g1
(g2
g3
(dp241
g19
(lp242
g21
ag22
asg23
(lp243
g25
ag26
asg27
(lp244
g29
ag30
astRp245
stRp246
sS'CHEMBL864'
p247
g1
(g2
g3
(dp248
g35
g1
(g2
g3
(dp249
g37
(lp250
g39
ag40
asg41
(lp251
g43
ag44
astRp252
stRp253
sS'CHEMBL865'
p254
g1
(g2
g3
(dp255
S'P35354'
p256
g1
(g2
g3
(dp257
S'1.10.640.10'
p258
(lp259
g144
ag145
asS'PF03098'
p260
(lp261
g148
ag149
asS'2.10.25.10'
p262
(lp263
g152
ag153
astRp264
stRp265
sS'CHEMBL866'
p266
g1
(g2
g3
(dp267
S'P12268'
p268
g1
(g2
g3
(dp269
S'PF00478'
p270
(lp271
S'G4V9I5'
p272
aS'Q5C0P0'
p273
asS'PF00571'
p274
(lp275
S'G4LUH6'
p276
aS'Q3MJS8'
p277
astRp278
stRp279
sS'CHEMBL456'
p280
g1
(g2
g3
(dp281
S'Q13621'
p282
g1
(g2
g3
(dp283
S'PF00324'
p284
(lp285
S'C4QIX8'
p286
asS'PB001574'
p287
(lp288
S'Q6T6C6'
p289
astRp290
stRp291
sS'CHEMBL861'
p292
g1
(g2
g3
(dp293
g17
g1
(g2
g3
(dp294
g19
(lp295
g21
ag22
asg23
(lp296
g25
ag26
asg27
(lp297
g29
ag30
astRp298
stRp299
sS'CHEMBL862'
p300
g1
(g2
g3
(dp301
S'P18825'
p302
g1
(g2
g3
(dp303
S'1.20.1070.10'
p304
(lp305
g39
ag40
asS'PF00001'
p306
(lp307
g43
ag44
astRp308
stRp309
sS'CHEMBL1201294'
p310
g1
(g2
g3
(dp311
S'P35372'
p312
g1
(g2
g3
(dp313
S'1.20.1070.10'
p314
(lp315
g39
ag40
asS'PF00001'
p316
(lp317
g43
ag44
astRp318
stRp319
sS'CHEMBL15770'
p320
g1
(g2
g3
(dp321
g140
g1
(g2
g3
(dp322
g142
(lp323
g144
ag145
asg146
(lp324
g148
ag149
asg150
(lp325
g152
ag153
astRp326
stRp327
sS'CHEMBL546'
p328
g1
(g2
g3
(dp329
S'P07550'
p330
g1
(g2
g3
(dp331
S'1.20.1070.10'
p332
(lp333
g39
ag40
asS'PF00001'
p334
(lp335
g43
ag44
astRp336
sS'P08588'
p337
g1
(g2
g3
(dp338
S'1.20.1070.10'
p339
(lp340
g39
ag40
asS'PF00001'
p341
(lp342
g43
ag44
astRp343
stRp344
sS'CHEMBL1200438'
p345
g1
(g2
g3
(dp346
g227
g1
(g2
g3
(dp347
g229
(lp348
g231
ag232
asg233
(lp349
g235
ag236
astRp350
stRp351
sS'CHEMBL1201217'
p352
g1
(g2
g3
(dp353
g17
g1
(g2
g3
(dp354
g19
(lp355
g21
ag22
asg23
(lp356
g25
ag26
asg27
(lp357
g29
ag30
astRp358
stRp359
sS'CHEMBL1201216'
p360
g1
(g2
g3
(dp361
S'P35348'
p362
g1
(g2
g3
(dp363
S'1.20.1070.10'
p364
(lp365
g39
ag40
asS'PF00001'
p366
(lp367
g43
ag44
astRp368
stRp369
sS'CHEMBL1201213'
p370
g1
(g2
g3
(dp371
g330
g1
(g2
g3
(dp372
g332
(lp373
g39
ag40
asg334
(lp374
g43
ag44
astRp375
stRp376
sS'CHEMBL1201212'
p377
g1
(g2
g3
(dp378
S'P25100'
p379
g1
(g2
g3
(dp380
S'1.20.1070.10'
p381
(lp382
g39
ag40
asS'PF00001'
p383
(lp384
g43
ag44
astRp385
stRp386
sS'CHEMBL1201210'
p387
g1
(g2
g3
(dp388
g35
g1
(g2
g3
(dp389
g37
(lp390
g39
ag40
asg41
(lp391
g43
ag44
astRp392
stRp393
sS'CHEMBL612'
p394
g1
(g2
g3
(dp395
S'P23975'
p396
g1
(g2
g3
(dp397
S'PF00209'
p398
(lp399
g11
ag12
astRp400
sS'Q01959'
p401
g1
(g2
g3
(dp402
S'PF00209'
p403
(lp404
g11
ag12
astRp405
sS'Q05940'
p406
g1
(g2
g3
(dp407
S'1.20.1250.20'
p408
(lp409
S'C4PYV9'
p410
aS'C1L540'
p411
asS'PF07690'
p412
(lp413
S'Q5BRU8'
p414
aS'G4LUV3'
p415
astRp416
stRp417
sS'CHEMBL1200826'
p418
g1
(g2
g3
(dp419
S'P29218'
p420
g1
(g2
g3
(dp421
S'3.40.190.80'
p422
(lp423
S'G4VTV1'
p424
aS'C1L4U6'
p425
asS'3.30.540.10'
p426
(lp427
S'G4VTV0'
p428
aS'C1L4U6'
p429
asS'PF00459'
p430
(lp431
S'Q5C0C1'
p432
aS'G4LW64'
p433
astRp434
sS'P49841'
p435
g1
(g2
g3
(dp436
S'1.10.510.10'
p437
(lp438
S'B3GUQ1'
p439
aS'C4QJA8'
p440
aS'D2JVC2'
p441
asS'3.30.200.20'
p442
(lp443
S'C1L7H5'
p444
aS'C4QMU7'
p445
aS'D2JVC2'
p446
asS'PF00069'
p447
(lp448
S'C1M0Q3'
p449
aS'B3GUQ1'
p450
aS'D2JVC2'
p451
astRp452
stRp453
sS'CHEMBL1201196'
p454
g1
(g2
g3
(dp455
g227
g1
(g2
g3
(dp456
g229
(lp457
g231
ag232
asg233
(lp458
g235
ag236
astRp459
stRp460
sS'CHEMBL1201197'
p461
g1
(g2
g3
(dp462
S'P0AES6'
p463
g1
(g2
g3
(dp464
S'PF02518'
p465
(lp466
S'G4V9U6'
p467
aS'Q5BS88'
p468
asS'3.40.50.670'
p469
(lp470
S'G4VPA9'
p471
asS'PF00204'
p472
(lp473
S'G4VPA9'
p474
asS'3.30.565.10'
p475
(lp476
S'C1LEA1'
p477
aS'G4M1N5'
p478
asS'3.30.230.10'
p479
(lp480
S'C4QII4'
p481
aS'C1LV98'
p482
asS'PF01751'
p483
(lp484
S'Q5DFL5'
p485
aS'G4VFA7'
p486
astRp487
sS'P0AFI2'
p488
g1
(g2
g3
(dp489
S'1.10.268.10'
p490
(lp491
S'G4VPA9'
p492
asS'PF00521'
p493
(lp494
S'G4VPA9'
p495
asS'3.90.199.10'
p496
(lp497
S'G4VPA9'
p498
astRp499
stRp500
sS'CHEMBL1229517'
p501
g1
(g2
g3
(dp502
S'P15056'
p503
g1
(g2
g3
(dp504
S'1.10.510.10'
p505
(lp506
g439
ag440
ag441
asS'PF07714'
p507
(lp508
S'G4LXX3'
p509
aS'Q3MJT9'
p510
asS'3.10.20.90'
p511
(lp512
S'C1L3S9'
p513
aS'C4QLP6'
p514
asS'PF00130'
p515
(lp516
S'G4VS77'
p517
aS'Q5C3X7'
p518
asS'PF02196'
p519
(lp520
S'G4VG61'
p521
asS'3.30.60.20'
p522
(lp523
S'G4VS77'
p524
aS'Q5BWW9'
p525
asS'3.30.200.20'
p526
(lp527
g444
ag445
ag446
astRp528
stRp529
sS'CHEMBL1201192'
p530
g1
(g2
g3
(dp531
g401
g1
(g2
g3
(dp532
g403
(lp533
g11
ag12
astRp534
stRp535
sS'CHEMBL1201193'
p536
g1
(g2
g3
(dp537
S'P35499'
p538
g1
(g2
g3
(dp539
S'PF00520'
p540
(lp541
g21
ag22
asS'1.10.287.70'
p542
(lp543
g29
ag30
astRp544
stRp545
sS'CHEMBL1088'
p546
g1
(g2
g3
(dp547
g87
g1
(g2
g3
(dp548
g89
(lp549
g39
ag40
asg91
(lp550
g43
ag44
astRp551
sg94
g1
(g2
g3
(dp552
g96
(lp553
g39
ag40
asg98
(lp554
g43
ag44
astRp555
stRp556
sS'CHEMBL168815'
p557
g1
(g2
g3
(dp558
S'P11229'
p559
g1
(g2
g3
(dp560
S'1.20.1070.10'
p561
(lp562
g39
ag40
asS'PF00001'
p563
(lp564
g43
ag44
astRp565
sS'P20309'
p566
g1
(g2
g3
(dp567
S'1.20.1070.10'
p568
(lp569
g39
ag40
asS'PF00001'
p570
(lp571
g43
ag44
astRp572
stRp573
sS'CHEMBL2107333'
p574
g1
(g2
g3
(dp575
S'Q14145'
p576
g1
(g2
g3
(dp577
S'2.120.10.80'
p578
(lp579
S'Q5C3Q6'
p580
aS'G4V9Y9'
p581
asS'PF07707'
p582
(lp583
S'Q5BS16'
p584
aS'G4LUY1'
p585
asS'PF00651'
p586
(lp587
S'Q5BTF8'
p588
aS'C1M0Q4'
p589
asS'3.30.710.10'
p590
(lp591
S'C1L653'
p592
aS'C1M0Q4'
p593
asS'PF01344'
p594
(lp595
S'Q5C4X9'
p596
aS'G4LYI6'
p597
astRp598
stRp599
sS'CHEMBL956'
p600
g1
(g2
g3
(dp601
g140
g1
(g2
g3
(dp602
g142
(lp603
g144
ag145
asg146
(lp604
g148
ag149
asg150
(lp605
g152
ag153
astRp606
stRp607
sS'CHEMBL1120'
p608
g1
(g2
g3
(dp609
g140
g1
(g2
g3
(dp610
g142
(lp611
g144
ag145
asg146
(lp612
g148
ag149
asg150
(lp613
g152
ag153
astRp614
stRp615
sS'CHEMBL1242'
p616
g1
(g2
g3
(dp617
g17
g1
(g2
g3
(dp618
g19
(lp619
g21
ag22
asg23
(lp620
g25
ag26
asg27
(lp621
g29
ag30
astRp622
stRp623
sS'CHEMBL25'
p624
g1
(g2
g3
(dp625
g140
g1
(g2
g3
(dp626
g142
(lp627
g144
ag145
asg146
(lp628
g148
ag149
asg150
(lp629
g152
ag153
astRp630
stRp631
sS'CHEMBL1241'
p632
g1
(g2
g3
(dp633
g35
g1
(g2
g3
(dp634
g37
(lp635
g39
ag40
asg41
(lp636
g43
ag44
astRp637
stRp638
sS'CHEMBL41355'
p639
g1
(g2
g3
(dp640
S'P51787'
p641
g1
(g2
g3
(dp642
S'PF00520'
p643
(lp644
g21
ag22
asS'PF03520'
p645
(lp646
S'G4VB79'
p647
asS'1.20.120.350'
p648
(lp649
g217
ag218
asS'1.20.5.110'
p650
(lp651
S'G4LUG3'
p652
aS'B3GUR4'
p653
asS'1.10.287.70'
p654
(lp655
g29
ag30
astRp656
stRp657
sS'CHEMBL1371'
p658
g1
(g2
g3
(dp659
S'O15554'
p660
g1
(g2
g3
(dp661
S'PF03530'
p662
(lp663
S'Q5C3F6'
p664
aS'G4LXV9'
p665
asS'PF07885'
p666
(lp667
S'Q5BRF7'
p668
aS'G4VBJ3'
p669
asS'PF02888'
p670
(lp671
S'G4LXV9'
p672
asS'1.10.287.70'
p673
(lp674
g29
ag30
astRp675
stRp676
sS'CHEMBL2104993'
p677
g1
(g2
g3
(dp678
g7
g1
(g2
g3
(dp679
g9
(lp680
g11
ag12
astRp681
sS'P08908'
p682
g1
(g2
g3
(dp683
S'1.20.1070.10'
p684
(lp685
g39
ag40
asS'PF00001'
p686
(lp687
g43
ag44
astRp688
sS'P46098'
p689
g1
(g2
g3
(dp690
S'1.20.58.390'
p691
(lp692
S'A6QL44'
p693
aS'G4VGC1'
p694
aS'Q5DEI5'
p695
asS'PF02931'
p696
(lp697
S'A6QL44'
p698
aS'G4LZL6'
p699
aS'Q5BW84'
p700
asS'2.70.170.10'
p701
(lp702
S'A6QL44'
p703
aS'Q5BQU5'
p704
aS'C4Q9B3'
p705
asS'PF02932'
p706
(lp707
S'A6QL44'
p708
aS'G4VGC1'
p709
aS'C7TYG3'
p710
astRp711
stRp712
sS'CHEMBL175691'
p713
g1
(g2
g3
(dp714
S'Q72547'
p715
g1
(g2
g3
(dp716
S'3.30.420.10'
p717
(lp718
S'C1LHF1'
p719
aS'G4LVX3'
p720
asS'3.10.10.10'
p721
(lp722
S'G4VK73'
p723
aS'Q5BRL7'
p724
asS'3.30.70.270'
p725
(lp726
S'C4QS60'
p727
aS'C7TXU1'
p728
asS'PF00078'
p729
(lp730
S'C1M102'
p731
aS'C7C209'
p732
asS'PF00075'
p733
(lp734
S'Q5BXL7'
p735
aS'C1M257'
p736
astRp737
stRp738
sS'CHEMBL1101'
p739
g1
(g2
g3
(dp740
g559
g1
(g2
g3
(dp741
g561
(lp742
g39
ag40
asg563
(lp743
g43
ag44
astRp744
stRp745
sS'CHEMBL1098'
p746
g1
(g2
g3
(dp747
g538
g1
(g2
g3
(dp748
g540
(lp749
g21
ag22
asg542
(lp750
g29
ag30
astRp751
stRp752
sS'CHEMBL1237'
p753
g1
(g2
g3
(dp754
S'P12821'
p755
g1
(g2
g3
(dp756
S'1.10.1370.10'
p757
(lp758
S'Q5BYU5'
p759
aS'G4LW91'
p760
astRp761
stRp762
sS'CHEMBL1231'
p763
g1
(g2
g3
(dp764
S'P08172'
p765
g1
(g2
g3
(dp766
S'1.20.1070.10'
p767
(lp768
g39
ag40
asS'PF00001'
p769
(lp770
g43
ag44
astRp771
sg566
g1
(g2
g3
(dp772
g568
(lp773
g39
ag40
asg570
(lp774
g43
ag44
astRp775
stRp776
sS'CHEMBL223228'
p777
g1
(g2
g3
(dp778
g715
g1
(g2
g3
(dp779
g717
(lp780
g719
ag720
asg721
(lp781
g723
ag724
asg725
(lp782
g727
ag728
asg729
(lp783
g731
ag732
asg733
(lp784
g735
ag736
astRp785
stRp786
sS'CHEMBL1337'
p787
g1
(g2
g3
(dp788
S'P32754'
p789
g1
(g2
g3
(dp790
S'3.10.180.10'
p791
(lp792
S'G4VG72'
p793
aS'Q5BS34'
p794
asS'PF00903'
p795
(lp796
S'Q86F38'
p797
aS'G4VJ60'
p798
astRp799
stRp800
sS'CHEMBL2107834'
p801
g1
(g2
g3
(dp802
S'Q02108'
p803
g1
(g2
g3
(dp804
S'3.30.70.1230'
p805
(lp806
S'Q5BXD2'
p807
aS'G4VMY6'
p808
asS'PF07701'
p809
(lp810
S'G4LU97'
p811
asS'3.90.1520.10'
p812
(lp813
S'G4LU97'
p814
asS'PF07700'
p815
(lp816
S'G4LU97'
p817
asS'PF00211'
p818
(lp819
S'Q5BXD2'
p820
aS'G4LV56'
p821
astRp822
stRp823
sS'CHEMBL431'
p824
g1
(g2
g3
(dp825
g755
g1
(g2
g3
(dp826
g757
(lp827
g759
ag760
astRp828
stRp829
sS'CHEMBL723'
p830
g1
(g2
g3
(dp831
S'P08588'
p832
g1
(g2
g3
(dp833
g339
(lp834
g39
ag40
asg341
(lp835
g43
ag44
astRp836
sg379
g1
(g2
g3
(dp837
g381
(lp838
g39
ag40
asg383
(lp839
g43
ag44
astRp840
stRp841
sS'CHEMBL1148'
p842
g1
(g2
g3
(dp843
g282
g1
(g2
g3
(dp844
g284
(lp845
g286
asg287
(lp846
g289
astRp847
stRp848
sS'CHEMBL727'
p849
g1
(g2
g3
(dp850
g268
g1
(g2
g3
(dp851
g270
(lp852
g272
ag273
asg274
(lp853
g276
ag277
astRp854
stRp855
sS'CHEMBL726'
p856
g1
(g2
g3
(dp857
g94
g1
(g2
g3
(dp858
g96
(lp859
g39
ag40
asg98
(lp860
g43
ag44
astRp861
stRp862
sS'CHEMBL1419'
p863
g1
(g2
g3
(dp864
S'P23975'
p865
g1
(g2
g3
(dp866
g398
(lp867
g11
ag12
astRp868
stRp869
sS'CHEMBL640'
p870
g1
(g2
g3
(dp871
g17
g1
(g2
g3
(dp872
g19
(lp873
g21
ag22
asg23
(lp874
g25
ag26
asg27
(lp875
g29
ag30
astRp876
stRp877
sS'CHEMBL641'
p878
g1
(g2
g3
(dp879
g396
g1
(g2
g3
(dp880
g398
(lp881
g11
ag12
astRp882
stRp883
sS'CHEMBL729'
p884
g1
(g2
g3
(dp885
S'Q72874'
p886
g1
(g2
g3
(dp887
S'PF00077'
p888
(lp889
S'Q4QQF7'
p890
aS'Q5C201'
p891
asS'2.40.70.10'
p892
(lp893
S'G4M1W1'
p894
aS'C1L3W6'
p895
astRp896
stRp897
sS'CHEMBL643'
p898
g1
(g2
g3
(dp899
g35
g1
(g2
g3
(dp900
g37
(lp901
g39
ag40
asg41
(lp902
g43
ag44
astRp903
stRp904
sS'CHEMBL644'
p905
g1
(g2
g3
(dp906
S'P28335'
p907
g1
(g2
g3
(dp908
S'1.20.1070.10'
p909
(lp910
g39
ag40
asS'PF00001'
p911
(lp912
g43
ag44
astRp913
sg94
g1
(g2
g3
(dp914
g96
(lp915
g39
ag40
asg98
(lp916
g43
ag44
astRp917
sg35
g1
(g2
g3
(dp918
g37
(lp919
g39
ag40
asg41
(lp920
g43
ag44
astRp921
sg87
g1
(g2
g3
(dp922
g89
(lp923
g39
ag40
asg91
(lp924
g43
ag44
astRp925
sg396
g1
(g2
g3
(dp926
g398
(lp927
g11
ag12
astRp928
sg379
g1
(g2
g3
(dp929
g381
(lp930
g39
ag40
asg383
(lp931
g43
ag44
astRp932
stRp933
sS'CHEMBL645'
p934
g1
(g2
g3
(dp935
g337
g1
(g2
g3
(dp936
g339
(lp937
g39
ag40
asg341
(lp938
g43
ag44
astRp939
stRp940
sS'CHEMBL1068'
p941
g1
(g2
g3
(dp942
g17
g1
(g2
g3
(dp943
g19
(lp944
g21
ag22
asg23
(lp945
g25
ag26
asg27
(lp946
g29
ag30
astRp947
stRp948
sS'CHEMBL647'
p949
g1
(g2
g3
(dp950
g302
g1
(g2
g3
(dp951
g304
(lp952
g39
ag40
asg306
(lp953
g43
ag44
astRp954
stRp955
sS'CHEMBL1544'
p956
g1
(g2
g3
(dp957
g118
g1
(g2
g3
(dp958
g120
(lp959
g122
ag123
asg124
(lp960
g126
ag127
asg128
(lp961
g130
ag131
asg132
(lp962
g134
ag135
astRp963
stRp964
sS'CHEMBL1200761'
p965
g1
(g2
g3
(dp966
S'Q92731'
p967
g1
(g2
g3
(dp968
S'PF00104'
p969
(lp970
g122
ag123
asS'PF00105'
p971
(lp972
g126
ag127
asS'3.30.50.10'
p973
(lp974
g130
ag131
asS'1.10.565.10'
p975
(lp976
g134
ag135
astRp977
stRp978
sS'CHEMBL58'
p979
g1
(g2
g3
(dp980
S'P11388'
p981
g1
(g2
g3
(dp982
S'3.40.50.670'
p983
(lp984
g471
asS'PF00204'
p985
(lp986
g474
asS'3.30.565.10'
p987
(lp988
g477
ag478
asS'3.90.199.10'
p989
(lp990
g498
asS'1.10.268.10'
p991
(lp992
g492
asS'3.30.1490.30'
p993
(lp994
S'G4VPA9'
p995
asS'PF01751'
p996
(lp997
g485
ag486
asS'3.30.1360.40'
p998
(lp999
S'G4VPA9'
p1000
asS'PF02518'
p1001
(lp1002
g467
ag468
asS'PF00521'
p1003
(lp1004
g495
asS'3.30.230.10'
p1005
(lp1006
g481
ag482
astRp1007
stRp1008
sS'CHEMBL59'
p1009
g1
(g2
g3
(dp1010
g337
g1
(g2
g3
(dp1011
g339
(lp1012
g39
ag40
asg341
(lp1013
g43
ag44
astRp1014
stRp1015
sS'CHEMBL1093'
p1016
g1
(g2
g3
(dp1017
g17
g1
(g2
g3
(dp1018
g19
(lp1019
g21
ag22
asg23
(lp1020
g25
ag26
asg27
(lp1021
g29
ag30
astRp1022
stRp1023
sS'CHEMBL57'
p1024
g1
(g2
g3
(dp1025
g715
g1
(g2
g3
(dp1026
g717
(lp1027
g719
ag720
asg721
(lp1028
g723
ag724
asg725
(lp1029
g727
ag728
asg729
(lp1030
g731
ag732
asg733
(lp1031
g735
ag736
astRp1032
stRp1033
sS'CHEMBL1095'
p1034
g1
(g2
g3
(dp1035
g17
g1
(g2
g3
(dp1036
g19
(lp1037
g21
ag22
asg23
(lp1038
g25
ag26
asg27
(lp1039
g29
ag30
astRp1040
stRp1041
sS'CHEMBL1094'
p1042
g1
(g2
g3
(dp1043
S'Q05586'
p1044
g1
(g2
g3
(dp1045
S'PF01094'
p1046
(lp1047
S'Q5C7X4'
p1048
aS'E2IFW0'
p1049
asS'3.40.190.10'
p1050
(lp1051
S'D5JEH1'
p1052
aS'Q5C0H2'
p1053
asS'PF00060'
p1054
(lp1055
S'G4V5I7'
p1056
aS'Q5DFY7'
p1057
asS'PF00497'
p1058
(lp1059
S'G4V951'
p1060
asS'1.10.287.70'
p1061
(lp1062
g29
ag30
asS'3.40.50.2300'
p1063
(lp1064
S'C4QPD0'
p1065
aS'Q5C7X4'
p1066
astRp1067
stRp1068
sS'CHEMBL1480'
p1069
g1
(g2
g3
(dp1070
S'Q01668'
p1071
g1
(g2
g3
(dp1072
S'PF00520'
p1073
(lp1074
g21
ag22
asS'1.10.287.70'
p1075
(lp1076
g29
ag30
asS'PF08763'
p1077
(lp1078
g221
ag222
astRp1079
sS'P08235'
p1080
g1
(g2
g3
(dp1081
S'PF00104'
p1082
(lp1083
g122
ag123
asS'PF00105'
p1084
(lp1085
g126
ag127
asS'3.30.50.10'
p1086
(lp1087
g130
ag131
asS'1.10.565.10'
p1088
(lp1089
g134
ag135
astRp1090
stRp1091
sS'CHEMBL1481'
p1092
g1
(g2
g3
(dp1093
g65
g1
(g2
g3
(dp1094
g67
(lp1095
g29
ag30
astRp1096
stRp1097
sS'CHEMBL1482'
p1098
g1
(g2
g3
(dp1099
g765
g1
(g2
g3
(dp1100
g767
(lp1101
g39
ag40
asg769
(lp1102
g43
ag44
astRp1103
sg566
g1
(g2
g3
(dp1104
g568
(lp1105
g39
ag40
asg570
(lp1106
g43
ag44
astRp1107
stRp1108
sS'CHEMBL1483'
p1109
g1
(g2
g3
(dp1110
S'C4PKZ2'
p1111
g1
(g2
g3
(dp1112
S'PF00091'
p1113
(lp1114
S'Q5FYA5'
p1115
aS'G4VBP8'
p1116
aS'Q5BW30'
p1117
asS'3.40.50.1440'
p1118
(lp1119
S'C4Q4S5'
p1120
aS'Q5FYA5'
p1121
aS'C1LBB6'
p1122
astRp1123
sS'F1L4P8'
p1124
g1
(g2
g3
(dp1125
S'1.10.287.600'
p1126
(lp1127
S'C4Q4S5'
p1128
aS'Q5FYA5'
p1129
aS'C1L471'
p1130
asS'PF03953'
p1131
(lp1132
S'C4Q4S5'
p1133
aS'Q5FYA5'
p1134
aS'C7TXT4'
p1135
asS'3.30.1330.20'
p1136
(lp1137
S'C4Q4S5'
p1138
aS'Q5FYA5'
p1139
aS'C1L471'
p1140
asS'3.40.50.1440'
p1141
(lp1142
g1120
ag1121
ag1122
asS'PF00091'
p1143
(lp1144
g1115
ag1116
ag1117
astRp1145
stRp1146
sS'CHEMBL1484'
p1147
g1
(g2
g3
(dp1148
g1071
g1
(g2
g3
(dp1149
g1073
(lp1150
g21
ag22
asg1075
(lp1151
g29
ag30
asg1077
(lp1152
g221
ag222
astRp1153
stRp1154
sS'CHEMBL1487'
p1155
g1
(g2
g3
(dp1156
S'P04035'
p1157
g1
(g2
g3
(dp1158
S'PF12349'
p1159
(lp1160
S'G4M1J9'
p1161
asS'PF00368'
p1162
(lp1163
S'C4Q5I9'
p1164
asS'1.10.3270.10'
p1165
(lp1166
S'C1L525'
p1167
aS'C4Q5I9'
p1168
asS'3.90.770.10'
p1169
(lp1170
S'C1L525'
p1171
aS'C4Q5I9'
p1172
asS'1.20.1640.10'
p1173
(lp1174
S'Q5C0X8'
p1175
aS'G4M1J9'
p1176
astRp1177
stRp1178
sS'CHEMBL924'
p1179
g1
(g2
g3
(dp1180
S'P14324'
p1181
g1
(g2
g3
(dp1182
S'PF00348'
p1183
(lp1184
S'Q5DC19'
p1185
aS'G4V9A4'
p1186
asS'1.10.600.10'
p1187
(lp1188
S'C1M0K9'
p1189
aS'C1L545'
p1190
astRp1191
stRp1192
sS'CHEMBL1521'
p1193
g1
(g2
g3
(dp1194
S'P18505'
p1195
g1
(g2
g3
(dp1196
S'1.20.58.390'
p1197
(lp1198
g693
ag694
ag695
asS'PF02931'
p1199
(lp1200
g698
ag699
ag700
asS'2.70.170.10'
p1201
(lp1202
g703
ag704
ag705
asS'PF02932'
p1203
(lp1204
g708
ag709
ag710
astRp1205
stRp1206
sS'CHEMBL926'
p1207
g1
(g2
g3
(dp1208
g330
g1
(g2
g3
(dp1209
g332
(lp1210
g39
ag40
asg334
(lp1211
g43
ag44
astRp1212
sg337
g1
(g2
g3
(dp1213
g339
(lp1214
g39
ag40
asg341
(lp1215
g43
ag44
astRp1216
stRp1217
sS'CHEMBL1525'
p1218
g1
(g2
g3
(dp1219
S'Q2VKV7'
p1220
g1
(g2
g3
(dp1221
S'PF00520'
p1222
(lp1223
g21
ag22
asS'1.10.287.70'
p1224
(lp1225
g29
ag30
astRp1226
stRp1227
sS'CHEMBL1182657'
p1228
g1
(g2
g3
(dp1229
g566
g1
(g2
g3
(dp1230
g568
(lp1231
g39
ag40
asg570
(lp1232
g43
ag44
astRp1233
stRp1234
sS'CHEMBL584'
p1235
g1
(g2
g3
(dp1236
g886
g1
(g2
g3
(dp1237
g888
(lp1238
g890
ag891
asg892
(lp1239
g894
ag895
astRp1240
stRp1241
sS'CHEMBL428'
p1242
g1
(g2
g3
(dp1243
g463
g1
(g2
g3
(dp1244
g465
(lp1245
g467
ag468
asg469
(lp1246
g471
asg472
(lp1247
g474
asg475
(lp1248
g477
ag478
asg479
(lp1249
g481
ag482
asg483
(lp1250
g485
ag486
astRp1251
sg488
g1
(g2
g3
(dp1252
g490
(lp1253
g492
asg493
(lp1254
g495
asg496
(lp1255
g498
astRp1256
stRp1257
sS'CHEMBL429'
p1258
g1
(g2
g3
(dp1259
S'P18825'
p1260
g1
(g2
g3
(dp1261
g304
(lp1262
g39
ag40
asg306
(lp1263
g43
ag44
astRp1264
stRp1265
sS'CHEMBL580'
p1266
g1
(g2
g3
(dp1267
S'P18507'
p1268
g1
(g2
g3
(dp1269
S'1.20.58.390'
p1270
(lp1271
g693
ag694
ag695
asS'PF02931'
p1272
(lp1273
g698
ag699
ag700
asS'2.70.170.10'
p1274
(lp1275
g703
ag704
ag705
asS'PF02932'
p1276
(lp1277
g708
ag709
ag710
astRp1278
stRp1279
sS'CHEMBL425'
p1280
g1
(g2
g3
(dp1281
S'P09917'
p1282
g1
(g2
g3
(dp1283
S'1.20.245.10'
p1284
(lp1285
S'Q5C0R3'
p1286
aS'G4V9T8'
p1287
asS'2.60.60.20'
p1288
(lp1289
S'G4V9T7'
p1290
aS'Q5C6I2'
p1291
asS'PF00305'
p1292
(lp1293
S'Q5C0R3'
p1294
aS'G4V9T8'
p1295
asS'PF01477'
p1296
(lp1297
S'G4V9T7'
p1298
aS'Q5C6I2'
p1299
astRp1300
sg140
g1
(g2
g3
(dp1301
g142
(lp1302
g144
ag145
asg146
(lp1303
g148
ag149
asg150
(lp1304
g152
ag153
astRp1305
sS'P37231'
p1306
g1
(g2
g3
(dp1307
S'PF00104'
p1308
(lp1309
g122
ag123
asS'PF00105'
p1310
(lp1311
g126
ag127
asS'3.30.50.10'
p1312
(lp1313
g130
ag131
asS'1.10.565.10'
p1314
(lp1315
g134
ag135
astRp1316
stRp1317
sS'CHEMBL21731'
p1318
g1
(g2
g3
(dp1319
g396
g1
(g2
g3
(dp1320
g398
(lp1321
g11
ag12
astRp1322
stRp1323
sS'CHEMBL420'
p1324
g1
(g2
g3
(dp1325
g302
g1
(g2
g3
(dp1326
g304
(lp1327
g39
ag40
asg306
(lp1328
g43
ag44
astRp1329
stRp1330
sS'CHEMBL421'
p1331
g1
(g2
g3
(dp1332
g1282
g1
(g2
g3
(dp1333
g1284
(lp1334
g1286
ag1287
asg1288
(lp1335
g1290
ag1291
asg1292
(lp1336
g1294
ag1295
asg1296
(lp1337
g1298
ag1299
astRp1338
sg140
g1
(g2
g3
(dp1339
g142
(lp1340
g144
ag145
asg146
(lp1341
g148
ag149
asg150
(lp1342
g152
ag153
astRp1343
stRp1344
sS'CHEMBL589'
p1345
g1
(g2
g3
(dp1346
S'P14416'
p1347
g1
(g2
g3
(dp1348
g96
(lp1349
g39
ag40
asg98
(lp1350
g43
ag44
astRp1351
stRp1352
sS'CHEMBL588'
p1353
g1
(g2
g3
(dp1354
S'P21728'
p1355
g1
(g2
g3
(dp1356
S'1.20.1070.10'
p1357
(lp1358
g39
ag40
asS'PF00001'
p1359
(lp1360
g43
ag44
astRp1361
stRp1362
sS'CHEMBL1201758'
p1363
g1
(g2
g3
(dp1364
g35
g1
(g2
g3
(dp1365
g37
(lp1366
g39
ag40
asg41
(lp1367
g43
ag44
astRp1368
stRp1369
sS'CHEMBL288441'
p1370
g1
(g2
g3
(dp1371
S'P12931'
p1372
g1
(g2
g3
(dp1373
S'1.10.510.10'
p1374
(lp1375
g439
ag440
ag441
asS'2.30.30.40'
p1376
(lp1377
S'G4LZX2'
p1378
aS'B3GUP4'
p1379
asS'PF00017'
p1380
(lp1381
S'G4VBP7'
p1382
aS'Q5BVT1'
p1383
asS'PF07714'
p1384
(lp1385
g509
ag510
asS'3.30.505.10'
p1386
(lp1387
S'G4LVC3'
p1388
aS'Q5BVT1'
p1389
asS'PF00018'
p1390
(lp1391
S'Q3KZ48'
p1392
aS'G4LZX2'
p1393
asS'3.30.200.20'
p1394
(lp1395
g444
ag445
ag446
astRp1396
sS'P08631'
p1397
g1
(g2
g3
(dp1398
S'1.10.510.10'
p1399
(lp1400
g439
ag440
ag441
asS'2.30.30.40'
p1401
(lp1402
g1378
ag1379
asS'PF00017'
p1403
(lp1404
g1382
ag1383
asS'PF07714'
p1405
(lp1406
g509
ag510
asS'3.30.505.10'
p1407
(lp1408
g1388
ag1389
asS'PF00018'
p1409
(lp1410
g1392
ag1393
asS'3.30.200.20'
p1411
(lp1412
g444
ag445
ag446
astRp1413
sS'P00519'
p1414
g1
(g2
g3
(dp1415
S'2.30.30.40'
p1416
(lp1417
g1378
ag1379
asS'PF08919'
p1418
(lp1419
S'D1H0Y8'
p1420
asS'3.30.505.10'
p1421
(lp1422
g1388
ag1389
asS'1.10.510.10'
p1423
(lp1424
g439
ag440
ag441
asS'PF07714'
p1425
(lp1426
g509
ag510
asS'PF00017'
p1427
(lp1428
g1382
ag1383
asS'1.20.120.330'
p1429
(lp1430
S'G4V5E4'
p1431
aS'C1L490'
p1432
aS'A5A6F8'
p1433
asS'PF00018'
p1434
(lp1435
g1392
ag1393
asS'3.30.200.20'
p1436
(lp1437
g444
ag445
ag446
astRp1438
sS'P07948'
p1439
g1
(g2
g3
(dp1440
S'1.10.510.10'
p1441
(lp1442
g439
ag440
ag441
asS'2.30.30.40'
p1443
(lp1444
g1378
ag1379
asS'PF00017'
p1445
(lp1446
g1382
ag1383
asS'PF07714'
p1447
(lp1448
g509
ag510
asS'3.30.505.10'
p1449
(lp1450
g1388
ag1389
asS'PF00018'
p1451
(lp1452
g1392
ag1393
asS'3.30.200.20'
p1453
(lp1454
g444
ag445
ag446
astRp1455
stRp1456
sS'CHEMBL1201753'
p1457
g1
(g2
g3
(dp1458
g1157
g1
(g2
g3
(dp1459
g1159
(lp1460
g1161
asg1162
(lp1461
g1164
asg1165
(lp1462
g1167
ag1168
asg1169
(lp1463
g1171
ag1172
asg1173
(lp1464
g1175
ag1176
astRp1465
stRp1466
sS'CHEMBL1460'
p1467
g1
(g2
g3
(dp1468
g715
g1
(g2
g3
(dp1469
g717
(lp1470
g719
ag720
asg721
(lp1471
g723
ag724
asg725
(lp1472
g727
ag728
asg729
(lp1473
g731
ag732
asg733
(lp1474
g735
ag736
astRp1475
stRp1476
sS'CHEMBL1201756'
p1477
g1
(g2
g3
(dp1478
g87
g1
(g2
g3
(dp1479
g89
(lp1480
g39
ag40
asg91
(lp1481
g43
ag44
astRp1482
sg94
g1
(g2
g3
(dp1483
g96
(lp1484
g39
ag40
asg98
(lp1485
g43
ag44
astRp1486
stRp1487
sS'CHEMBL1467'
p1488
g1
(g2
g3
(dp1489
S'P47989'
p1490
g1
(g2
g3
(dp1491
S'3.10.20.30'
p1492
(lp1493
S'C4QC98'
p1494
aS'C1LEI3'
p1495
asS'PF00111'
p1496
(lp1497
S'Q5DAG9'
p1498
aS'G4LZ25'
p1499
astRp1500
stRp1501
sS'CHEMBL1201754'
p1502
g1
(g2
g3
(dp1503
g17
g1
(g2
g3
(dp1504
g19
(lp1505
g21
ag22
asg23
(lp1506
g25
ag26
asg27
(lp1507
g29
ag30
astRp1508
stRp1509
sS'CHEMBL22587'
p1510
g1
(g2
g3
(dp1511
g227
g1
(g2
g3
(dp1512
g229
(lp1513
g231
ag232
asg233
(lp1514
g235
ag236
astRp1515
stRp1516
sS'CHEMBL1684'
p1517
g1
(g2
g3
(dp1518
S'P55017'
p1519
g1
(g2
g3
(dp1520
S'PF00324'
p1521
(lp1522
g286
astRp1523
stRp1524
sS'CHEMBL193'
p1525
g1
(g2
g3
(dp1526
g1071
g1
(g2
g3
(dp1527
g1073
(lp1528
g21
ag22
asg1075
(lp1529
g29
ag30
asg1077
(lp1530
g221
ag222
astRp1531
stRp1532
sS'CHEMBL2096637'
p1533
g1
(g2
g3
(dp1534
S'Q86DI9'
p1535
g1
(g2
g3
(dp1536
S'PF00520'
p1537
(lp1538
g21
ag22
asS'1.10.287.70'
p1539
(lp1540
g29
ag30
astRp1541
stRp1542
sS'CHEMBL850'
p1543
g1
(g2
g3
(dp1544
g463
g1
(g2
g3
(dp1545
g465
(lp1546
g467
ag468
asg469
(lp1547
g471
asg472
(lp1548
g474
asg475
(lp1549
g477
ag478
asg479
(lp1550
g481
ag482
asg483
(lp1551
g485
ag486
astRp1552
sg488
g1
(g2
g3
(dp1553
g490
(lp1554
g492
asg493
(lp1555
g495
asg496
(lp1556
g498
astRp1557
stRp1558
sS'CHEMBL33986'
p1559
g1
(g2
g3
(dp1560
S'P41145'
p1561
g1
(g2
g3
(dp1562
S'1.20.1070.10'
p1563
(lp1564
g39
ag40
asS'PF00001'
p1565
(lp1566
g43
ag44
astRp1567
sg312
g1
(g2
g3
(dp1568
g314
(lp1569
g39
ag40
asg316
(lp1570
g43
ag44
astRp1571
stRp1572
sS'CHEMBL1946170'
p1573
g1
(g2
g3
(dp1574
S'P21802'
p1575
g1
(g2
g3
(dp1576
S'1.10.510.10'
p1577
(lp1578
g439
ag440
ag441
asS'PF13895'
p1579
(lp1580
S'G4LXJ8'
p1581
aS'Q5BS71'
p1582
asS'PF07714'
p1583
(lp1584
g509
ag510
asS'PF07679'
p1585
(lp1586
S'G4VFE7'
p1587
aS'Q3KZB1'
p1588
asS'2.60.40.10'
p1589
(lp1590
S'C4Q5U5'
p1591
aS'B5B7R3'
p1592
asS'3.30.200.20'
p1593
(lp1594
g444
ag445
ag446
astRp1595
sS'Q15759'
p1596
g1
(g2
g3
(dp1597
S'1.10.510.10'
p1598
(lp1599
g439
ag440
ag441
asS'3.30.200.20'
p1600
(lp1601
g444
ag445
ag446
asS'PF00069'
p1602
(lp1603
g449
ag450
ag451
astRp1604
sg1414
g1
(g2
g3
(dp1605
g1416
(lp1606
g1378
ag1379
asg1418
(lp1607
g1420
asg1421
(lp1608
g1388
ag1389
asg1423
(lp1609
g439
ag440
ag441
asg1425
(lp1610
g509
ag510
asg1427
(lp1611
g1382
ag1383
asg1429
(lp1612
g1431
ag1432
ag1433
asg1434
(lp1613
g1392
ag1393
asg1436
(lp1614
g444
ag445
ag446
astRp1615
sS'P42685'
p1616
g1
(g2
g3
(dp1617
S'1.10.510.10'
p1618
(lp1619
g439
ag440
ag441
asS'2.30.30.40'
p1620
(lp1621
g1378
ag1379
asS'PF00017'
p1622
(lp1623
g1382
ag1383
asS'PF07714'
p1624
(lp1625
g509
ag510
asS'3.30.505.10'
p1626
(lp1627
g1388
ag1389
asS'PF00018'
p1628
(lp1629
g1392
ag1393
asS'3.30.200.20'
p1630
(lp1631
g444
ag445
ag446
astRp1632
sS'P35968'
p1633
g1
(g2
g3
(dp1634
S'PF07686'
p1635
(lp1636
S'G4VMC5'
p1637
aS'Q5BWU0'
p1638
asS'PF07679'
p1639
(lp1640
g1587
ag1588
asS'2.60.40.10'
p1641
(lp1642
g1591
ag1592
asS'1.10.510.10'
p1643
(lp1644
g439
ag440
ag441
asS'PF13895'
p1645
(lp1646
g1581
ag1582
asS'PF07714'
p1647
(lp1648
g509
ag510
asS'2.60.40.1330'
p1649
(lp1650
S'Q3KZB1'
p1651
aS'C4QII1'
p1652
asS'3.30.200.20'
p1653
(lp1654
g444
ag445
ag446
astRp1655
sS'P11362'
p1656
g1
(g2
g3
(dp1657
S'1.10.510.10'
p1658
(lp1659
g439
ag440
ag441
asS'PF07714'
p1660
(lp1661
g509
ag510
asS'3.30.200.20'
p1662
(lp1663
g444
ag445
ag446
asS'PF07679'
p1664
(lp1665
g1587
ag1588
asS'2.60.40.10'
p1666
(lp1667
g1591
ag1592
astRp1668
sS'P09619'
p1669
g1
(g2
g3
(dp1670
S'PF07679'
p1671
(lp1672
g1587
ag1588
asS'PF00047'
p1673
(lp1674
S'G4V7H2'
p1675
asS'2.60.40.10'
p1676
(lp1677
g1591
ag1592
asS'1.10.510.10'
p1678
(lp1679
g439
ag440
ag441
asS'PF13895'
p1680
(lp1681
g1581
ag1582
asS'PF07714'
p1682
(lp1683
g509
ag510
asS'2.60.40.1330'
p1684
(lp1685
g1651
ag1652
asS'3.30.200.20'
p1686
(lp1687
g444
ag445
ag446
astRp1688
sS'P04049'
p1689
g1
(g2
g3
(dp1690
S'1.10.510.10'
p1691
(lp1692
g439
ag440
ag441
asS'PF07714'
p1693
(lp1694
g509
ag510
asS'3.10.20.90'
p1695
(lp1696
g513
ag514
asS'PF00130'
p1697
(lp1698
g517
ag518
asS'PF02196'
p1699
(lp1700
g521
asS'3.30.60.20'
p1701
(lp1702
g524
ag525
asS'3.30.200.20'
p1703
(lp1704
g444
ag445
ag446
astRp1705
sS'Q16832'
p1706
g1
(g2
g3
(dp1707
S'1.10.510.10'
p1708
(lp1709
g439
ag440
ag441
asS'3.30.200.20'
p1710
(lp1711
g444
ag445
ag446
asS'PF07714'
p1712
(lp1713
g509
ag510
asS'PF00754'
p1714
(lp1715
S'Q5BWR8'
p1716
aS'G4V7C2'
p1717
asS'2.60.120.260'
p1718
(lp1719
S'C1LD59'
p1720
aS'G4VDF2'
p1721
astRp1722
sg503
g1
(g2
g3
(dp1723
g505
(lp1724
g439
ag440
ag441
asg507
(lp1725
g509
ag510
asg511
(lp1726
g513
ag514
asg515
(lp1727
g517
ag518
asg519
(lp1728
g521
asg522
(lp1729
g524
ag525
asg526
(lp1730
g444
ag445
ag446
astRp1731
sS'Q02763'
p1732
g1
(g2
g3
(dp1733
S'PF00041'
p1734
(lp1735
S'Q5BXN3'
p1736
aS'G4LY41'
p1737
asS'1.10.510.10'
p1738
(lp1739
g439
ag440
ag441
asS'2.170.300.10'
p1740
(lp1741
S'G4V5U5'
p1742
aS'C1L4W7'
p1743
asS'PF07714'
p1744
(lp1745
g509
ag510
asS'2.60.40.10'
p1746
(lp1747
g1591
ag1592
asS'3.30.200.20'
p1748
(lp1749
g444
ag445
ag446
astRp1750
sS'P10721'
p1751
g1
(g2
g3
(dp1752
S'1.10.510.10'
p1753
(lp1754
g439
ag440
ag441
asS'PF13895'
p1755
(lp1756
g1581
ag1582
asS'PF07714'
p1757
(lp1758
g509
ag510
asS'PF13927'
p1759
(lp1760
S'G4VHK7'
p1761
aS'B5B7R3'
p1762
asS'PF00047'
p1763
(lp1764
g1675
asS'2.60.40.10'
p1765
(lp1766
g1591
ag1592
asS'3.30.200.20'
p1767
(lp1768
g444
ag445
ag446
astRp1769
sS'P07949'
p1770
g1
(g2
g3
(dp1771
S'1.10.510.10'
p1772
(lp1773
g439
ag440
ag441
asS'2.60.40.60'
p1774
(lp1775
S'Q5BYV3'
p1776
aS'C1M031'
p1777
asS'PF00028'
p1778
(lp1779
S'Q5BYH6'
p1780
aS'G4M253'
p1781
asS'PF07714'
p1782
(lp1783
g509
ag510
asS'3.30.200.20'
p1784
(lp1785
g444
ag445
ag446
asS'2.60.350.10'
p1786
(lp1787
S'Q5BYL9'
p1788
aS'G4LVP9'
p1789
astRp1790
stRp1791
sS'CHEMBL459'
p1792
g1
(g2
g3
(dp1793
g302
g1
(g2
g3
(dp1794
g304
(lp1795
g39
ag40
asg306
(lp1796
g43
ag44
astRp1797
stRp1798
sS'CHEMBL511'
p1799
g1
(g2
g3
(dp1800
g35
g1
(g2
g3
(dp1801
g37
(lp1802
g39
ag40
asg41
(lp1803
g43
ag44
astRp1804
stRp1805
sS'CHEMBL109'
p1806
g1
(g2
g3
(dp1807
S'P51649'
p1808
g1
(g2
g3
(dp1809
S'3.40.605.10'
p1810
(lp1811
S'Q26538'
p1812
aS'Q3KZ91'
p1813
asS'3.40.309.10'
p1814
(lp1815
S'G4M1B6'
p1816
aS'C1LF69'
p1817
asS'PF00171'
p1818
(lp1819
S'G4LWI3'
p1820
aS'A9XKA4'
p1821
astRp1822
stRp1823
sS'CHEMBL513'
p1824
g1
(g2
g3
(dp1825
S'P00390'
p1826
g1
(g2
g3
(dp1827
S'3.30.390.30'
p1828
(lp1829
S'G4LX00'
p1830
aS'B5THG7'
p1831
asS'PF07992'
p1832
(lp1833
S'G4LZN7'
p1834
aS'Q5BY90'
p1835
asS'PF00070'
p1836
(lp1837
S'B5THG7'
p1838
aS'G4V8J4'
p1839
asS'3.50.50.60'
p1840
(lp1841
g199
ag200
asS'PF02852'
p1842
(lp1843
S'B5THG7'
p1844
aS'G4V8J4'
p1845
astRp1846
stRp1847
sS'CHEMBL516'
p1848
g1
(g2
g3
(dp1849
g35
g1
(g2
g3
(dp1850
g37
(lp1851
g39
ag40
asg41
(lp1852
g43
ag44
astRp1853
stRp1854
sS'CHEMBL517'
p1855
g1
(g2
g3
(dp1856
g17
g1
(g2
g3
(dp1857
g19
(lp1858
g21
ag22
asg23
(lp1859
g25
ag26
asg27
(lp1860
g29
ag30
astRp1861
stRp1862
sS'CHEMBL451'
p1863
g1
(g2
g3
(dp1864
g1268
g1
(g2
g3
(dp1865
g1270
(lp1866
g693
ag694
ag695
asg1272
(lp1867
g698
ag699
ag700
asg1274
(lp1868
g703
ag704
ag705
asg1276
(lp1869
g708
ag709
ag710
astRp1870
stRp1871
sS'CHEMBL450'
p1872
g1
(g2
g3
(dp1873
g1268
g1
(g2
g3
(dp1874
g1270
(lp1875
g693
ag694
ag695
asg1272
(lp1876
g698
ag699
ag700
asg1274
(lp1877
g703
ag704
ag705
asg1276
(lp1878
g708
ag709
ag710
astRp1879
stRp1880
sS'CHEMBL101'
p1881
g1
(g2
g3
(dp1882
g140
g1
(g2
g3
(dp1883
g142
(lp1884
g144
ag145
asg146
(lp1885
g148
ag149
asg150
(lp1886
g152
ag153
astRp1887
stRp1888
sS'CHEMBL452'
p1889
g1
(g2
g3
(dp1890
g1268
g1
(g2
g3
(dp1891
g1270
(lp1892
g693
ag694
ag695
asg1272
(lp1893
g698
ag699
ag700
asg1274
(lp1894
g703
ag704
ag705
asg1276
(lp1895
g708
ag709
ag710
astRp1896
stRp1897
sS'CHEMBL107'
p1898
g1
(g2
g3
(dp1899
S'P68363'
p1900
g1
(g2
g3
(dp1901
S'1.10.287.600'
p1902
(lp1903
g1128
ag1129
ag1130
asS'PF03953'
p1904
(lp1905
g1133
ag1134
ag1135
asS'3.30.1330.20'
p1906
(lp1907
g1138
ag1139
ag1140
asS'3.40.50.1440'
p1908
(lp1909
g1120
ag1121
ag1122
asS'PF00091'
p1910
(lp1911
g1115
ag1116
ag1117
astRp1912
stRp1913
sS'CHEMBL454'
p1914
g1
(g2
g3
(dp1915
g1268
g1
(g2
g3
(dp1916
g1270
(lp1917
g693
ag694
ag695
asg1272
(lp1918
g698
ag699
ag700
asg1274
(lp1919
g703
ag704
ag705
asg1276
(lp1920
g708
ag709
ag710
astRp1921
stRp1922
sS'CHEMBL457'
p1923
g1
(g2
g3
(dp1924
S'Q07869'
p1925
g1
(g2
g3
(dp1926
S'PF00104'
p1927
(lp1928
g122
ag123
asS'PF00105'
p1929
(lp1930
g126
ag127
asS'3.30.50.10'
p1931
(lp1932
g130
ag131
asS'1.10.565.10'
p1933
(lp1934
g134
ag135
astRp1935
stRp1936
sS'CHEMBL104'
p1937
g1
(g2
g3
(dp1938
g227
g1
(g2
g3
(dp1939
g229
(lp1940
g231
ag232
asg233
(lp1941
g235
ag236
astRp1942
stRp1943
sS'CHEMBL15891'
p1944
g1
(g2
g3
(dp1945
S'E0W492'
p1946
g1
(g2
g3
(dp1947
S'1.20.58.390'
p1948
(lp1949
g693
ag694
ag695
asS'PF02931'
p1950
(lp1951
g698
ag699
ag700
asS'2.70.170.10'
p1952
(lp1953
g703
ag704
ag705
asS'PF02932'
p1954
(lp1955
g708
ag709
ag710
astRp1956
sS'H9U2W0'
p1957
g1
(g2
g3
(dp1958
S'1.20.58.390'
p1959
(lp1960
g693
ag694
ag695
asS'PF02931'
p1961
(lp1962
g698
ag699
ag700
asS'2.70.170.10'
p1963
(lp1964
g703
ag704
ag705
asS'PF02932'
p1965
(lp1966
g708
ag709
ag710
astRp1967
stRp1968
sS'CHEMBL1764'
p1969
g1
(g2
g3
(dp1970
g1347
g1
(g2
g3
(dp1971
g96
(lp1972
g39
ag40
asg98
(lp1973
g43
ag44
astRp1974
stRp1975
sS'CHEMBL1199080'
p1976
g1
(g2
g3
(dp1977
g396
g1
(g2
g3
(dp1978
g398
(lp1979
g11
ag12
astRp1980
stRp1981
sS'CHEMBL750'
p1982
g1
(g2
g3
(dp1983
g17
g1
(g2
g3
(dp1984
g19
(lp1985
g21
ag22
asg23
(lp1986
g25
ag26
asg27
(lp1987
g29
ag30
astRp1988
stRp1989
sS'CHEMBL1272'
p1990
g1
(g2
g3
(dp1991
g65
g1
(g2
g3
(dp1992
g67
(lp1993
g29
ag30
astRp1994
stRp1995
sS'CHEMBL1189679'
p1996
g1
(g2
g3
(dp1997
g689
g1
(g2
g3
(dp1998
g691
(lp1999
g693
ag694
ag695
asg696
(lp2000
g698
ag699
ag700
asg701
(lp2001
g703
ag704
ag705
asg706
(lp2002
g708
ag709
ag710
astRp2003
stRp2004
sS'CHEMBL1360'
p2005
g1
(g2
g3
(dp2006
S'Q04844'
p2007
g1
(g2
g3
(dp2008
S'1.20.58.390'
p2009
(lp2010
g693
ag694
ag695
asS'PF02931'
p2011
(lp2012
g698
ag699
ag700
asS'2.70.170.10'
p2013
(lp2014
g703
ag704
ag705
asS'PF02932'
p2015
(lp2016
g708
ag709
ag710
astRp2017
stRp2018
sS'CHEMBL1363'
p2019
g1
(g2
g3
(dp2020
g330
g1
(g2
g3
(dp2021
g332
(lp2022
g39
ag40
asg334
(lp2023
g43
ag44
astRp2024
stRp2025
sS'CHEMBL1201776'
p2026
g1
(g2
g3
(dp2027
g312
g1
(g2
g3
(dp2028
g314
(lp2029
g39
ag40
asg316
(lp2030
g43
ag44
astRp2031
sg396
g1
(g2
g3
(dp2032
g398
(lp2033
g11
ag12
astRp2034
stRp2035
sS'CHEMBL2010601'
p2036
g1
(g2
g3
(dp2037
S'P13569'
p2038
g1
(g2
g3
(dp2039
S'1.20.1560.10'
p2040
(lp2041
S'Q5C7Z5'
p2042
aS'D5LRV4'
p2043
asS'PF00005'
p2044
(lp2045
S'G4M278'
p2046
aS'Q5BQQ6'
p2047
asS'3.40.50.300'
p2048
(lp2049
S'A1XBS0'
p2050
aS'C1M0V8'
p2051
asS'PF00664'
p2052
(lp2053
S'D5LRV4'
p2054
aS'Q5C7Z1'
p2055
astRp2056
stRp2057
sS'CHEMBL1201329'
p2058
g1
(g2
g3
(dp2059
S'P32297'
p2060
g1
(g2
g3
(dp2061
S'1.20.58.390'
p2062
(lp2063
g693
ag694
ag695
asS'PF02931'
p2064
(lp2065
g698
ag699
ag700
asS'2.70.170.10'
p2066
(lp2067
g703
ag704
ag705
asS'PF02932'
p2068
(lp2069
g708
ag709
ag710
astRp2070
stRp2071
sS'CHEMBL1201328'
p2072
g1
(g2
g3
(dp2073
g907
g1
(g2
g3
(dp2074
g909
(lp2075
g39
ag40
asg911
(lp2076
g43
ag44
astRp2077
sg87
g1
(g2
g3
(dp2078
g89
(lp2079
g39
ag40
asg91
(lp2080
g43
ag44
astRp2081
sg1347
g1
(g2
g3
(dp2082
g96
(lp2083
g39
ag40
asg98
(lp2084
g43
ag44
astRp2085
stRp2086
sS'CHEMBL709'
p2087
g1
(g2
g3
(dp2088
g379
g1
(g2
g3
(dp2089
g381
(lp2090
g39
ag40
asg383
(lp2091
g43
ag44
astRp2092
stRp2093
sS'CHEMBL1201325'
p2094
g1
(g2
g3
(dp2095
g559
g1
(g2
g3
(dp2096
g561
(lp2097
g39
ag40
asg563
(lp2098
g43
ag44
astRp2099
sg566
g1
(g2
g3
(dp2100
g568
(lp2101
g39
ag40
asg570
(lp2102
g43
ag44
astRp2103
stRp2104
sS'CHEMBL1201323'
p2105
g1
(g2
g3
(dp2106
S'P25021'
p2107
g1
(g2
g3
(dp2108
S'1.20.1070.10'
p2109
(lp2110
g39
ag40
asS'PF00001'
p2111
(lp2112
g43
ag44
astRp2113
stRp2114
sS'CHEMBL1201321'
p2115
g1
(g2
g3
(dp2116
g312
g1
(g2
g3
(dp2117
g314
(lp2118
g39
ag40
asg316
(lp2119
g43
ag44
astRp2120
stRp2121
sS'CHEMBL1201320'
p2122
g1
(g2
g3
(dp2123
S'P20648'
p2124
g1
(g2
g3
(dp2125
S'PF00689'
p2126
(lp2127
S'G4M1H5'
p2128
aS'Q5C3S1'
p2129
asS'PF00122'
p2130
(lp2131
S'Q5BVV2'
p2132
aS'G4M0N5'
p2133
asS'3.40.1110.10'
p2134
(lp2135
S'Q3KZH9'
p2136
aS'C4QPU0'
p2137
asS'PF00690'
p2138
(lp2139
S'G4M1H5'
p2140
aS'Q5D8T0'
p2141
asS'2.70.150.10'
p2142
(lp2143
S'G4M1H5'
p2144
aS'C1LD05'
p2145
asS'1.20.1110.10'
p2146
(lp2147
S'G4M0N6'
p2148
aS'Q5BWL2'
p2149
asS'PF00702'
p2150
(lp2151
S'Q5C7Z8'
p2152
aS'Q26545'
p2153
asS'3.40.50.1000'
p2154
(lp2155
S'C1LFI7'
p2156
aS'C4Q4J8'
p2157
astRp2158
stRp2159
sS'CHEMBL1201245'
p2160
g1
(g2
g3
(dp2161
g35
g1
(g2
g3
(dp2162
g37
(lp2163
g39
ag40
asg41
(lp2164
g43
ag44
astRp2165
stRp2166
sS'CHEMBL1201242'
p2167
g1
(g2
g3
(dp2168
g17
g1
(g2
g3
(dp2169
g19
(lp2170
g21
ag22
asg23
(lp2171
g25
ag26
asg27
(lp2172
g29
ag30
astRp2173
stRp2174
sS'CHEMBL1182833'
p2175
g1
(g2
g3
(dp2176
g2007
g1
(g2
g3
(dp2177
g2009
(lp2178
g693
ag694
ag695
asg2011
(lp2179
g698
ag699
ag700
asg2013
(lp2180
g703
ag704
ag705
asg2015
(lp2181
g708
ag709
ag710
astRp2182
stRp2183
sS'CHEMBL1201248'
p2184
g1
(g2
g3
(dp2185
g2007
g1
(g2
g3
(dp2186
g2009
(lp2187
g693
ag694
ag695
asg2011
(lp2188
g698
ag699
ag700
asg2013
(lp2189
g703
ag704
ag705
asg2015
(lp2190
g708
ag709
ag710
astRp2191
stRp2192
sS'CHEMBL696'
p2193
g1
(g2
g3
(dp2194
S'O95180'
p2195
g1
(g2
g3
(dp2196
S'PF00520'
p2197
(lp2198
g21
ag22
asS'1.10.287.70'
p2199
(lp2200
g29
ag30
astRp2201
stRp2202
sS'CHEMBL1004'
p2203
g1
(g2
g3
(dp2204
g35
g1
(g2
g3
(dp2205
g37
(lp2206
g39
ag40
asg41
(lp2207
g43
ag44
astRp2208
stRp2209
sS'CHEMBL704'
p2210
g1
(g2
g3
(dp2211
g1282
g1
(g2
g3
(dp2212
g1284
(lp2213
g1286
ag1287
asg1288
(lp2214
g1290
ag1291
asg1292
(lp2215
g1294
ag1295
asg1296
(lp2216
g1298
ag1299
astRp2217
sg140
g1
(g2
g3
(dp2218
g142
(lp2219
g144
ag145
asg146
(lp2220
g148
ag149
asg150
(lp2221
g152
ag153
astRp2222
sg1306
g1
(g2
g3
(dp2223
g1308
(lp2224
g122
ag123
asg1310
(lp2225
g126
ag127
asg1312
(lp2226
g130
ag131
asg1314
(lp2227
g134
ag135
astRp2228
stRp2229
sS'CHEMBL972'
p2230
g1
(g2
g3
(dp2231
g183
g1
(g2
g3
(dp2232
g185
(lp2233
g187
ag188
asg189
(lp2234
g191
ag192
asg193
(lp2235
g195
ag196
asg197
(lp2236
g199
ag200
asg201
(lp2237
g203
ag204
astRp2238
stRp2239
sS'CHEMBL1513'
p2240
g1
(g2
g3
(dp2241
g49
g1
(g2
g3
(dp2242
g51
(lp2243
g39
ag40
asg53
(lp2244
g43
ag44
astRp2245
stRp2246
sS'CHEMBL1510'
p2247
g1
(g2
g3
(dp2248
S'P30939'
p2249
g1
(g2
g3
(dp2250
S'1.20.1070.10'
p2251
(lp2252
g39
ag40
asS'PF00001'
p2253
(lp2254
g43
ag44
astRp2255
sS'P28221'
p2256
g1
(g2
g3
(dp2257
S'1.20.1070.10'
p2258
(lp2259
g39
ag40
asS'PF00001'
p2260
(lp2261
g43
ag44
astRp2262
sS'P28222'
p2263
g1
(g2
g3
(dp2264
S'1.20.1070.10'
p2265
(lp2266
g39
ag40
asS'PF00001'
p2267
(lp2268
g43
ag44
astRp2269
stRp2270
sS'CHEMBL607'
p2271
g1
(g2
g3
(dp2272
g312
g1
(g2
g3
(dp2273
g314
(lp2274
g39
ag40
asg316
(lp2275
g43
ag44
astRp2276
stRp2277
sS'CHEMBL976'
p2278
g1
(g2
g3
(dp2279
S'Q95US7'
p2280
g1
(g2
g3
(dp2281
S'PF00625'
p2282
(lp2283
S'A8WCK5'
p2284
aS'G4V6E8'
p2285
asS'3.40.50.300'
p2286
(lp2287
g2050
ag2051
asS'2.30.30.40'
p2288
(lp2289
g1378
ag1379
astRp2290
sS'Q962H3'
p2291
g1
(g2
g3
(dp2292
S'PF00625'
p2293
(lp2294
g2284
ag2285
asS'3.40.50.300'
p2295
(lp2296
g2050
ag2051
asS'2.30.30.40'
p2297
(lp2298
g1378
ag1379
astRp2299
stRp2300
sS'CHEMBL1100'
p2301
g1
(g2
g3
(dp2302
g2195
g1
(g2
g3
(dp2303
g2197
(lp2304
g21
ag22
asg2199
(lp2305
g29
ag30
astRp2306
stRp2307
sS'CHEMBL1514'
p2308
g1
(g2
g3
(dp2309
g312
g1
(g2
g3
(dp2310
g314
(lp2311
g39
ag40
asg316
(lp2312
g43
ag44
astRp2313
stRp2314
sS'CHEMBL603'
p2315
g1
(g2
g3
(dp2316
S'Q9Y271'
p2317
g1
(g2
g3
(dp2318
S'1.20.1070.10'
p2319
(lp2320
g39
ag40
asS'PF00001'
p2321
(lp2322
g43
ag44
astRp2323
stRp2324
sS'CHEMBL479'
p2325
g1
(g2
g3
(dp2326
g907
g1
(g2
g3
(dp2327
g909
(lp2328
g39
ag40
asg911
(lp2329
g43
ag44
astRp2330
sg87
g1
(g2
g3
(dp2331
g89
(lp2332
g39
ag40
asg91
(lp2333
g43
ag44
astRp2334
sg1347
g1
(g2
g3
(dp2335
g96
(lp2336
g39
ag40
asg98
(lp2337
g43
ag44
astRp2338
stRp2339
sS'CHEMBL2097081'
p2340
g1
(g2
g3
(dp2341
g803
g1
(g2
g3
(dp2342
g805
(lp2343
g807
ag808
asg809
(lp2344
g811
asg812
(lp2345
g814
asg815
(lp2346
g817
asg818
(lp2347
g820
ag821
astRp2348
stRp2349
sS'CHEMBL978'
p2350
g1
(g2
g3
(dp2351
g566
g1
(g2
g3
(dp2352
g568
(lp2353
g39
ag40
asg570
(lp2354
g43
ag44
astRp2355
stRp2356
sS'CHEMBL1519'
p2357
g1
(g2
g3
(dp2358
g755
g1
(g2
g3
(dp2359
g757
(lp2360
g759
ag760
astRp2361
stRp2362
sS'CHEMBL608'
p2363
g1
(g2
g3
(dp2364
S'O95477'
p2365
g1
(g2
g3
(dp2366
S'PF00005'
p2367
(lp2368
g2046
ag2047
asS'3.40.50.300'
p2369
(lp2370
g2050
ag2051
asS'PF12698'
p2371
(lp2372
S'G4V5Y9'
p2373
astRp2374
stRp2375
sS'CHEMBL1108'
p2376
g1
(g2
g3
(dp2377
g87
g1
(g2
g3
(dp2378
g89
(lp2379
g39
ag40
asg91
(lp2380
g43
ag44
astRp2381
sg1347
g1
(g2
g3
(dp2382
g96
(lp2383
g39
ag40
asg98
(lp2384
g43
ag44
astRp2385
stRp2386
sS'CHEMBL409542'
p2387
g1
(g2
g3
(dp2388
S'P66446'
p2389
g1
(g2
g3
(dp2390
S'3.30.1320.10'
p2391
(lp2392
S'Q5DEQ7'
p2393
aS'G4LV29'
p2394
asS'PF00886'
p2395
(lp2396
S'Q5DEQ7'
p2397
aS'G4LV29'
p2398
astRp2399
sS'Q2G113'
p2400
g1
(g2
g3
(dp2401
S'3.30.70.60'
p2402
(lp2403
S'G4VNA1'
p2404
aS'C1LNE5'
p2405
asS'PF01250'
p2406
(lp2407
S'G4VNA1'
p2408
aS'Q5DBB1'
p2409
astRp2410
stRp2411
sS'CHEMBL1295'
p2412
g1
(g2
g3
(dp2413
g227
g1
(g2
g3
(dp2414
g229
(lp2415
g231
ag232
asg233
(lp2416
g235
ag236
astRp2417
stRp2418
sS'CHEMBL1297'
p2419
g1
(g2
g3
(dp2420
g140
g1
(g2
g3
(dp2421
g142
(lp2422
g144
ag145
asg146
(lp2423
g148
ag149
asg150
(lp2424
g152
ag153
astRp2425
stRp2426
sS'CHEMBL1291'
p2427
g1
(g2
g3
(dp2428
g330
g1
(g2
g3
(dp2429
g332
(lp2430
g39
ag40
asg334
(lp2431
g43
ag44
astRp2432
sg337
g1
(g2
g3
(dp2433
g339
(lp2434
g39
ag40
asg341
(lp2435
g43
ag44
astRp2436
stRp2437
sS'CHEMBL1290'
p2438
g1
(g2
g3
(dp2439
g330
g1
(g2
g3
(dp2440
g332
(lp2441
g39
ag40
asg334
(lp2442
g43
ag44
astRp2443
sg337
g1
(g2
g3
(dp2444
g339
(lp2445
g39
ag40
asg341
(lp2446
g43
ag44
astRp2447
stRp2448
sS'CHEMBL95'
p2449
g1
(g2
g3
(dp2450
S'P22303'
p2451
g1
(g2
g3
(dp2452
S'PF00135'
p2453
(lp2454
S'Q86GL8'
p2455
aS'Q5C0Z4'
p2456
aS'G4LUT1'
p2457
asS'3.40.50.1820'
p2458
(lp2459
S'Q86GL8'
p2460
aS'C4QK30'
p2461
aS'C1L3S3'
p2462
astRp2463
stRp2464
sS'CHEMBL93'
p2465
g1
(g2
g3
(dp2466
g1282
g1
(g2
g3
(dp2467
g1284
(lp2468
g1286
ag1287
asg1288
(lp2469
g1290
ag1291
asg1292
(lp2470
g1294
ag1295
asg1296
(lp2471
g1298
ag1299
astRp2472
stRp2473
sS'CHEMBL90'
p2474
g1
(g2
g3
(dp2475
g35
g1
(g2
g3
(dp2476
g37
(lp2477
g39
ag40
asg41
(lp2478
g43
ag44
astRp2479
stRp2480
sS'CHEMBL91'
p2481
g1
(g2
g3
(dp2482
g227
g1
(g2
g3
(dp2483
g229
(lp2484
g231
ag232
asg233
(lp2485
g235
ag236
astRp2486
stRp2487
sS'CHEMBL1196'
p2488
g1
(g2
g3
(dp2489
g17
g1
(g2
g3
(dp2490
g19
(lp2491
g21
ag22
asg23
(lp2492
g25
ag26
asg27
(lp2493
g29
ag30
astRp2494
stRp2495
sS'CHEMBL1197'
p2496
g1
(g2
g3
(dp2497
g17
g1
(g2
g3
(dp2498
g19
(lp2499
g21
ag22
asg23
(lp2500
g25
ag26
asg27
(lp2501
g29
ag30
astRp2502
stRp2503
sS'CHEMBL1194'
p2504
g1
(g2
g3
(dp2505
g17
g1
(g2
g3
(dp2506
g19
(lp2507
g21
ag22
asg23
(lp2508
g25
ag26
asg27
(lp2509
g29
ag30
astRp2510
stRp2511
sS'CHEMBL1195'
p2512
g1
(g2
g3
(dp2513
g17
g1
(g2
g3
(dp2514
g19
(lp2515
g21
ag22
asg23
(lp2516
g25
ag26
asg27
(lp2517
g29
ag30
astRp2518
stRp2519
sS'CHEMBL1193'
p2520
g1
(g2
g3
(dp2521
g35
g1
(g2
g3
(dp2522
g37
(lp2523
g39
ag40
asg41
(lp2524
g43
ag44
astRp2525
stRp2526
sS'CHEMBL98'
p2527
g1
(g2
g3
(dp2528
S'Q92769'
p2529
g1
(g2
g3
(dp2530
S'3.40.800.20'
p2531
(lp2532
S'A5H658'
p2533
aS'C1LDW8'
p2534
asS'PF00850'
p2535
(lp2536
S'A5H658'
p2537
aS'Q5C2D1'
p2538
astRp2539
sS'Q9UBN7'
p2540
g1
(g2
g3
(dp2541
S'3.40.800.20'
p2542
(lp2543
g2533
ag2534
asS'PF02148'
p2544
(lp2545
S'G4M151'
p2546
aS'Q5BVR0'
p2547
asS'PF00850'
p2548
(lp2549
g2537
ag2538
asS'3.30.40.10'
p2550
(lp2551
S'B3GUZ8'
p2552
aS'C4QU04'
p2553
astRp2554
sS'O15379'
p2555
g1
(g2
g3
(dp2556
S'3.40.800.20'
p2557
(lp2558
g2533
ag2534
asS'PB003137'
p2559
(lp2560
S'A5H659'
p2561
asS'PF00850'
p2562
(lp2563
g2537
ag2538
astRp2564
sS'Q13547'
p2565
g1
(g2
g3
(dp2566
S'3.40.800.20'
p2567
(lp2568
g2533
ag2534
asS'PF00850'
p2569
(lp2570
g2537
ag2538
astRp2571
stRp2572
sS'CHEMBL1179047'
p2573
g1
(g2
g3
(dp2574
g17
g1
(g2
g3
(dp2575
g19
(lp2576
g21
ag22
asg23
(lp2577
g25
ag26
asg27
(lp2578
g29
ag30
astRp2579
stRp2580
sS'CHEMBL1208'
p2581
g1
(g2
g3
(dp2582
g463
g1
(g2
g3
(dp2583
g465
(lp2584
g467
ag468
asg469
(lp2585
g471
asg472
(lp2586
g474
asg475
(lp2587
g477
ag478
asg479
(lp2588
g481
ag482
asg483
(lp2589
g485
ag486
astRp2590
stRp2591
sS'CHEMBL1560'
p2592
g1
(g2
g3
(dp2593
g755
g1
(g2
g3
(dp2594
g757
(lp2595
g759
ag760
astRp2596
stRp2597
sS'CHEMBL1206'
p2598
g1
(g2
g3
(dp2599
g559
g1
(g2
g3
(dp2600
g561
(lp2601
g39
ag40
asg563
(lp2602
g43
ag44
astRp2603
stRp2604
sS'CHEMBL1431'
p2605
g1
(g2
g3
(dp2606
S'P03886'
p2607
g1
(g2
g3
(dp2608
S'PF00146'
p2609
(lp2610
S'B2D0R0'
p2611
aS'B0FNC5'
p2612
aS'Q3KUH4'
p2613
astRp2614
stRp2615
sS'CHEMBL1200'
p2616
g1
(g2
g3
(dp2617
g17
g1
(g2
g3
(dp2618
g19
(lp2619
g21
ag22
asg23
(lp2620
g25
ag26
asg27
(lp2621
g29
ag30
astRp2622
stRp2623
sS'CHEMBL1201'
p2624
g1
(g2
g3
(dp2625
g87
g1
(g2
g3
(dp2626
g89
(lp2627
g39
ag40
asg91
(lp2628
g43
ag44
astRp2629
sg94
g1
(g2
g3
(dp2630
g96
(lp2631
g39
ag40
asg98
(lp2632
g43
ag44
astRp2633
stRp2634
sS'CHEMBL778'
p2635
g1
(g2
g3
(dp2636
g302
g1
(g2
g3
(dp2637
g304
(lp2638
g39
ag40
asg306
(lp2639
g43
ag44
astRp2640
stRp2641
sS'CHEMBL779'
p2642
g1
(g2
g3
(dp2643
S'O76074'
p2644
g1
(g2
g3
(dp2645
S'3.30.450.40'
p2646
(lp2647
S'Q5C2K7'
p2648
aS'G4VIQ4'
p2649
asS'PF01590'
p2650
(lp2651
S'Q5C0E2'
p2652
aS'G4VIQ4'
p2653
asS'1.10.1300.10'
p2654
(lp2655
S'Q5BYM4'
p2656
aS'G4LUV5'
p2657
asS'1.25.10.10'
p2658
(lp2659
g25
ag26
asS'PF00233'
p2660
(lp2661
S'Q5BYM4'
p2662
aS'G4LUV5'
p2663
astRp2664
stRp2665
sS'CHEMBL2220442'
p2666
g1
(g2
g3
(dp2667
g1157
g1
(g2
g3
(dp2668
g1159
(lp2669
g1161
asg1162
(lp2670
g1164
asg1165
(lp2671
g1167
ag1168
asg1169
(lp2672
g1171
ag1172
asg1173
(lp2673
g1175
ag1176
astRp2674
stRp2675
sS'CHEMBL770'
p2676
g1
(g2
g3
(dp2677
g35
g1
(g2
g3
(dp2678
g37
(lp2679
g39
ag40
asg41
(lp2680
g43
ag44
astRp2681
sS'P18825'
p2682
g1
(g2
g3
(dp2683
g304
(lp2684
g39
ag40
asg306
(lp2685
g43
ag44
astRp2686
sg2107
g1
(g2
g3
(dp2687
g2109
(lp2688
g39
ag40
asg2111
(lp2689
g43
ag44
astRp2690
stRp2691
sS'CHEMBL771'
p2692
g1
(g2
g3
(dp2693
S'P95114'
p2694
g1
(g2
g3
(dp2695
S'3.30.1490.20'
p2696
(lp2697
S'C1L4E9'
p2698
aS'G4LX99'
p2699
asS'3.40.50.20'
p2700
(lp2701
S'G4V7M2'
p2702
aS'Q5DDR2'
p2703
asS'3.30.470.20'
p2704
(lp2705
S'G4V8R8'
p2706
aS'C1LEZ1'
p2707
astRp2708
sS'P0A4X2'
p2709
g1
(g2
g3
(dp2710
S'3.20.20.10'
p2711
(lp2712
S'C1LEV4'
p2713
astRp2714
stRp2715
sS'CHEMBL1744'
p2716
g1
(g2
g3
(dp2717
g396
g1
(g2
g3
(dp2718
g398
(lp2719
g11
ag12
astRp2720
sg401
g1
(g2
g3
(dp2721
g403
(lp2722
g11
ag12
astRp2723
stRp2724
sS'CHEMBL776'
p2725
g1
(g2
g3
(dp2726
g330
g1
(g2
g3
(dp2727
g332
(lp2728
g39
ag40
asg334
(lp2729
g43
ag44
astRp2730
stRp2731
sS'CHEMBL1589'
p2732
g1
(g2
g3
(dp2733
g65
g1
(g2
g3
(dp2734
g67
(lp2735
g29
ag30
astRp2736
stRp2737
sS'CHEMBL673'
p2738
g1
(g2
g3
(dp2739
S'P21397'
p2740
g1
(g2
g3
(dp2741
S'3.90.660.10'
p2742
(lp2743
g187
ag188
asS'1.10.405.10'
p2744
(lp2745
g191
ag192
asS'3.40.50.720'
p2746
(lp2747
g195
ag196
asS'3.50.50.60'
p2748
(lp2749
g199
ag200
asS'PF01593'
p2750
(lp2751
g203
ag204
astRp2752
stRp2753
sS'CHEMBL1425'
p2754
g1
(g2
g3
(dp2755
S'Q06203'
p2756
g1
(g2
g3
(dp2757
S'PF00310'
p2758
(lp2759
S'G4VS93'
p2760
asS'3.60.20.10'
p2761
(lp2762
S'B9VRG0'
p2763
aS'G4LUJ6'
p2764
asS'3.40.50.2020'
p2765
(lp2766
S'C1L5R6'
p2767
aS'G4LWP0'
p2768
asS'PF00156'
p2769
(lp2770
S'Q5DFR6'
p2771
aS'G4LWP0'
p2772
astRp2773
stRp2774
sS'CHEMBL1422'
p2775
g1
(g2
g3
(dp2776
S'P27487'
p2777
g1
(g2
g3
(dp2778
S'PF00930'
p2779
(lp2780
S'G4VMP5'
p2781
asS'PF00326'
p2782
(lp2783
S'G4VI69'
p2784
aS'Q5DEP6'
p2785
asS'2.140.10.30'
p2786
(lp2787
S'G4LZX1'
p2788
aS'Q5C544'
p2789
asS'3.40.50.1820'
p2790
(lp2791
g2460
ag2461
ag2462
astRp2792
stRp2793
sS'CHEMBL1423'
p2794
g1
(g2
g3
(dp2795
g87
g1
(g2
g3
(dp2796
g89
(lp2797
g39
ag40
asg91
(lp2798
g43
ag44
astRp2799
sS'P21917'
p2800
g1
(g2
g3
(dp2801
S'1.20.1070.10'
p2802
(lp2803
g39
ag40
asS'PF00001'
p2804
(lp2805
g43
ag44
astRp2806
stRp2807
sS'CHEMBL677'
p2808
g1
(g2
g3
(dp2809
g302
g1
(g2
g3
(dp2810
g304
(lp2811
g39
ag40
asg306
(lp2812
g43
ag44
astRp2813
stRp2814
sS'CHEMBL1421'
p2815
g1
(g2
g3
(dp2816
S'P29317'
p2817
g1
(g2
g3
(dp2818
S'PF00041'
p2819
(lp2820
g1736
ag1737
asS'PF00536'
p2821
(lp2822
S'G4LZP0'
p2823
aS'Q5BT66'
p2824
asS'1.10.150.50'
p2825
(lp2826
S'C1L583'
p2827
aS'G4LWA5'
p2828
asS'2.60.40.10'
p2829
(lp2830
g1591
ag1592
asS'1.20.5.510'
p2831
(lp2832
S'G4V8L8'
p2833
asS'1.10.510.10'
p2834
(lp2835
g439
ag440
ag441
asS'PF07714'
p2836
(lp2837
g509
ag510
asS'2.60.120.260'
p2838
(lp2839
g1720
ag1721
asS'3.30.200.20'
p2840
(lp2841
g444
ag445
ag446
astRp2842
sS'P07947'
p2843
g1
(g2
g3
(dp2844
S'1.10.510.10'
p2845
(lp2846
g439
ag440
ag441
asS'2.30.30.40'
p2847
(lp2848
g1378
ag1379
asS'PF00017'
p2849
(lp2850
g1382
ag1383
asS'PF07714'
p2851
(lp2852
g509
ag510
asS'3.30.505.10'
p2853
(lp2854
g1388
ag1389
asS'PF00018'
p2855
(lp2856
g1392
ag1393
asS'3.30.200.20'
p2857
(lp2858
g444
ag445
ag446
astRp2859
sg1414
g1
(g2
g3
(dp2860
g1416
(lp2861
g1378
ag1379
asg1418
(lp2862
g1420
asg1421
(lp2863
g1388
ag1389
asg1423
(lp2864
g439
ag440
ag441
asg1425
(lp2865
g509
ag510
asg1427
(lp2866
g1382
ag1383
asg1429
(lp2867
g1431
ag1432
ag1433
asg1434
(lp2868
g1392
ag1393
asg1436
(lp2869
g444
ag445
ag446
astRp2870
sS'P06239'
p2871
g1
(g2
g3
(dp2872
S'1.10.510.10'
p2873
(lp2874
g439
ag440
ag441
asS'2.30.30.40'
p2875
(lp2876
g1378
ag1379
asS'PF00017'
p2877
(lp2878
g1382
ag1383
asS'PF07714'
p2879
(lp2880
g509
ag510
asS'3.30.505.10'
p2881
(lp2882
g1388
ag1389
asS'PF00018'
p2883
(lp2884
g1392
ag1393
asS'3.30.200.20'
p2885
(lp2886
g444
ag445
ag446
astRp2887
sS'P09619'
p2888
g1
(g2
g3
(dp2889
g1671
(lp2890
g1587
ag1588
asg1673
(lp2891
g1675
asg1676
(lp2892
g1591
ag1592
asg1678
(lp2893
g439
ag440
ag441
asg1680
(lp2894
g1581
ag1582
asg1682
(lp2895
g509
ag510
asg1684
(lp2896
g1651
ag1652
asg1686
(lp2897
g444
ag445
ag446
astRp2898
sg1751
g1
(g2
g3
(dp2899
g1753
(lp2900
g439
ag440
ag441
asg1755
(lp2901
g1581
ag1582
asg1757
(lp2902
g509
ag510
asg1759
(lp2903
g1761
ag1762
asg1763
(lp2904
g1675
asg1765
(lp2905
g1591
ag1592
asg1767
(lp2906
g444
ag445
ag446
astRp2907
stRp2908
sS'CHEMBL1581'
p2909
g1
(g2
g3
(dp2910
g755
g1
(g2
g3
(dp2911
g757
(lp2912
g759
ag760
astRp2913
stRp2914
sS'CHEMBL1071'
p2915
g1
(g2
g3
(dp2916
g140
g1
(g2
g3
(dp2917
g142
(lp2918
g144
ag145
asg146
(lp2919
g148
ag149
asg150
(lp2920
g152
ag153
astRp2921
stRp2922
sS'CHEMBL1587'
p2923
g1
(g2
g3
(dp2924
g1519
g1
(g2
g3
(dp2925
g1521
(lp2926
g286
astRp2927
stRp2928
sS'CHEMBL1070'
p2929
g1
(g2
g3
(dp2930
g256
g1
(g2
g3
(dp2931
g258
(lp2932
g144
ag145
asg260
(lp2933
g148
ag149
asg262
(lp2934
g152
ag153
astRp2935
stRp2936
sS'CHEMBL301265'
p2937
g1
(g2
g3
(dp2938
g1347
g1
(g2
g3
(dp2939
g96
(lp2940
g39
ag40
asg98
(lp2941
g43
ag44
astRp2942
stRp2943
sS'CHEMBL434394'
p2944
g1
(g2
g3
(dp2945
g330
g1
(g2
g3
(dp2946
g332
(lp2947
g39
ag40
asg334
(lp2948
g43
ag44
astRp2949
sg337
g1
(g2
g3
(dp2950
g339
(lp2951
g39
ag40
asg341
(lp2952
g43
ag44
astRp2953
stRp2954
sS'CHEMBL634'
p2955
g1
(g2
g3
(dp2956
g312
g1
(g2
g3
(dp2957
g314
(lp2958
g39
ag40
asg316
(lp2959
g43
ag44
astRp2960
stRp2961
sS'CHEMBL578'
p2962
g1
(g2
g3
(dp2963
g755
g1
(g2
g3
(dp2964
g757
(lp2965
g759
ag760
astRp2966
stRp2967
sS'CHEMBL981'
p2968
g1
(g2
g3
(dp2969
g1925
g1
(g2
g3
(dp2970
g1927
(lp2971
g122
ag123
asg1929
(lp2972
g126
ag127
asg1931
(lp2973
g130
ag131
asg1933
(lp2974
g134
ag135
astRp2975
stRp2976
sS'CHEMBL808'
p2977
g1
(g2
g3
(dp2978
g227
g1
(g2
g3
(dp2979
g229
(lp2980
g231
ag232
asg233
(lp2981
g235
ag236
astRp2982
stRp2983
sS'CHEMBL809'
p2984
g1
(g2
g3
(dp2985
g7
g1
(g2
g3
(dp2986
g9
(lp2987
g11
ag12
astRp2988
stRp2989
sS'CHEMBL1201293'
p2990
g1
(g2
g3
(dp2991
g1044
g1
(g2
g3
(dp2992
g1046
(lp2993
g1048
ag1049
asg1050
(lp2994
g1052
ag1053
asg1054
(lp2995
g1056
ag1057
asg1058
(lp2996
g1060
asg1061
(lp2997
g29
ag30
asg1063
(lp2998
g1065
ag1066
astRp2999
sg1268
g1
(g2
g3
(dp3000
g1270
(lp3001
g693
ag694
ag695
asg1272
(lp3002
g698
ag699
ag700
asg1274
(lp3003
g703
ag704
ag705
asg1276
(lp3004
g708
ag709
ag710
astRp3005
stRp3006
sS'CHEMBL559'
p3007
g1
(g2
g3
(dp3008
g118
g1
(g2
g3
(dp3009
g120
(lp3010
g122
ag123
asg124
(lp3011
g126
ag127
asg128
(lp3012
g130
ag131
asg132
(lp3013
g134
ag135
astRp3014
stRp3015
sS'CHEMBL554'
p3016
g1
(g2
g3
(dp3017
S'P00533'
p3018
g1
(g2
g3
(dp3019
S'PF01030'
p3020
(lp3021
S'Q5DGM4'
p3022
aS'G4M1E6'
p3023
asS'2.10.220.10'
p3024
(lp3025
S'G4VRX7'
p3026
aS'Q5C4K2'
p3027
asS'1.20.5.100'
p3028
(lp3029
S'Q5C234'
p3030
aS'G4VAP6'
p3031
asS'3.80.20.20'
p3032
(lp3033
S'G4VEU5'
p3034
aS'Q5BR80'
p3035
asS'1.10.510.10'
p3036
(lp3037
g439
ag440
ag441
asS'PF07714'
p3038
(lp3039
g509
ag510
asS'PF14843'
p3040
(lp3041
S'G4M1E6'
p3042
asS'3.30.200.20'
p3043
(lp3044
g444
ag445
ag446
asS'PF00757'
p3045
(lp3046
S'C7DT89'
p3047
aS'G4VRX5'
p3048
astRp3049
sS'P04626'
p3050
g1
(g2
g3
(dp3051
S'PF01030'
p3052
(lp3053
g3022
ag3023
asS'2.10.220.10'
p3054
(lp3055
g3026
ag3027
asS'1.20.5.100'
p3056
(lp3057
g3030
ag3031
asS'3.80.20.20'
p3058
(lp3059
g3034
ag3035
asS'1.10.510.10'
p3060
(lp3061
g439
ag440
ag441
asS'PF07714'
p3062
(lp3063
g509
ag510
asS'PF14843'
p3064
(lp3065
g3042
asS'3.30.200.20'
p3066
(lp3067
g444
ag445
ag446
asS'PF00757'
p3068
(lp3069
g3047
ag3048
astRp3070
stRp3071
sS'CHEMBL1079'
p3072
g1
(g2
g3
(dp3073
g302
g1
(g2
g3
(dp3074
g304
(lp3075
g39
ag40
asg306
(lp3076
g43
ag44
astRp3077
stRp3078
sS'CHEMBL1201117'
p3079
g1
(g2
g3
(dp3080
S'P00915'
p3081
g1
(g2
g3
(dp3082
S'PF00194'
p3083
(lp3084
S'G4M116'
p3085
aS'Q5BRC9'
p3086
asS'3.10.200.10'
p3087
(lp3088
S'G4M116'
p3089
aS'C1LFK7'
p3090
astRp3091
stRp3092
sS'CHEMBL550'
p3093
g1
(g2
g3
(dp3094
g566
g1
(g2
g3
(dp3095
g568
(lp3096
g39
ag40
asg570
(lp3097
g43
ag44
astRp3098
stRp3099
sS'CHEMBL807'
p3100
g1
(g2
g3
(dp3101
g1044
g1
(g2
g3
(dp3102
g1046
(lp3103
g1048
ag1049
asg1050
(lp3104
g1052
ag1053
asg1054
(lp3105
g1056
ag1057
asg1058
(lp3106
g1060
asg1061
(lp3107
g29
ag30
asg1063
(lp3108
g1065
ag1066
astRp3109
stRp3110
sS'CHEMBL553'
p3111
g1
(g2
g3
(dp3112
g3018
g1
(g2
g3
(dp3113
g3020
(lp3114
g3022
ag3023
asg3024
(lp3115
g3026
ag3027
asg3028
(lp3116
g3030
ag3031
asg3032
(lp3117
g3034
ag3035
asg3036
(lp3118
g439
ag440
ag441
asg3038
(lp3119
g509
ag510
asg3040
(lp3120
g3042
asg3043
(lp3121
g444
ag445
ag446
asg3045
(lp3122
g3047
ag3048
astRp3123
stRp3124
sS'CHEMBL415'
p3125
g1
(g2
g3
(dp3126
g7
g1
(g2
g3
(dp3127
g9
(lp3128
g11
ag12
astRp3129
stRp3130
sS'CHEMBL411'
p3131
g1
(g2
g3
(dp3132
S'P03372'
p3133
g1
(g2
g3
(dp3134
S'PF00104'
p3135
(lp3136
g122
ag123
asS'PF00105'
p3137
(lp3138
g126
ag127
asS'3.30.50.10'
p3139
(lp3140
g130
ag131
asS'1.10.565.10'
p3141
(lp3142
g134
ag135
astRp3143
stRp3144
sS'CHEMBL1172'
p3145
g1
(g2
g3
(dp3146
g35
g1
(g2
g3
(dp3147
g37
(lp3148
g39
ag40
asg41
(lp3149
g43
ag44
astRp3150
stRp3151
sS'CHEMBL1639'
p3152
g1
(g2
g3
(dp3153
S'P00797'
p3154
g1
(g2
g3
(dp3155
S'PF07966'
p3156
(lp3157
S'Q8MPH4'
p3158
asS'PF00026'
p3159
(lp3160
S'B3W660'
p3161
aS'B0L5P6'
p3162
asS'2.40.70.10'
p3163
(lp3164
g894
ag895
astRp3165
stRp3166
sS'CHEMBL1734'
p3167
g1
(g2
g3
(dp3168
g765
g1
(g2
g3
(dp3169
g767
(lp3170
g39
ag40
asg769
(lp3171
g43
ag44
astRp3172
sg566
g1
(g2
g3
(dp3173
g568
(lp3174
g39
ag40
asg570
(lp3175
g43
ag44
astRp3176
stRp3177
sS'CHEMBL1201191'
p3178
g1
(g2
g3
(dp3179
g35
g1
(g2
g3
(dp3180
g37
(lp3181
g39
ag40
asg41
(lp3182
g43
ag44
astRp3183
stRp3184
sS'CHEMBL785'
p3185
g1
(g2
g3
(dp3186
g330
g1
(g2
g3
(dp3187
g332
(lp3188
g39
ag40
asg334
(lp3189
g43
ag44
astRp3190
stRp3191
sS'CHEMBL787'
p3192
g1
(g2
g3
(dp3193
g2317
g1
(g2
g3
(dp3194
g2319
(lp3195
g39
ag40
asg2321
(lp3196
g43
ag44
astRp3197
stRp3198
sS'CHEMBL781'
p3199
g1
(g2
g3
(dp3200
g865
g1
(g2
g3
(dp3201
g398
(lp3202
g11
ag12
astRp3203
stRp3204
sS'CHEMBL783'
p3205
g1
(g2
g3
(dp3206
g65
g1
(g2
g3
(dp3207
g67
(lp3208
g29
ag30
astRp3209
stRp3210
sS'CHEMBL782'
p3211
g1
(g2
g3
(dp3212
g65
g1
(g2
g3
(dp3213
g67
(lp3214
g29
ag30
astRp3215
stRp3216
sS'CHEMBL7413'
p3217
g1
(g2
g3
(dp3218
g1268
g1
(g2
g3
(dp3219
g1270
(lp3220
g693
ag694
ag695
asg1272
(lp3221
g698
ag699
ag700
asg1274
(lp3222
g703
ag704
ag705
asg1276
(lp3223
g708
ag709
ag710
astRp3224
stRp3225
sS'CHEMBL1873475'
p3226
g1
(g2
g3
(dp3227
S'Q06187'
p3228
g1
(g2
g3
(dp3229
S'PF00169'
p3230
(lp3231
S'Q5BWX3'
p3232
aS'C4QKX0'
p3233
asS'2.30.30.40'
p3234
(lp3235
g1378
ag1379
asS'4.10.1130.10'
p3236
(lp3237
S'G4V5Z2'
p3238
asS'3.30.505.10'
p3239
(lp3240
g1388
ag1389
asS'2.30.29.30'
p3241
(lp3242
S'B5B7R0'
p3243
aS'C4QKX0'
p3244
asS'1.10.510.10'
p3245
(lp3246
g439
ag440
ag441
asS'PF07714'
p3247
(lp3248
g509
ag510
asS'PF00017'
p3249
(lp3250
g1382
ag1383
asS'PF00779'
p3251
(lp3252
S'G4V5Z2'
p3253
asS'PF00018'
p3254
(lp3255
g1392
ag1393
asS'3.30.200.20'
p3256
(lp3257
g444
ag445
ag446
astRp3258
stRp3259
sS'CHEMBL897'
p3260
g1
(g2
g3
(dp3261
S'Q4U2R8'
p3262
g1
(g2
g3
(dp3263
S'1.20.1250.20'
p3264
(lp3265
g410
ag411
asS'PF00083'
p3266
(lp3267
S'Q5BWK4'
p3268
aS'G4V9R8'
p3269
astRp3270
sS'Q8TCC7'
p3271
g1
(g2
g3
(dp3272
S'1.20.1250.20'
p3273
(lp3274
g410
ag411
asS'PF00083'
p3275
(lp3276
g3268
ag3269
astRp3277
sS'Q9NSA0'
p3278
g1
(g2
g3
(dp3279
S'1.20.1250.20'
p3280
(lp3281
g410
ag411
asS'PF00083'
p3282
(lp3283
g3268
ag3269
astRp3284
stRp3285
sS'CHEMBL896'
p3286
g1
(g2
g3
(dp3287
g35
g1
(g2
g3
(dp3288
g37
(lp3289
g39
ag40
asg41
(lp3290
g43
ag44
astRp3291
stRp3292
sS'CHEMBL898'
p3293
g1
(g2
g3
(dp3294
g140
g1
(g2
g3
(dp3295
g142
(lp3296
g144
ag145
asg146
(lp3297
g148
ag149
asg150
(lp3298
g152
ag153
astRp3299
stRp3300
sS'CHEMBL973'
p3301
g1
(g2
g3
(dp3302
S'Q02127'
p3303
g1
(g2
g3
(dp3304
S'PF01180'
p3305
(lp3306
S'Q5BVT7'
p3307
aS'G4VFD7'
p3308
asS'3.20.20.70'
p3309
(lp3310
S'C4PZQ3'
p3311
aS'B3GUX0'
p3312
aS'A5A6F9'
p3313
astRp3314
stRp3315
sS'CHEMBL1201281'
p3316
g1
(g2
g3
(dp3317
S'P0A7J3'
p3318
g1
(g2
g3
(dp3319
S'PF00466'
p3320
(lp3321
S'B3GUY4'
p3322
aS'C4PZS6'
p3323
astRp3324
stRp3325
sS'CHEMBL970'
p3326
g1
(g2
g3
(dp3327
g1268
g1
(g2
g3
(dp3328
g1270
(lp3329
g693
ag694
ag695
asg1272
(lp3330
g698
ag699
ag700
asg1274
(lp3331
g703
ag704
ag705
asg1276
(lp3332
g708
ag709
ag710
astRp3333
stRp3334
sS'CHEMBL894'
p3335
g1
(g2
g3
(dp3336
g396
g1
(g2
g3
(dp3337
g398
(lp3338
g11
ag12
astRp3339
sg401
g1
(g2
g3
(dp3340
g403
(lp3341
g11
ag12
astRp3342
stRp3343
sS'CHEMBL1201208'
p3344
g1
(g2
g3
(dp3345
g396
g1
(g2
g3
(dp3346
g398
(lp3347
g11
ag12
astRp3348
sg401
g1
(g2
g3
(dp3349
g403
(lp3350
g11
ag12
astRp3351
stRp3352
sS'CHEMBL1106'
p3353
g1
(g2
g3
(dp3354
g35
g1
(g2
g3
(dp3355
g37
(lp3356
g39
ag40
asg41
(lp3357
g43
ag44
astRp3358
stRp3359
sS'CHEMBL521'
p3360
g1
(g2
g3
(dp3361
g140
g1
(g2
g3
(dp3362
g142
(lp3363
g144
ag145
asg146
(lp3364
g148
ag149
asg150
(lp3365
g152
ag153
astRp3366
stRp3367
sS'CHEMBL1201201'
p3368
g1
(g2
g3
(dp3369
g865
g1
(g2
g3
(dp3370
g398
(lp3371
g11
ag12
astRp3372
stRp3373
sS'CHEMBL1200443'
p3374
g1
(g2
g3
(dp3375
g17
g1
(g2
g3
(dp3376
g19
(lp3377
g21
ag22
asg23
(lp3378
g25
ag26
asg27
(lp3379
g29
ag30
astRp3380
stRp3381
sS'CHEMBL1201203'
p3382
g1
(g2
g3
(dp3383
g559
g1
(g2
g3
(dp3384
g561
(lp3385
g39
ag40
asg563
(lp3386
g43
ag44
astRp3387
stRp3388
sS'CHEMBL524'
p3389
g1
(g2
g3
(dp3390
g379
g1
(g2
g3
(dp3391
g381
(lp3392
g39
ag40
asg383
(lp3393
g43
ag44
astRp3394
stRp3395
sS'CHEMBL527'
p3396
g1
(g2
g3
(dp3397
g140
g1
(g2
g3
(dp3398
g142
(lp3399
g144
ag145
asg146
(lp3400
g148
ag149
asg150
(lp3401
g152
ag153
astRp3402
stRp3403
sS'CHEMBL526'
p3404
g1
(g2
g3
(dp3405
g1268
g1
(g2
g3
(dp3406
g1270
(lp3407
g693
ag694
ag695
asg1272
(lp3408
g698
ag699
ag700
asg1274
(lp3409
g703
ag704
ag705
asg1276
(lp3410
g708
ag709
ag710
astRp3411
stRp3412
sS'CHEMBL1138'
p3413
g1
(g2
g3
(dp3414
S'Q9UHC9'
p3415
g1
(g2
g3
(dp3416
S'PF12349'
p3417
(lp3418
g1161
asS'PF02460'
p3419
(lp3420
S'G4M0J8'
p3421
aS'Q5C0X8'
p3422
asS'1.20.1640.10'
p3423
(lp3424
g1175
ag1176
astRp3425
stRp3426
sS'CHEMBL154'
p3427
g1
(g2
g3
(dp3428
g140
g1
(g2
g3
(dp3429
g142
(lp3430
g144
ag145
asg146
(lp3431
g148
ag149
asg150
(lp3432
g152
ag153
astRp3433
stRp3434
sS'CHEMBL1200689'
p3435
g1
(g2
g3
(dp3436
g803
g1
(g2
g3
(dp3437
g805
(lp3438
g807
ag808
asg809
(lp3439
g811
asg812
(lp3440
g814
asg815
(lp3441
g817
asg818
(lp3442
g820
ag821
astRp3443
stRp3444
sS'CHEMBL158'
p3445
g1
(g2
g3
(dp3446
S'P02918'
p3447
g1
(g2
g3
(dp3448
S'2.40.50.140'
p3449
(lp3450
S'C1L3R9'
p3451
aS'G4LXC4'
p3452
asS'3.40.710.10'
p3453
(lp3454
S'G4VKT6'
p3455
aS'Q5BXM2'
p3456
astRp3457
stRp3458
sS'CHEMBL1515'
p3459
g1
(g2
g3
(dp3460
S'P07202'
p3461
g1
(g2
g3
(dp3462
S'1.10.640.10'
p3463
(lp3464
g144
ag145
asS'PF03098'
p3465
(lp3466
g148
ag149
asS'2.10.25.10'
p3467
(lp3468
g152
ag153
asS'2.10.70.10'
p3469
(lp3470
S'C1LG80'
p3471
aS'C4QRP9'
p3472
asS'PF07645'
p3473
(lp3474
S'Q5C5F4'
p3475
aS'G4LUK9'
p3476
astRp3477
stRp3478
sS'CHEMBL2368925'
p3479
g1
(g2
g3
(dp3480
g689
g1
(g2
g3
(dp3481
g691
(lp3482
g693
ag694
ag695
asg696
(lp3483
g698
ag699
ag700
asg701
(lp3484
g703
ag704
ag705
asg706
(lp3485
g708
ag709
ag710
astRp3486
stRp3487
sS'CHEMBL1237132'
p3488
g1
(g2
g3
(dp3489
g1071
g1
(g2
g3
(dp3490
g1073
(lp3491
g21
ag22
asg1075
(lp3492
g29
ag30
asg1077
(lp3493
g221
ag222
astRp3494
stRp3495
sS'CHEMBL1200468'
p3496
g1
(g2
g3
(dp3497
S'A2PZ98'
p3498
g1
(g2
g3
(dp3499
S'PF00135'
p3500
(lp3501
g2455
ag2456
ag2457
asS'3.40.50.1820'
p3502
(lp3503
g2460
ag2461
ag2462
astRp3504
stRp3505
sS'CHEMBL1201069'
p3506
g1
(g2
g3
(dp3507
g559
g1
(g2
g3
(dp3508
g561
(lp3509
g39
ag40
asg563
(lp3510
g43
ag44
astRp3511
stRp3512
sS'CHEMBL1399'
p3513
g1
(g2
g3
(dp3514
S'P11511'
p3515
g1
(g2
g3
(dp3516
S'PF00067'
p3517
(lp3518
g231
ag232
asS'1.10.630.10'
p3519
(lp3520
g235
ag236
astRp3521
stRp3522
sS'CHEMBL979'
p3523
g1
(g2
g3
(dp3524
g1268
g1
(g2
g3
(dp3525
g1270
(lp3526
g693
ag694
ag695
asg1272
(lp3527
g698
ag699
ag700
asg1274
(lp3528
g703
ag704
ag705
asg1276
(lp3529
g708
ag709
ag710
astRp3530
stRp3531
sS'CHEMBL1257'
p3532
g1
(g2
g3
(dp3533
S'P57789'
p3534
g1
(g2
g3
(dp3535
S'PF07885'
p3536
(lp3537
g668
ag669
asS'PB000703'
p3538
(lp3539
S'G4VK00'
p3540
aS'Q5C1P2'
p3541
asS'1.10.287.70'
p3542
(lp3543
g29
ag30
astRp3544
sS'P48167'
p3545
g1
(g2
g3
(dp3546
S'1.20.58.390'
p3547
(lp3548
g693
ag694
ag695
asS'PF02931'
p3549
(lp3550
g698
ag699
ag700
asS'2.70.170.10'
p3551
(lp3552
g703
ag704
ag705
asS'PF02932'
p3553
(lp3554
g708
ag709
ag710
astRp3555
sg1268
g1
(g2
g3
(dp3556
g1270
(lp3557
g693
ag694
ag695
asg1272
(lp3558
g698
ag699
ag700
asg1274
(lp3559
g703
ag704
ag705
asg1276
(lp3560
g708
ag709
ag710
astRp3561
sS'Q7Z418'
p3562
g1
(g2
g3
(dp3563
S'PF07885'
p3564
(lp3565
g668
ag669
asS'1.10.287.70'
p3566
(lp3567
g29
ag30
astRp3568
sS'O95069'
p3569
g1
(g2
g3
(dp3570
S'PF07885'
p3571
(lp3572
g668
ag669
asS'1.10.287.70'
p3573
(lp3574
g29
ag30
astRp3575
sS'Q9NPC2'
p3576
g1
(g2
g3
(dp3577
S'PF07885'
p3578
(lp3579
g668
ag669
asS'1.10.287.70'
p3580
(lp3581
g29
ag30
astRp3582
sS'O14649'
p3583
g1
(g2
g3
(dp3584
S'PF07885'
p3585
(lp3586
g668
ag669
asS'1.10.287.70'
p3587
(lp3588
g29
ag30
astRp3589
stRp3590
sS'CHEMBL1256'
p3591
g1
(g2
g3
(dp3592
g3534
g1
(g2
g3
(dp3593
g3536
(lp3594
g668
ag669
asg3538
(lp3595
g3540
ag3541
asg3542
(lp3596
g29
ag30
astRp3597
sg3545
g1
(g2
g3
(dp3598
g3547
(lp3599
g693
ag694
ag695
asg3549
(lp3600
g698
ag699
ag700
asg3551
(lp3601
g703
ag704
ag705
asg3553
(lp3602
g708
ag709
ag710
astRp3603
sg1268
g1
(g2
g3
(dp3604
g1270
(lp3605
g693
ag694
ag695
asg1272
(lp3606
g698
ag699
ag700
asg1274
(lp3607
g703
ag704
ag705
asg1276
(lp3608
g708
ag709
ag710
astRp3609
sg3562
g1
(g2
g3
(dp3610
g3564
(lp3611
g668
ag669
asg3566
(lp3612
g29
ag30
astRp3613
sg3569
g1
(g2
g3
(dp3614
g3571
(lp3615
g668
ag669
asg3573
(lp3616
g29
ag30
astRp3617
sg3576
g1
(g2
g3
(dp3618
g3578
(lp3619
g668
ag669
asg3580
(lp3620
g29
ag30
astRp3621
sg3583
g1
(g2
g3
(dp3622
g3585
(lp3623
g668
ag669
asg3587
(lp3624
g29
ag30
astRp3625
stRp3626
sS'CHEMBL539697'
p3627
g1
(g2
g3
(dp3628
S'P00734'
p3629
g1
(g2
g3
(dp3630
S'2.40.10.10'
p3631
(lp3632
S'Q8MUV5'
p3633
aS'G4M1L5'
p3634
aS'Q5BSE6'
p3635
asS'2.40.20.10'
p3636
(lp3637
S'G4LX52'
p3638
asS'PF00089'
p3639
(lp3640
S'G8XRZ2'
p3641
aS'C4QUA1'
p3642
aS'Q8MUV5'
p3643
asS'PF00051'
p3644
(lp3645
S'G4VK82'
p3646
astRp3647
stRp3648
sS'CHEMBL473417'
p3649
g1
(g2
g3
(dp3650
S'Q99835'
p3651
g1
(g2
g3
(dp3652
S'PF01534'
p3653
(lp3654
S'G4LUU9'
p3655
aS'Q5C2E0'
p3656
asS'1.10.2000.10'
p3657
(lp3658
S'C1L3T3'
p3659
aS'G4M1Q0'
p3660
asS'PF01392'
p3661
(lp3662
S'G4VJK4'
p3663
aS'Q5C338'
p3664
astRp3665
stRp3666
sS'CHEMBL221959'
p3667
g1
(g2
g3
(dp3668
S'P23458'
p3669
g1
(g2
g3
(dp3670
S'1.10.510.10'
p3671
(lp3672
g439
ag440
ag441
asS'3.30.505.10'
p3673
(lp3674
g1388
ag1389
asS'PF07714'
p3675
(lp3676
g509
ag510
asS'3.30.200.20'
p3677
(lp3678
g444
ag445
ag446
asS'1.20.80.10'
p3679
(lp3680
S'C1L6K1'
p3681
aS'G4LWV5'
p3682
astRp3683
stRp3684
sS'CHEMBL1396'
p3685
g1
(g2
g3
(dp3686
S'P43681'
p3687
g1
(g2
g3
(dp3688
S'1.20.58.390'
p3689
(lp3690
g693
ag694
ag695
asS'PF02931'
p3691
(lp3692
g698
ag699
ag700
asS'2.70.170.10'
p3693
(lp3694
g703
ag704
ag705
asS'PF02932'
p3695
(lp3696
g708
ag709
ag710
astRp3697
stRp3698
sS'CHEMBL1397'
p3699
g1
(g2
g3
(dp3700
g227
g1
(g2
g3
(dp3701
g229
(lp3702
g231
ag232
asg233
(lp3703
g235
ag236
astRp3704
stRp3705
sS'CHEMBL1213351'
p3706
g1
(g2
g3
(dp3707
g312
g1
(g2
g3
(dp3708
g314
(lp3709
g39
ag40
asg316
(lp3710
g43
ag44
astRp3711
stRp3712
sS'CHEMBL1180725'
p3713
g1
(g2
g3
(dp3714
g765
g1
(g2
g3
(dp3715
g767
(lp3716
g39
ag40
asg769
(lp3717
g43
ag44
astRp3718
sg559
g1
(g2
g3
(dp3719
g561
(lp3720
g39
ag40
asg563
(lp3721
g43
ag44
astRp3722
sg566
g1
(g2
g3
(dp3723
g568
(lp3724
g39
ag40
asg570
(lp3725
g43
ag44
astRp3726
stRp3727
sS'CHEMBL24828'
p3728
g1
(g2
g3
(dp3729
g1372
g1
(g2
g3
(dp3730
g1374
(lp3731
g439
ag440
ag441
asg1376
(lp3732
g1378
ag1379
asg1380
(lp3733
g1382
ag1383
asg1384
(lp3734
g509
ag510
asg1386
(lp3735
g1388
ag1389
asg1390
(lp3736
g1392
ag1393
asg1394
(lp3737
g444
ag445
ag446
astRp3738
sS'P00533'
p3739
g1
(g2
g3
(dp3740
g3020
(lp3741
g3022
ag3023
asg3024
(lp3742
g3026
ag3027
asg3028
(lp3743
g3030
ag3031
asg3032
(lp3744
g3034
ag3035
asg3036
(lp3745
g439
ag440
ag441
asg3038
(lp3746
g509
ag510
asg3040
(lp3747
g3042
asg3043
(lp3748
g444
ag445
ag446
asg3045
(lp3749
g3047
ag3048
astRp3750
sS'Q13882'
p3751
g1
(g2
g3
(dp3752
S'1.10.510.10'
p3753
(lp3754
g439
ag440
ag441
asS'2.30.30.40'
p3755
(lp3756
g1378
ag1379
asS'PF00017'
p3757
(lp3758
g1382
ag1383
asS'PF07714'
p3759
(lp3760
g509
ag510
asS'3.30.505.10'
p3761
(lp3762
g1388
ag1389
asS'PF14604'
p3763
(lp3764
S'G4VJC2'
p3765
aS'Q5C288'
p3766
asS'3.30.200.20'
p3767
(lp3768
g444
ag445
ag446
astRp3769
sg1732
g1
(g2
g3
(dp3770
g1734
(lp3771
g1736
ag1737
asg1738
(lp3772
g439
ag440
ag441
asg1740
(lp3773
g1742
ag1743
asg1744
(lp3774
g509
ag510
asg1746
(lp3775
g1591
ag1592
asg1748
(lp3776
g444
ag445
ag446
astRp3777
sg1633
g1
(g2
g3
(dp3778
g1635
(lp3779
g1637
ag1638
asg1639
(lp3780
g1587
ag1588
asg1641
(lp3781
g1591
ag1592
asg1643
(lp3782
g439
ag440
ag441
asg1645
(lp3783
g1581
ag1582
asg1647
(lp3784
g509
ag510
asg1649
(lp3785
g1651
ag1652
asg1653
(lp3786
g444
ag445
ag446
astRp3787
sS'P54764'
p3788
g1
(g2
g3
(dp3789
S'PF00041'
p3790
(lp3791
g1736
ag1737
asS'2.10.50.10'
p3792
(lp3793
S'G4VIL7'
p3794
aS'Q5BVZ1'
p3795
asS'1.10.150.50'
p3796
(lp3797
g2827
ag2828
asS'2.60.40.10'
p3798
(lp3799
g1591
ag1592
asS'1.10.510.10'
p3800
(lp3801
g439
ag440
ag441
asS'PF07647'
p3802
(lp3803
S'C7TYB3'
p3804
aS'G4LWA5'
p3805
asS'PF07714'
p3806
(lp3807
g509
ag510
asS'2.60.120.260'
p3808
(lp3809
g1720
ag1721
asS'3.30.200.20'
p3810
(lp3811
g444
ag445
ag446
astRp3812
sg1770
g1
(g2
g3
(dp3813
g1772
(lp3814
g439
ag440
ag441
asg1774
(lp3815
g1776
ag1777
asg1778
(lp3816
g1780
ag1781
asg1782
(lp3817
g509
ag510
asg1784
(lp3818
g444
ag445
ag446
asg1786
(lp3819
g1788
ag1789
astRp3820
stRp3821
sS'CHEMBL1201274'
p3822
g1
(g2
g3
(dp3823
g337
g1
(g2
g3
(dp3824
g339
(lp3825
g39
ag40
asg341
(lp3826
g43
ag44
astRp3827
stRp3828
sS'CHEMBL1201271'
p3829
g1
(g2
g3
(dp3830
g35
g1
(g2
g3
(dp3831
g37
(lp3832
g39
ag40
asg41
(lp3833
g43
ag44
astRp3834
stRp3835
sS'CHEMBL1201273'
p3836
g1
(g2
g3
(dp3837
g330
g1
(g2
g3
(dp3838
g332
(lp3839
g39
ag40
asg334
(lp3840
g43
ag44
astRp3841
stRp3842
sS'CHEMBL1200598'
p3843
g1
(g2
g3
(dp3844
S'P03372'
p3845
g1
(g2
g3
(dp3846
g3135
(lp3847
g122
ag123
asg3137
(lp3848
g126
ag127
asg3139
(lp3849
g130
ag131
asg3141
(lp3850
g134
ag135
astRp3851
stRp3852
sS'CHEMBL1200842'
p3853
g1
(g2
g3
(dp3854
S'E1FVX6'
p3855
g1
(g2
g3
(dp3856
S'1.20.58.390'
p3857
(lp3858
g693
ag694
ag695
asS'PF02931'
p3859
(lp3860
g698
ag699
ag700
asS'2.70.170.10'
p3861
(lp3862
g703
ag704
ag705
asS'PF02932'
p3863
(lp3864
g708
ag709
ag710
astRp3865
stRp3866
sS'CHEMBL1324'
p3867
g1
(g2
g3
(dp3868
S'P21964'
p3869
g1
(g2
g3
(dp3870
S'PF01596'
p3871
(lp3872
S'G4VHP2'
p3873
aS'Q5D9S6'
p3874
asS'3.40.50.150'
p3875
(lp3876
S'C1L4C6'
p3877
aS'C4QC82'
p3878
astRp3879
stRp3880
sS'CHEMBL1075'
p3881
g1
(g2
g3
(dp3882
g17
g1
(g2
g3
(dp3883
g19
(lp3884
g21
ag22
asg23
(lp3885
g25
ag26
asg27
(lp3886
g29
ag30
astRp3887
stRp3888
sS'CHEMBL1077'
p3889
g1
(g2
g3
(dp3890
g140
g1
(g2
g3
(dp3891
g142
(lp3892
g144
ag145
asg146
(lp3893
g148
ag149
asg150
(lp3894
g152
ag153
astRp3895
stRp3896
sS'CHEMBL639'
p3897
g1
(g2
g3
(dp3898
g35
g1
(g2
g3
(dp3899
g37
(lp3900
g39
ag40
asg41
(lp3901
g43
ag44
astRp3902
stRp3903
sS'CHEMBL638'
p3904
g1
(g2
g3
(dp3905
g227
g1
(g2
g3
(dp3906
g229
(lp3907
g231
ag232
asg233
(lp3908
g235
ag236
astRp3909
stRp3910
sS'CHEMBL1073'
p3911
g1
(g2
g3
(dp3912
g65
g1
(g2
g3
(dp3913
g67
(lp3914
g29
ag30
astRp3915
stRp3916
sS'CHEMBL1072'
p3917
g1
(g2
g3
(dp3918
g282
g1
(g2
g3
(dp3919
g284
(lp3920
g286
asg287
(lp3921
g289
astRp3922
stRp3923
sS'CHEMBL204656'
p3924
g1
(g2
g3
(dp3925
S'Q7ZJM1'
p3926
g1
(g2
g3
(dp3927
S'3.30.420.10'
p3928
(lp3929
g719
ag720
asS'1.10.10.200'
p3930
(lp3931
S'G4LV96'
p3932
aS'C1LFS4'
p3933
asS'PF00665'
p3934
(lp3935
S'Q5BTF1'
p3936
aS'C4QQP9'
p3937
astRp3938
stRp3939
sS'CHEMBL1175'
p3940
g1
(g2
g3
(dp3941
g7
g1
(g2
g3
(dp3942
g9
(lp3943
g11
ag12
astRp3944
sg396
g1
(g2
g3
(dp3945
g398
(lp3946
g11
ag12
astRp3947
stRp3948
sS'CHEMBL637'
p3949
g1
(g2
g3
(dp3950
g7
g1
(g2
g3
(dp3951
g9
(lp3952
g11
ag12
astRp3953
sg396
g1
(g2
g3
(dp3954
g398
(lp3955
g11
ag12
astRp3956
stRp3957
sS'CHEMBL86715'
p3958
g1
(g2
g3
(dp3959
g559
g1
(g2
g3
(dp3960
g561
(lp3961
g39
ag40
asg563
(lp3962
g43
ag44
astRp3963
stRp3964
sS'CHEMBL631'
p3965
g1
(g2
g3
(dp3966
g330
g1
(g2
g3
(dp3967
g332
(lp3968
g39
ag40
asg334
(lp3969
g43
ag44
astRp3970
sg337
g1
(g2
g3
(dp3971
g339
(lp3972
g39
ag40
asg341
(lp3973
g43
ag44
astRp3974
sg17
g1
(g2
g3
(dp3975
g19
(lp3976
g21
ag22
asg23
(lp3977
g25
ag26
asg27
(lp3978
g29
ag30
astRp3979
stRp3980
sS'CHEMBL633'
p3981
g1
(g2
g3
(dp3982
S'Q12809'
p3983
g1
(g2
g3
(dp3984
S'PF00520'
p3985
(lp3986
g21
ag22
asS'1.20.120.350'
p3987
(lp3988
g217
ag218
asS'1.10.287.70'
p3989
(lp3990
g29
ag30
asS'PF00027'
p3991
(lp3992
S'Q3MJS0'
p3993
aS'C4Q351'
p3994
asS'PF13426'
p3995
(lp3996
S'G4VT54'
p3997
asS'2.60.120.10'
p3998
(lp3999
S'C1L6U9'
p4000
aS'C1M2M7'
p4001
asS'1.10.287.630'
p4002
(lp4003
S'G4LUM1'
p4004
asS'3.30.450.20'
p4005
(lp4006
S'G4VT54'
p4007
aS'Q5DAD6'
p4008
astRp4009
stRp4010
sS'CHEMBL1790041'
p4011
g1
(g2
g3
(dp4012
g2107
g1
(g2
g3
(dp4013
g2109
(lp4014
g39
ag40
asg2111
(lp4015
g43
ag44
astRp4016
stRp4017
sS'CHEMBL1200790'
p4018
g1
(g2
g3
(dp4019
g1268
g1
(g2
g3
(dp4020
g1270
(lp4021
g693
ag694
ag695
asg1272
(lp4022
g698
ag699
ag700
asg1274
(lp4023
g703
ag704
ag705
asg1276
(lp4024
g708
ag709
ag710
astRp4025
stRp4026
sS'CHEMBL49'
p4027
g1
(g2
g3
(dp4028
g682
g1
(g2
g3
(dp4029
g684
(lp4030
g39
ag40
asg686
(lp4031
g43
ag44
astRp4032
stRp4033
sS'CHEMBL1201286'
p4034
g1
(g2
g3
(dp4035
g559
g1
(g2
g3
(dp4036
g561
(lp4037
g39
ag40
asg563
(lp4038
g43
ag44
astRp4039
sg566
g1
(g2
g3
(dp4040
g568
(lp4041
g39
ag40
asg570
(lp4042
g43
ag44
astRp4043
stRp4044
sS'CHEMBL46'
p4045
g1
(g2
g3
(dp4046
g689
g1
(g2
g3
(dp4047
g691
(lp4048
g693
ag694
ag695
asg696
(lp4049
g698
ag699
ag700
asg701
(lp4050
g703
ag704
ag705
asg706
(lp4051
g708
ag709
ag710
astRp4052
stRp4053
sS'CHEMBL41'
p4054
g1
(g2
g3
(dp4055
g7
g1
(g2
g3
(dp4056
g9
(lp4057
g11
ag12
astRp4058
stRp4059
sS'CHEMBL42'
p4060
g1
(g2
g3
(dp4061
g87
g1
(g2
g3
(dp4062
g89
(lp4063
g39
ag40
asg91
(lp4064
g43
ag44
astRp4065
sg1347
g1
(g2
g3
(dp4066
g96
(lp4067
g39
ag40
asg98
(lp4068
g43
ag44
astRp4069
stRp4070
sS'CHEMBL1496'
p4071
g1
(g2
g3
(dp4072
g1157
g1
(g2
g3
(dp4073
g1159
(lp4074
g1161
asg1162
(lp4075
g1164
asg1165
(lp4076
g1167
ag1168
asg1169
(lp4077
g1171
ag1172
asg1173
(lp4078
g1175
ag1176
astRp4079
stRp4080
sS'CHEMBL1495'
p4081
g1
(g2
g3
(dp4082
g559
g1
(g2
g3
(dp4083
g561
(lp4084
g39
ag40
asg563
(lp4085
g43
ag44
astRp4086
sg566
g1
(g2
g3
(dp4087
g568
(lp4088
g39
ag40
asg570
(lp4089
g43
ag44
astRp4090
stRp4091
sS'CHEMBL1493'
p4092
g1
(g2
g3
(dp4093
S'Q08493'
p4094
g1
(g2
g3
(dp4095
S'1.10.1300.10'
p4096
(lp4097
g2656
ag2657
asS'PF00233'
p4098
(lp4099
g2662
ag2663
astRp4100
sS'Q13946'
p4101
g1
(g2
g3
(dp4102
S'1.10.1300.10'
p4103
(lp4104
g2656
ag2657
asS'PF00233'
p4105
(lp4106
g2662
ag2663
astRp4107
sS'O95263'
p4108
g1
(g2
g3
(dp4109
S'PF13426'
p4110
(lp4111
g3997
asS'PF00233'
p4112
(lp4113
g2662
ag2663
asS'3.30.450.20'
p4114
(lp4115
g4007
ag4008
asS'1.10.1300.10'
p4116
(lp4117
g2656
ag2657
astRp4118
stRp4119
sS'CHEMBL1492'
p4120
g1
(g2
g3
(dp4121
g35
g1
(g2
g3
(dp4122
g37
(lp4123
g39
ag40
asg41
(lp4124
g43
ag44
astRp4125
stRp4126
sS'CHEMBL1491'
p4127
g1
(g2
g3
(dp4128
g1071
g1
(g2
g3
(dp4129
g1073
(lp4130
g21
ag22
asg1075
(lp4131
g29
ag30
asg1077
(lp4132
g221
ag222
astRp4133
stRp4134
sS'CHEMBL939'
p4135
g1
(g2
g3
(dp4136
g3018
g1
(g2
g3
(dp4137
g3020
(lp4138
g3022
ag3023
asg3024
(lp4139
g3026
ag3027
asg3028
(lp4140
g3030
ag3031
asg3032
(lp4141
g3034
ag3035
asg3036
(lp4142
g439
ag440
ag441
asg3038
(lp4143
g509
ag510
asg3040
(lp4144
g3042
asg3043
(lp4145
g444
ag445
ag446
asg3045
(lp4146
g3047
ag3048
astRp4147
stRp4148
sS'CHEMBL936'
p4149
g1
(g2
g3
(dp4150
g559
g1
(g2
g3
(dp4151
g561
(lp4152
g39
ag40
asg563
(lp4153
g43
ag44
astRp4154
stRp4155
sS'CHEMBL294199'
p4156
g1
(g2
g3
(dp4157
S'Q8NER1'
p4158
g1
(g2
g3
(dp4159
S'PB004891'
p4160
(lp4161
S'G4VRR0'
p4162
asS'PF12796'
p4163
(lp4164
S'C7TY05'
p4165
aS'G4LZI1'
p4166
asS'1.25.40.20'
p4167
(lp4168
S'G4LZI1'
p4169
aS'C1LDV1'
p4170
astRp4171
stRp4172
sS'CHEMBL932'
p4173
g1
(g2
g3
(dp4174
S'Q99808'
p4175
g1
(g2
g3
(dp4176
S'PF01733'
p4177
(lp4178
S'G4LUK2'
p4179
aS'Q5DE61'
p4180
astRp4181
sS'O76074'
p4182
g1
(g2
g3
(dp4183
g2646
(lp4184
g2648
ag2649
asg2650
(lp4185
g2652
ag2653
asg2654
(lp4186
g2656
ag2657
asg2658
(lp4187
g25
ag26
asg2660
(lp4188
g2662
ag2663
astRp4189
stRp4190
sS'CHEMBL931'
p4191
g1
(g2
g3
(dp4192
g3534
g1
(g2
g3
(dp4193
g3536
(lp4194
g668
ag669
asg3538
(lp4195
g3540
ag3541
asg3542
(lp4196
g29
ag30
astRp4197
sg3545
g1
(g2
g3
(dp4198
g3547
(lp4199
g693
ag694
ag695
asg3549
(lp4200
g698
ag699
ag700
asg3551
(lp4201
g703
ag704
ag705
asg3553
(lp4202
g708
ag709
ag710
astRp4203
sg1268
g1
(g2
g3
(dp4204
g1270
(lp4205
g693
ag694
ag695
asg1272
(lp4206
g698
ag699
ag700
asg1274
(lp4207
g703
ag704
ag705
asg1276
(lp4208
g708
ag709
ag710
astRp4209
sg3562
g1
(g2
g3
(dp4210
g3564
(lp4211
g668
ag669
asg3566
(lp4212
g29
ag30
astRp4213
sg3569
g1
(g2
g3
(dp4214
g3571
(lp4215
g668
ag669
asg3573
(lp4216
g29
ag30
astRp4217
sg3576
g1
(g2
g3
(dp4218
g3578
(lp4219
g668
ag669
asg3580
(lp4220
g29
ag30
astRp4221
sg3583
g1
(g2
g3
(dp4222
g3585
(lp4223
g668
ag669
asg3587
(lp4224
g29
ag30
astRp4225
stRp4226
sS'CHEMBL844'
p4227
g1
(g2
g3
(dp4228
g302
g1
(g2
g3
(dp4229
g304
(lp4230
g39
ag40
asg306
(lp4231
g43
ag44
astRp4232
stRp4233
sS'CHEMBL842'
p4234
g1
(g2
g3
(dp4235
g1519
g1
(g2
g3
(dp4236
g1521
(lp4237
g286
astRp4238
stRp4239
sS'CHEMBL841'
p4240
g1
(g2
g3
(dp4241
g312
g1
(g2
g3
(dp4242
g314
(lp4243
g39
ag40
asg316
(lp4244
g43
ag44
astRp4245
stRp4246
sS'CHEMBL189'
p4247
g1
(g2
g3
(dp4248
S'Q14432'
p4249
g1
(g2
g3
(dp4250
S'1.10.1300.10'
p4251
(lp4252
g2656
ag2657
asS'PF00233'
p4253
(lp4254
g2662
ag2663
astRp4255
stRp4256
sS'CHEMBL1490'
p4257
g1
(g2
g3
(dp4258
g559
g1
(g2
g3
(dp4259
g561
(lp4260
g39
ag40
asg563
(lp4261
g43
ag44
astRp4262
stRp4263
sS'CHEMBL218394'
p4264
g1
(g2
g3
(dp4265
S'A3EZI9'
p4266
g1
(g2
g3
(dp4267
S'3.40.50.300'
p4268
(lp4269
g2050
ag2051
asS'2.40.10.10'
p4270
(lp4271
g3633
ag3634
ag3635
astRp4272
stRp4273
sS'CHEMBL1670'
p4274
g1
(g2
g3
(dp4275
S'P05108'
p4276
g1
(g2
g3
(dp4277
S'PF00067'
p4278
(lp4279
g231
ag232
asS'1.10.630.10'
p4280
(lp4281
g235
ag236
astRp4282
sS'P15538'
p4283
g1
(g2
g3
(dp4284
S'PF00067'
p4285
(lp4286
g231
ag232
asS'1.10.630.10'
p4287
(lp4288
g235
ag236
astRp4289
stRp4290
sS'CHEMBL741'
p4291
g1
(g2
g3
(dp4292
g17
g1
(g2
g3
(dp4293
g19
(lp4294
g21
ag22
asg23
(lp4295
g25
ag26
asg27
(lp4296
g29
ag30
astRp4297
stRp4298
sS'CHEMBL742'
p4299
g1
(g2
g3
(dp4300
g1044
g1
(g2
g3
(dp4301
g1046
(lp4302
g1048
ag1049
asg1050
(lp4303
g1052
ag1053
asg1054
(lp4304
g1056
ag1057
asg1058
(lp4305
g1060
asg1061
(lp4306
g29
ag30
asg1063
(lp4307
g1065
ag1066
astRp4308
stRp4309
sS'CHEMBL744'
p4310
g1
(g2
g3
(dp4311
g17
g1
(g2
g3
(dp4312
g19
(lp4313
g21
ag22
asg23
(lp4314
g25
ag26
asg27
(lp4315
g29
ag30
astRp4316
stRp4317
sS'CHEMBL747'
p4318
g1
(g2
g3
(dp4319
S'P13922'
p4320
g1
(g2
g3
(dp4321
S'3.30.572.10'
p4322
(lp4323
S'Q5DEB3'
p4324
aS'G4V8Q8'
p4325
asS'3.40.430.10'
p4326
(lp4327
S'G4VJD6'
p4328
aS'C1LGY1'
p4329
asS'PF00186'
p4330
(lp4331
S'G4VJD6'
p4332
asS'PF00303'
p4333
(lp4334
S'Q5DEB3'
p4335
aS'G4V8Q8'
p4336
astRp4337
stRp4338
sS'CHEMBL1201760'
p4339
g1
(g2
g3
(dp4340
g463
g1
(g2
g3
(dp4341
g465
(lp4342
g467
ag468
asg469
(lp4343
g471
asg472
(lp4344
g474
asg475
(lp4345
g477
ag478
asg479
(lp4346
g481
ag482
asg483
(lp4347
g485
ag486
astRp4348
sg488
g1
(g2
g3
(dp4349
g490
(lp4350
g492
asg493
(lp4351
g495
asg496
(lp4352
g498
astRp4353
stRp4354
sS'CHEMBL1471'
p4355
g1
(g2
g3
(dp4356
S'P25103'
p4357
g1
(g2
g3
(dp4358
S'1.20.1070.10'
p4359
(lp4360
g39
ag40
asS'PF00001'
p4361
(lp4362
g43
ag44
astRp4363
stRp4364
sS'CHEMBL1477'
p4365
g1
(g2
g3
(dp4366
g1157
g1
(g2
g3
(dp4367
g1159
(lp4368
g1161
asg1162
(lp4369
g1164
asg1165
(lp4370
g1167
ag1168
asg1169
(lp4371
g1171
ag1172
asg1173
(lp4372
g1175
ag1176
astRp4373
stRp4374
sS'CHEMBL1729'
p4375
g1
(g2
g3
(dp4376
S'Q13639'
p4377
g1
(g2
g3
(dp4378
S'1.20.1070.10'
p4379
(lp4380
g39
ag40
asS'PF00001'
p4381
(lp4382
g43
ag44
astRp4383
stRp4384
sS'CHEMBL175247'
p4385
g1
(g2
g3
(dp4386
S'P16233'
p4387
g1
(g2
g3
(dp4388
S'2.60.60.20'
p4389
(lp4390
g1290
ag1291
asS'PF01477'
p4391
(lp4392
g1298
ag1299
asS'3.40.50.1820'
p4393
(lp4394
g2460
ag2461
ag2462
astRp4395
sS'P49327'
p4396
g1
(g2
g3
(dp4397
S'PF00698'
p4398
(lp4399
S'G4M0A2'
p4400
aS'C7TXZ9'
p4401
asS'PF08242'
p4402
(lp4403
S'G4VKK8'
p4404
asS'3.40.50.720'
p4405
(lp4406
g195
ag196
asS'3.40.50.150'
p4407
(lp4408
g3877
ag3878
asS'3.40.366.10'
p4409
(lp4410
S'G4M0A2'
p4411
aS'Q5BZU2'
p4412
asS'3.40.47.10'
p4413
(lp4414
S'G4VEI2'
p4415
aS'Q5BSM6'
p4416
asS'3.40.50.1820'
p4417
(lp4418
g2460
ag2461
ag2462
asS'3.90.180.10'
p4419
(lp4420
S'C1LFV4'
p4421
aS'G4VEY4'
p4422
asS'1.10.1200.10'
p4423
(lp4424
S'C1L5E9'
p4425
aS'G4VSN6'
p4426
asS'3.30.70.250'
p4427
(lp4428
S'G4M0A2'
p4429
aS'C7TXZ9'
p4430
asS'PF02801'
p4431
(lp4432
S'G4VIH2'
p4433
asS'PF00109'
p4434
(lp4435
S'G4VIH2'
p4436
aS'Q5C2A3'
p4437
asS'PF00550'
p4438
(lp4439
S'Q5BRK9'
p4440
aS'G4VSN6'
p4441
asS'PF00106'
p4442
(lp4443
S'B3GV02'
p4444
aS'G4LVT4'
p4445
asS'PF00107'
p4446
(lp4447
S'G4VEY4'
p4448
asS'3.10.129.10'
p4449
(lp4450
S'G4V9Z7'
p4451
aS'C1L5N4'
p4452
astRp4453
sS'P07098'
p4454
g1
(g2
g3
(dp4455
S'PF04083'
p4456
(lp4457
S'G4VKU5'
p4458
aS'Q5BWP0'
p4459
asS'3.40.50.1820'
p4460
(lp4461
g2460
ag2461
ag2462
asS'PF00561'
p4462
(lp4463
S'Q5C1M5'
p4464
aS'G4VQT1'
p4465
astRp4466
stRp4467
sS'CHEMBL46740'
p4468
g1
(g2
g3
(dp4469
g3845
g1
(g2
g3
(dp4470
g3135
(lp4471
g122
ag123
asg3137
(lp4472
g126
ag127
asg3139
(lp4473
g130
ag131
asg3141
(lp4474
g134
ag135
astRp4475
stRp4476
sS'CHEMBL1200604'
p4477
g1
(g2
g3
(dp4478
g566
g1
(g2
g3
(dp4479
g568
(lp4480
g39
ag40
asg570
(lp4481
g43
ag44
astRp4482
stRp4483
sS'CHEMBL218490'
p4484
g1
(g2
g3
(dp4485
S'P00918'
p4486
g1
(g2
g3
(dp4487
S'PF00194'
p4488
(lp4489
g3085
ag3086
asS'3.10.200.10'
p4490
(lp4491
g3089
ag3090
astRp4492
stRp4493
sS'CHEMBL760'
p4494
g1
(g2
g3
(dp4495
S'Q13370'
p4496
g1
(g2
g3
(dp4497
S'1.10.1300.10'
p4498
(lp4499
g2656
ag2657
asS'PF00233'
p4500
(lp4501
g2662
ag2663
astRp4502
stRp4503
sS'CHEMBL31'
p4504
g1
(g2
g3
(dp4505
S'P72524'
p4506
g1
(g2
g3
(dp4507
S'1.10.268.10'
p4508
(lp4509
g492
asS'PF00521'
p4510
(lp4511
g495
asS'3.90.199.10'
p4512
(lp4513
g498
astRp4514
sS'P72525'
p4515
g1
(g2
g3
(dp4516
S'1.10.268.10'
p4517
(lp4518
g492
asS'PF00521'
p4519
(lp4520
g495
asS'3.90.199.10'
p4521
(lp4522
g498
astRp4523
stRp4524
sS'CHEMBL32'
p4525
g1
(g2
g3
(dp4526
g463
g1
(g2
g3
(dp4527
g465
(lp4528
g467
ag468
asg469
(lp4529
g471
asg472
(lp4530
g474
asg475
(lp4531
g477
ag478
asg479
(lp4532
g481
ag482
asg483
(lp4533
g485
ag486
astRp4534
sg488
g1
(g2
g3
(dp4535
g490
(lp4536
g492
asg493
(lp4537
g495
asg496
(lp4538
g498
astRp4539
stRp4540
sS'CHEMBL33'
p4541
g1
(g2
g3
(dp4542
g4506
g1
(g2
g3
(dp4543
g4508
(lp4544
g492
asg4510
(lp4545
g495
asg4512
(lp4546
g498
astRp4547
sg4515
g1
(g2
g3
(dp4548
g4517
(lp4549
g492
asg4519
(lp4550
g495
asg4521
(lp4551
g498
astRp4552
stRp4553
sS'CHEMBL35'
p4554
g1
(g2
g3
(dp4555
g282
g1
(g2
g3
(dp4556
g284
(lp4557
g286
asg287
(lp4558
g289
astRp4559
stRp4560
sS'CHEMBL36'
p4561
g1
(g2
g3
(dp4562
g4320
g1
(g2
g3
(dp4563
g4322
(lp4564
g4324
ag4325
asg4326
(lp4565
g4328
ag4329
asg4330
(lp4566
g4332
asg4333
(lp4567
g4335
ag4336
astRp4568
stRp4569
sS'CHEMBL1372'
p4570
g1
(g2
g3
(dp4571
g1826
g1
(g2
g3
(dp4572
g1828
(lp4573
g1830
ag1831
asg1832
(lp4574
g1834
ag1835
asg1836
(lp4575
g1838
ag1839
asg1840
(lp4576
g199
ag200
asg1842
(lp4577
g1844
ag1845
astRp4578
stRp4579
sS'CHEMBL954'
p4580
g1
(g2
g3
(dp4581
g3133
g1
(g2
g3
(dp4582
g3135
(lp4583
g122
ag123
asg3137
(lp4584
g126
ag127
asg3139
(lp4585
g130
ag131
asg3141
(lp4586
g134
ag135
astRp4587
stRp4588
sS'CHEMBL1726'
p4589
g1
(g2
g3
(dp4590
g1071
g1
(g2
g3
(dp4591
g1073
(lp4592
g21
ag22
asg1075
(lp4593
g29
ag30
asg1077
(lp4594
g221
ag222
astRp4595
stRp4596
sS'CHEMBL181'
p4597
g1
(g2
g3
(dp4598
S'Q15842'
p4599
g1
(g2
g3
(dp4600
S'1.10.287.70'
p4601
(lp4602
g29
ag30
astRp4603
sS'Q14654'
p4604
g1
(g2
g3
(dp4605
g67
(lp4606
g29
ag30
astRp4607
stRp4608
sS'CHEMBL565'
p4609
g1
(g2
g3
(dp4610
g1925
g1
(g2
g3
(dp4611
g1927
(lp4612
g122
ag123
asg1929
(lp4613
g126
ag127
asg1931
(lp4614
g130
ag131
asg1933
(lp4615
g134
ag135
astRp4616
stRp4617
sS'CHEMBL564'
p4618
g1
(g2
g3
(dp4619
g87
g1
(g2
g3
(dp4620
g89
(lp4621
g39
ag40
asg91
(lp4622
g43
ag44
astRp4623
sg1347
g1
(g2
g3
(dp4624
g96
(lp4625
g39
ag40
asg98
(lp4626
g43
ag44
astRp4627
stRp4628
sS'CHEMBL448'
p4629
g1
(g2
g3
(dp4630
g1268
g1
(g2
g3
(dp4631
g1270
(lp4632
g693
ag694
ag695
asg1272
(lp4633
g698
ag699
ag700
asg1274
(lp4634
g703
ag704
ag705
asg1276
(lp4635
g708
ag709
ag710
astRp4636
stRp4637
sS'CHEMBL449'
p4638
g1
(g2
g3
(dp4639
g1268
g1
(g2
g3
(dp4640
g1270
(lp4641
g693
ag694
ag695
asg1272
(lp4642
g698
ag699
ag700
asg1274
(lp4643
g703
ag704
ag705
asg1276
(lp4644
g708
ag709
ag710
astRp4645
stRp4646
sS'CHEMBL118'
p4647
g1
(g2
g3
(dp4648
g256
g1
(g2
g3
(dp4649
g258
(lp4650
g144
ag145
asg260
(lp4651
g148
ag149
asg262
(lp4652
g152
ag153
astRp4653
stRp4654
sS'CHEMBL1190'
p4655
g1
(g2
g3
(dp4656
g2007
g1
(g2
g3
(dp4657
g2009
(lp4658
g693
ag694
ag695
asg2011
(lp4659
g698
ag699
ag700
asg2013
(lp4660
g703
ag704
ag705
asg2015
(lp4661
g708
ag709
ag710
astRp4662
stRp4663
sS'CHEMBL563'
p4664
g1
(g2
g3
(dp4665
g140
g1
(g2
g3
(dp4666
g142
(lp4667
g144
ag145
asg146
(lp4668
g148
ag149
asg150
(lp4669
g152
ag153
astRp4670
stRp4671
sS'CHEMBL114'
p4672
g1
(g2
g3
(dp4673
g886
g1
(g2
g3
(dp4674
g888
(lp4675
g890
ag891
asg892
(lp4676
g894
ag895
astRp4677
stRp4678
sS'CHEMBL115'
p4679
g1
(g2
g3
(dp4680
g886
g1
(g2
g3
(dp4681
g888
(lp4682
g890
ag891
asg892
(lp4683
g894
ag895
astRp4684
stRp4685
sS'CHEMBL116'
p4686
g1
(g2
g3
(dp4687
g886
g1
(g2
g3
(dp4688
g888
(lp4689
g890
ag891
asg892
(lp4690
g894
ag895
astRp4691
stRp4692
sS'CHEMBL441'
p4693
g1
(g2
g3
(dp4694
g1268
g1
(g2
g3
(dp4695
g1270
(lp4696
g693
ag694
ag695
asg1272
(lp4697
g698
ag699
ag700
asg1274
(lp4698
g703
ag704
ag705
asg1276
(lp4699
g708
ag709
ag710
astRp4700
stRp4701
sS'CHEMBL569'
p4702
g1
(g2
g3
(dp4703
g17
g1
(g2
g3
(dp4704
g19
(lp4705
g21
ag22
asg23
(lp4706
g25
ag26
asg27
(lp4707
g29
ag30
astRp4708
stRp4709
sS'CHEMBL568'
p4710
g1
(g2
g3
(dp4711
g1268
g1
(g2
g3
(dp4712
g1270
(lp4713
g693
ag694
ag695
asg1272
(lp4714
g698
ag699
ag700
asg1274
(lp4715
g703
ag704
ag705
asg1276
(lp4716
g708
ag709
ag710
astRp4717
stRp4718
sS'CHEMBL112'
p4719
g1
(g2
g3
(dp4720
g4158
g1
(g2
g3
(dp4721
g4160
(lp4722
g4162
asg4163
(lp4723
g4165
ag4166
asg4167
(lp4724
g4169
ag4170
astRp4725
sS'O00519'
p4726
g1
(g2
g3
(dp4727
S'PF01425'
p4728
(lp4729
S'G4LYL3'
p4730
aS'Q5BZ72'
p4731
asS'3.90.1300.10'
p4732
(lp4733
S'G4LYL3'
p4734
aS'Q5BWE9'
p4735
astRp4736
sg140
g1
(g2
g3
(dp4737
g142
(lp4738
g144
ag145
asg146
(lp4739
g148
ag149
asg150
(lp4740
g152
ag153
astRp4741
stRp4742
sS'CHEMBL445'
p4743
g1
(g2
g3
(dp4744
g7
g1
(g2
g3
(dp4745
g9
(lp4746
g11
ag12
astRp4747
sg396
g1
(g2
g3
(dp4748
g398
(lp4749
g11
ag12
astRp4750
stRp4751
sS'CHEMBL2095208'
p4752
g1
(g2
g3
(dp4753
S'P08684'
p4754
g1
(g2
g3
(dp4755
S'PF00067'
p4756
(lp4757
g231
ag232
asS'1.10.630.10'
p4758
(lp4759
g235
ag236
astRp4760
stRp4761
sS'CHEMBL599'
p4762
g1
(g2
g3
(dp4763
g256
g1
(g2
g3
(dp4764
g258
(lp4765
g144
ag145
asg260
(lp4766
g148
ag149
asg262
(lp4767
g152
ag153
astRp4768
stRp4769
sS'CHEMBL1199324'
p4770
g1
(g2
g3
(dp4771
g4357
g1
(g2
g3
(dp4772
g4359
(lp4773
g39
ag40
asg4361
(lp4774
g43
ag44
astRp4775
stRp4776
sS'CHEMBL1648'
p4777
g1
(g2
g3
(dp4778
g1071
g1
(g2
g3
(dp4779
g1073
(lp4780
g21
ag22
asg1075
(lp4781
g29
ag30
asg1077
(lp4782
g221
ag222
astRp4783
stRp4784
sS'CHEMBL591'
p4785
g1
(g2
g3
(dp4786
g1268
g1
(g2
g3
(dp4787
g1270
(lp4788
g693
ag694
ag695
asg1272
(lp4789
g698
ag699
ag700
asg1274
(lp4790
g703
ag704
ag705
asg1276
(lp4791
g708
ag709
ag710
astRp4792
stRp4793
sS'CHEMBL592'
p4794
g1
(g2
g3
(dp4795
g312
g1
(g2
g3
(dp4796
g314
(lp4797
g39
ag40
asg316
(lp4798
g43
ag44
astRp4799
stRp4800
sS'CHEMBL593'
p4801
g1
(g2
g3
(dp4802
g715
g1
(g2
g3
(dp4803
g717
(lp4804
g719
ag720
asg721
(lp4805
g723
ag724
asg725
(lp4806
g727
ag728
asg729
(lp4807
g731
ag732
asg733
(lp4808
g735
ag736
astRp4809
stRp4810
sS'CHEMBL594'
p4811
g1
(g2
g3
(dp4812
g35
g1
(g2
g3
(dp4813
g37
(lp4814
g39
ag40
asg41
(lp4815
g43
ag44
astRp4816
stRp4817
sS'CHEMBL595'
p4818
g1
(g2
g3
(dp4819
g1306
g1
(g2
g3
(dp4820
g1308
(lp4821
g122
ag123
asg1310
(lp4822
g126
ag127
asg1312
(lp4823
g130
ag131
asg1314
(lp4824
g134
ag135
astRp4825
stRp4826
sS'CHEMBL596'
p4827
g1
(g2
g3
(dp4828
g312
g1
(g2
g3
(dp4829
g314
(lp4830
g39
ag40
asg316
(lp4831
g43
ag44
astRp4832
stRp4833
sS'CHEMBL597'
p4834
g1
(g2
g3
(dp4835
g2682
g1
(g2
g3
(dp4836
g304
(lp4837
g39
ag40
asg306
(lp4838
g43
ag44
astRp4839
stRp4840
sS'CHEMBL4'
p4841
g1
(g2
g3
(dp4842
g463
g1
(g2
g3
(dp4843
g465
(lp4844
g467
ag468
asg469
(lp4845
g471
asg472
(lp4846
g474
asg475
(lp4847
g477
ag478
asg479
(lp4848
g481
ag482
asg483
(lp4849
g485
ag486
astRp4850
stRp4851
sS'CHEMBL5'
p4852
g1
(g2
g3
(dp4853
g463
g1
(g2
g3
(dp4854
g465
(lp4855
g467
ag468
asg469
(lp4856
g471
asg472
(lp4857
g474
asg475
(lp4858
g477
ag478
asg479
(lp4859
g481
ag482
asg483
(lp4860
g485
ag486
astRp4861
stRp4862
sS'CHEMBL6'
p4863
g1
(g2
g3
(dp4864
g140
g1
(g2
g3
(dp4865
g142
(lp4866
g144
ag145
asg146
(lp4867
g148
ag149
asg150
(lp4868
g152
ag153
astRp4869
stRp4870
sS'CHEMBL2'
p4871
g1
(g2
g3
(dp4872
g379
g1
(g2
g3
(dp4873
g381
(lp4874
g39
ag40
asg383
(lp4875
g43
ag44
astRp4876
stRp4877
sS'CHEMBL8'
p4878
g1
(g2
g3
(dp4879
g463
g1
(g2
g3
(dp4880
g465
(lp4881
g467
ag468
asg469
(lp4882
g471
asg472
(lp4883
g474
asg475
(lp4884
g477
ag478
asg479
(lp4885
g481
ag482
asg483
(lp4886
g485
ag486
astRp4887
stRp4888
sS'CHEMBL9'
p4889
g1
(g2
g3
(dp4890
g463
g1
(g2
g3
(dp4891
g465
(lp4892
g467
ag468
asg469
(lp4893
g471
asg472
(lp4894
g474
asg475
(lp4895
g477
ag478
asg479
(lp4896
g481
ag482
asg483
(lp4897
g485
ag486
astRp4898
sg488
g1
(g2
g3
(dp4899
g490
(lp4900
g492
asg493
(lp4901
g495
asg496
(lp4902
g498
astRp4903
stRp4904
sS'CHEMBL477772'
p4905
g1
(g2
g3
(dp4906
S'P07333'
p4907
g1
(g2
g3
(dp4908
S'PF13927'
p4909
(lp4910
g1761
ag1762
asS'PF00047'
p4911
(lp4912
g1675
asS'2.60.40.10'
p4913
(lp4914
g1591
ag1592
asS'PB000831'
p4915
(lp4916
S'G4V6A0'
p4917
aS'Q5C1K0'
p4918
asS'1.10.510.10'
p4919
(lp4920
g439
ag440
ag441
asS'PF07714'
p4921
(lp4922
g509
ag510
asS'2.60.40.1330'
p4923
(lp4924
g1651
ag1652
asS'3.30.200.20'
p4925
(lp4926
g444
ag445
ag446
astRp4927
sg1633
g1
(g2
g3
(dp4928
g1635
(lp4929
g1637
ag1638
asg1639
(lp4930
g1587
ag1588
asg1641
(lp4931
g1591
ag1592
asg1643
(lp4932
g439
ag440
ag441
asg1645
(lp4933
g1581
ag1582
asg1647
(lp4934
g509
ag510
asg1649
(lp4935
g1651
ag1652
asg1653
(lp4936
g444
ag445
ag446
astRp4937
sg1669
g1
(g2
g3
(dp4938
g1671
(lp4939
g1587
ag1588
asg1673
(lp4940
g1675
asg1676
(lp4941
g1591
ag1592
asg1678
(lp4942
g439
ag440
ag441
asg1680
(lp4943
g1581
ag1582
asg1682
(lp4944
g509
ag510
asg1684
(lp4945
g1651
ag1652
asg1686
(lp4946
g444
ag445
ag446
astRp4947
sg1656
g1
(g2
g3
(dp4948
g1658
(lp4949
g439
ag440
ag441
asg1660
(lp4950
g509
ag510
asg1662
(lp4951
g444
ag445
ag446
asg1664
(lp4952
g1587
ag1588
asg1666
(lp4953
g1591
ag1592
astRp4954
sg2871
g1
(g2
g3
(dp4955
g2873
(lp4956
g439
ag440
ag441
asg2875
(lp4957
g1378
ag1379
asg2877
(lp4958
g1382
ag1383
asg2879
(lp4959
g509
ag510
asg2881
(lp4960
g1388
ag1389
asg2883
(lp4961
g1392
ag1393
asg2885
(lp4962
g444
ag445
ag446
astRp4963
sS'P22607'
p4964
g1
(g2
g3
(dp4965
S'1.10.510.10'
p4966
(lp4967
g439
ag440
ag441
asS'PF07714'
p4968
(lp4969
g509
ag510
asS'PF00047'
p4970
(lp4971
g1675
asS'PF07679'
p4972
(lp4973
g1587
ag1588
asS'2.60.40.10'
p4974
(lp4975
g1591
ag1592
asS'3.30.200.20'
p4976
(lp4977
g444
ag445
ag446
astRp4978
sS'Q08881'
p4979
g1
(g2
g3
(dp4980
S'PF00169'
p4981
(lp4982
g3232
ag3233
asS'2.30.30.40'
p4983
(lp4984
g1378
ag1379
asS'4.10.1130.10'
p4985
(lp4986
g3238
asS'3.30.505.10'
p4987
(lp4988
g1388
ag1389
asS'2.30.29.30'
p4989
(lp4990
g3243
ag3244
asS'1.10.510.10'
p4991
(lp4992
g439
ag440
ag441
asS'PF07714'
p4993
(lp4994
g509
ag510
asS'PF00017'
p4995
(lp4996
g1382
ag1383
asS'PF00779'
p4997
(lp4998
g3253
asS'PF00018'
p4999
(lp5000
g1392
ag1393
asS'3.30.200.20'
p5001
(lp5002
g444
ag445
ag446
astRp5003
sg1751
g1
(g2
g3
(dp5004
g1753
(lp5005
g439
ag440
ag441
asg1755
(lp5006
g1581
ag1582
asg1757
(lp5007
g509
ag510
asg1759
(lp5008
g1761
ag1762
asg1763
(lp5009
g1675
asg1765
(lp5010
g1591
ag1592
asg1767
(lp5011
g444
ag445
ag446
astRp5012
stRp5013
sS'CHEMBL222559'
p5014
g1
(g2
g3
(dp5015
g886
g1
(g2
g3
(dp5016
g888
(lp5017
g890
ag891
asg892
(lp5018
g894
ag895
astRp5019
stRp5020
sS'CHEMBL849'
p5021
g1
(g2
g3
(dp5022
S'P0AEK4'
p5023
g1
(g2
g3
(dp5024
S'PF13561'
p5025
(lp5026
S'Q5DB51'
p5027
aS'G4VFX0'
p5028
asS'3.40.50.720'
p5029
(lp5030
g195
ag196
astRp5031
stRp5032
sS'CHEMBL1201335'
p5033
g1
(g2
g3
(dp5034
g559
g1
(g2
g3
(dp5035
g561
(lp5036
g39
ag40
asg563
(lp5037
g43
ag44
astRp5038
sg566
g1
(g2
g3
(dp5039
g568
(lp5040
g39
ag40
asg570
(lp5041
g43
ag44
astRp5042
stRp5043
sS'CHEMBL1201336'
p5044
g1
(g2
g3
(dp5045
g17
g1
(g2
g3
(dp5046
g19
(lp5047
g21
ag22
asg23
(lp5048
g25
ag26
asg27
(lp5049
g29
ag30
astRp5050
stRp5051
sS'CHEMBL1201233'
p5052
g1
(g2
g3
(dp5053
g302
g1
(g2
g3
(dp5054
g304
(lp5055
g39
ag40
asg306
(lp5056
g43
ag44
astRp5057
stRp5058
sS'CHEMBL1201232'
p5059
g1
(g2
g3
(dp5060
g559
g1
(g2
g3
(dp5061
g561
(lp5062
g39
ag40
asg563
(lp5063
g43
ag44
astRp5064
sg566
g1
(g2
g3
(dp5065
g568
(lp5066
g39
ag40
asg570
(lp5067
g43
ag44
astRp5068
stRp5069
sS'CHEMBL1201234'
p5070
g1
(g2
g3
(dp5071
g1260
g1
(g2
g3
(dp5072
g304
(lp5073
g39
ag40
asg306
(lp5074
g43
ag44
astRp5075
stRp5076
sS'CHEMBL1201237'
p5077
g1
(g2
g3
(dp5078
g330
g1
(g2
g3
(dp5079
g332
(lp5080
g39
ag40
asg334
(lp5081
g43
ag44
astRp5082
sg337
g1
(g2
g3
(dp5083
g339
(lp5084
g39
ag40
asg341
(lp5085
g43
ag44
astRp5086
stRp5087
sS'CHEMBL1201236'
p5088
g1
(g2
g3
(dp5089
S'P20711'
p5090
g1
(g2
g3
(dp5091
S'3.90.1150.10'
p5092
(lp5093
S'A7UAX6'
p5094
aS'C1L634'
p5095
asS'3.40.640.10'
p5096
(lp5097
S'A7UAX6'
p5098
aS'Q5C258'
p5099
asS'1.20.1340.10'
p5100
(lp5101
S'Q5BVX9'
p5102
aS'G4LVM4'
p5103
asS'PF00282'
p5104
(lp5105
S'Q5BVX9'
p5106
aS'G4LVM4'
p5107
astRp5108
stRp5109
sS'CHEMBL163'
p5110
g1
(g2
g3
(dp5111
g886
g1
(g2
g3
(dp5112
g888
(lp5113
g890
ag891
asg892
(lp5114
g894
ag895
astRp5115
stRp5116
sS'CHEMBL1200802'
p5117
g1
(g2
g3
(dp5118
g1268
g1
(g2
g3
(dp5119
g1270
(lp5120
g693
ag694
ag695
asg1272
(lp5121
g698
ag699
ag700
asg1274
(lp5122
g703
ag704
ag705
asg1276
(lp5123
g708
ag709
ag710
astRp5124
stRp5125
sS'CHEMBL54'
p5126
g1
(g2
g3
(dp5127
g87
g1
(g2
g3
(dp5128
g89
(lp5129
g39
ag40
asg91
(lp5130
g43
ag44
astRp5131
sg1347
g1
(g2
g3
(dp5132
g96
(lp5133
g39
ag40
asg98
(lp5134
g43
ag44
astRp5135
stRp5136
sS'CHEMBL1237044'
p5137
g1
(g2
g3
(dp5138
g312
g1
(g2
g3
(dp5139
g314
(lp5140
g39
ag40
asg316
(lp5141
g43
ag44
astRp5142
stRp5143
sS'CHEMBL1201863'
p5144
g1
(g2
g3
(dp5145
g2124
g1
(g2
g3
(dp5146
g2126
(lp5147
g2128
ag2129
asg2130
(lp5148
g2132
ag2133
asg2134
(lp5149
g2136
ag2137
asg2138
(lp5150
g2140
ag2141
asg2142
(lp5151
g2144
ag2145
asg2146
(lp5152
g2148
ag2149
asg2150
(lp5153
g2152
ag2153
asg2154
(lp5154
g2156
ag2157
astRp5155
stRp5156
sS'CHEMBL649'
p5157
g1
(g2
g3
(dp5158
g330
g1
(g2
g3
(dp5159
g332
(lp5160
g39
ag40
asg334
(lp5161
g43
ag44
astRp5162
sg337
g1
(g2
g3
(dp5163
g339
(lp5164
g39
ag40
asg341
(lp5165
g43
ag44
astRp5166
stRp5167
sS'CHEMBL1201780'
p5168
g1
(g2
g3
(dp5169
S'P31327'
p5170
g1
(g2
g3
(dp5171
S'3.40.50.880'
p5172
(lp5173
S'G4V7R9'
p5174
aS'C1L4D8'
p5175
asS'3.40.50.20'
p5176
(lp5177
g2702
ag2703
asS'3.40.50.1380'
p5178
(lp5179
S'G4VEM7'
p5180
asS'3.30.1490.20'
p5181
(lp5182
g2698
ag2699
asS'PF02786'
p5183
(lp5184
S'G4V7M2'
p5185
aS'Q5BYR3'
p5186
asS'PF02787'
p5187
(lp5188
S'G4VEM7'
p5189
asS'3.30.470.20'
p5190
(lp5191
g2706
ag2707
asS'1.10.1030.10'
p5192
(lp5193
S'G4VEM7'
p5194
asS'PF00289'
p5195
(lp5196
S'G4V7M2'
p5197
aS'Q5DDR2'
p5198
asS'PF00117'
p5199
(lp5200
S'Q5C708'
p5201
aS'G4M0Y0'
p5202
asS'PF02142'
p5203
(lp5204
S'G4VEM7'
p5205
astRp5206
stRp5207
sS'CHEMBL946'
p5208
g1
(g2
g3
(dp5209
g35
g1
(g2
g3
(dp5210
g37
(lp5211
g39
ag40
asg41
(lp5212
g43
ag44
astRp5213
stRp5214
sS'CHEMBL1503'
p5215
g1
(g2
g3
(dp5216
g2124
g1
(g2
g3
(dp5217
g2126
(lp5218
g2128
ag2129
asg2130
(lp5219
g2132
ag2133
asg2134
(lp5220
g2136
ag2137
asg2138
(lp5221
g2140
ag2141
asg2142
(lp5222
g2144
ag2145
asg2146
(lp5223
g2148
ag2149
asg2150
(lp5224
g2152
ag2153
asg2154
(lp5225
g2156
ag2157
astRp5226
stRp5227
sS'CHEMBL1502'
p5228
g1
(g2
g3
(dp5229
g2124
g1
(g2
g3
(dp5230
g2126
(lp5231
g2128
ag2129
asg2130
(lp5232
g2132
ag2133
asg2134
(lp5233
g2136
ag2137
asg2138
(lp5234
g2140
ag2141
asg2142
(lp5235
g2144
ag2145
asg2146
(lp5236
g2148
ag2149
asg2150
(lp5237
g2152
ag2153
asg2154
(lp5238
g2156
ag2157
astRp5239
stRp5240
sS'CHEMBL1505'
p5241
g1
(g2
g3
(dp5242
g2249
g1
(g2
g3
(dp5243
g2251
(lp5244
g39
ag40
asg2253
(lp5245
g43
ag44
astRp5246
sg2256
g1
(g2
g3
(dp5247
g2258
(lp5248
g39
ag40
asg2260
(lp5249
g43
ag44
astRp5250
sg2263
g1
(g2
g3
(dp5251
g2265
(lp5252
g39
ag40
asg2267
(lp5253
g43
ag44
astRp5254
stRp5255
sS'CHEMBL941'
p5256
g1
(g2
g3
(dp5257
g1414
g1
(g2
g3
(dp5258
g1416
(lp5259
g1378
ag1379
asg1418
(lp5260
g1420
asg1421
(lp5261
g1388
ag1389
asg1423
(lp5262
g439
ag440
ag441
asg1425
(lp5263
g509
ag510
asg1427
(lp5264
g1382
ag1383
asg1429
(lp5265
g1431
ag1432
ag1433
asg1434
(lp5266
g1392
ag1393
asg1436
(lp5267
g444
ag445
ag446
astRp5268
sg2888
g1
(g2
g3
(dp5269
g1671
(lp5270
g1587
ag1588
asg1673
(lp5271
g1675
asg1676
(lp5272
g1591
ag1592
asg1678
(lp5273
g439
ag440
ag441
asg1680
(lp5274
g1581
ag1582
asg1682
(lp5275
g509
ag510
asg1684
(lp5276
g1651
ag1652
asg1686
(lp5277
g444
ag445
ag446
astRp5278
sg1751
g1
(g2
g3
(dp5279
g1753
(lp5280
g439
ag440
ag441
asg1755
(lp5281
g1581
ag1582
asg1757
(lp5282
g509
ag510
asg1759
(lp5283
g1761
ag1762
asg1763
(lp5284
g1675
asg1765
(lp5285
g1591
ag1592
asg1767
(lp5286
g444
ag445
ag446
astRp5287
stRp5288
sS'CHEMBL1506'
p5289
g1
(g2
g3
(dp5290
g3318
g1
(g2
g3
(dp5291
g3320
(lp5292
g3322
ag3323
astRp5293
stRp5294
sS'CHEMBL1508'
p5295
g1
(g2
g3
(dp5296
g7
g1
(g2
g3
(dp5297
g9
(lp5298
g11
ag12
astRp5299
stRp5300
sS'CHEMBL1771'
p5301
g1
(g2
g3
(dp5302
S'Q9H244'
p5303
g1
(g2
g3
(dp5304
S'1.20.1070.10'
p5305
(lp5306
g39
ag40
asS'PF00001'
p5307
(lp5308
g43
ag44
astRp5309
stRp5310
sS'CHEMBL1755'
p5311
g1
(g2
g3
(dp5312
S'P37288'
p5313
g1
(g2
g3
(dp5314
S'1.20.1070.10'
p5315
(lp5316
g39
ag40
asS'PF00001'
p5317
(lp5318
g43
ag44
astRp5319
sS'P30518'
p5320
g1
(g2
g3
(dp5321
S'1.20.1070.10'
p5322
(lp5323
g39
ag40
asS'PF00001'
p5324
(lp5325
g43
ag44
astRp5326
stRp5327
sS'CHEMBL81'
p5328
g1
(g2
g3
(dp5329
g967
g1
(g2
g3
(dp5330
g969
(lp5331
g122
ag123
asg971
(lp5332
g126
ag127
asg973
(lp5333
g130
ag131
asg975
(lp5334
g134
ag135
astRp5335
stRp5336
sS'CHEMBL83'
p5337
g1
(g2
g3
(dp5338
g3133
g1
(g2
g3
(dp5339
g3135
(lp5340
g122
ag123
asg3137
(lp5341
g126
ag127
asg3139
(lp5342
g130
ag131
asg3141
(lp5343
g134
ag135
astRp5344
stRp5345
sS'CHEMBL85'
p5346
g1
(g2
g3
(dp5347
g907
g1
(g2
g3
(dp5348
g909
(lp5349
g39
ag40
asg911
(lp5350
g43
ag44
astRp5351
sg87
g1
(g2
g3
(dp5352
g89
(lp5353
g39
ag40
asg91
(lp5354
g43
ag44
astRp5355
sg1347
g1
(g2
g3
(dp5356
g96
(lp5357
g39
ag40
asg98
(lp5358
g43
ag44
astRp5359
stRp5360
sS'CHEMBL86'
p5361
g1
(g2
g3
(dp5362
g4377
g1
(g2
g3
(dp5363
g4379
(lp5364
g39
ag40
asg4381
(lp5365
g43
ag44
astRp5366
sg94
g1
(g2
g3
(dp5367
g96
(lp5368
g39
ag40
asg98
(lp5369
g43
ag44
astRp5370
sg689
g1
(g2
g3
(dp5371
g691
(lp5372
g693
ag694
ag695
asg696
(lp5373
g698
ag699
ag700
asg701
(lp5374
g703
ag704
ag705
asg706
(lp5375
g708
ag709
ag710
astRp5376
stRp5377
sS'CHEMBL1201349'
p5378
g1
(g2
g3
(dp5379
S'P22303'
p5380
g1
(g2
g3
(dp5381
g2453
(lp5382
g2455
ag2456
ag2457
asg2458
(lp5383
g2460
ag2461
ag2462
astRp5384
stRp5385
sS'CHEMBL1185'
p5386
g1
(g2
g3
(dp5387
g2256
g1
(g2
g3
(dp5388
g2258
(lp5389
g39
ag40
asg2260
(lp5390
g43
ag44
astRp5391
sg2263
g1
(g2
g3
(dp5392
g2265
(lp5393
g39
ag40
asg2267
(lp5394
g43
ag44
astRp5395
stRp5396
sS'CHEMBL1201344'
p5397
g1
(g2
g3
(dp5398
g765
g1
(g2
g3
(dp5399
g767
(lp5400
g39
ag40
asg769
(lp5401
g43
ag44
astRp5402
sg566
g1
(g2
g3
(dp5403
g568
(lp5404
g39
ag40
asg570
(lp5405
g43
ag44
astRp5406
stRp5407
sS'CHEMBL1201347'
p5408
g1
(g2
g3
(dp5409
g1561
g1
(g2
g3
(dp5410
g1563
(lp5411
g39
ag40
asg1565
(lp5412
g43
ag44
astRp5413
sg312
g1
(g2
g3
(dp5414
g314
(lp5415
g39
ag40
asg316
(lp5416
g43
ag44
astRp5417
stRp5418
sS'CHEMBL1201346'
p5419
g1
(g2
g3
(dp5420
g1282
g1
(g2
g3
(dp5421
g1284
(lp5422
g1286
ag1287
asg1288
(lp5423
g1290
ag1291
asg1292
(lp5424
g1294
ag1295
asg1296
(lp5425
g1298
ag1299
astRp5426
sg140
g1
(g2
g3
(dp5427
g142
(lp5428
g144
ag145
asg146
(lp5429
g148
ag149
asg150
(lp5430
g152
ag153
astRp5431
sg1306
g1
(g2
g3
(dp5432
g1308
(lp5433
g122
ag123
asg1310
(lp5434
g126
ag127
asg1312
(lp5435
g130
ag131
asg1314
(lp5436
g134
ag135
astRp5437
stRp5438
sS'CHEMBL1201341'
p5439
g1
(g2
g3
(dp5440
g5380
g1
(g2
g3
(dp5441
g2453
(lp5442
g2455
ag2456
ag2457
asg2458
(lp5443
g2460
ag2461
ag2462
astRp5444
stRp5445
sS'CHEMBL1201340'
p5446
g1
(g2
g3
(dp5447
g559
g1
(g2
g3
(dp5448
g561
(lp5449
g39
ag40
asg563
(lp5450
g43
ag44
astRp5451
sg566
g1
(g2
g3
(dp5452
g568
(lp5453
g39
ag40
asg570
(lp5454
g43
ag44
astRp5455
stRp5456
sS'CHEMBL1201342'
p5457
g1
(g2
g3
(dp5458
g907
g1
(g2
g3
(dp5459
g909
(lp5460
g39
ag40
asg911
(lp5461
g43
ag44
astRp5462
sg559
g1
(g2
g3
(dp5463
g561
(lp5464
g39
ag40
asg563
(lp5465
g43
ag44
astRp5466
stRp5467
sS'CHEMBL685'
p5468
g1
(g2
g3
(dp5469
g1111
g1
(g2
g3
(dp5470
g1113
(lp5471
g1115
ag1116
ag1117
asg1118
(lp5472
g1120
ag1121
ag1122
astRp5473
sg1124
g1
(g2
g3
(dp5474
g1126
(lp5475
g1128
ag1129
ag1130
asg1131
(lp5476
g1133
ag1134
ag1135
asg1136
(lp5477
g1138
ag1139
ag1140
asg1141
(lp5478
g1120
ag1121
ag1122
asg1143
(lp5479
g1115
ag1116
ag1117
astRp5480
stRp5481
sS'CHEMBL1219'
p5482
g1
(g2
g3
(dp5483
g2124
g1
(g2
g3
(dp5484
g2126
(lp5485
g2128
ag2129
asg2130
(lp5486
g2132
ag2133
asg2134
(lp5487
g2136
ag2137
asg2138
(lp5488
g2140
ag2141
asg2142
(lp5489
g2144
ag2145
asg2146
(lp5490
g2148
ag2149
asg2150
(lp5491
g2152
ag2153
asg2154
(lp5492
g2156
ag2157
astRp5493
stRp5494
sS'CHEMBL1218'
p5495
g1
(g2
g3
(dp5496
S'P48039'
p5497
g1
(g2
g3
(dp5498
S'1.20.1070.10'
p5499
(lp5500
g39
ag40
asS'PF00001'
p5501
(lp5502
g43
ag44
astRp5503
stRp5504
sS'CHEMBL1215'
p5505
g1
(g2
g3
(dp5506
g379
g1
(g2
g3
(dp5507
g381
(lp5508
g39
ag40
asg383
(lp5509
g43
ag44
astRp5510
stRp5511
sS'CHEMBL498'
p5512
g1
(g2
g3
(dp5513
g65
g1
(g2
g3
(dp5514
g67
(lp5515
g29
ag30
astRp5516
stRp5517
sS'CHEMBL1008'
p5518
g1
(g2
g3
(dp5519
g209
g1
(g2
g3
(dp5520
g211
(lp5521
g21
ag22
asg213
(lp5522
g29
ag30
asg215
(lp5523
g217
ag218
asg219
(lp5524
g221
ag222
astRp5525
stRp5526
sS'CHEMBL1009'
p5527
g1
(g2
g3
(dp5528
S'P35462'
p5529
g1
(g2
g3
(dp5530
S'1.20.1070.10'
p5531
(lp5532
g39
ag40
asS'PF00001'
p5533
(lp5534
g43
ag44
astRp5535
stRp5536
sS'CHEMBL1095777'
p5537
g1
(g2
g3
(dp5538
g330
g1
(g2
g3
(dp5539
g332
(lp5540
g39
ag40
asg334
(lp5541
g43
ag44
astRp5542
stRp5543
sS'CHEMBL1005'
p5544
g1
(g2
g3
(dp5545
g312
g1
(g2
g3
(dp5546
g314
(lp5547
g39
ag40
asg316
(lp5548
g43
ag44
astRp5549
stRp5550
sS'CHEMBL707'
p5551
g1
(g2
g3
(dp5552
g379
g1
(g2
g3
(dp5553
g381
(lp5554
g39
ag40
asg383
(lp5555
g43
ag44
astRp5556
stRp5557
sS'CHEMBL1000'
p5558
g1
(g2
g3
(dp5559
g35
g1
(g2
g3
(dp5560
g37
(lp5561
g39
ag40
asg41
(lp5562
g43
ag44
astRp5563
stRp5564
sS'CHEMBL99946'
p5565
g1
(g2
g3
(dp5566
g7
g1
(g2
g3
(dp5567
g9
(lp5568
g11
ag12
astRp5569
sg396
g1
(g2
g3
(dp5570
g398
(lp5571
g11
ag12
astRp5572
stRp5573
sS'CHEMBL1002'
p5574
g1
(g2
g3
(dp5575
g330
g1
(g2
g3
(dp5576
g332
(lp5577
g39
ag40
asg334
(lp5578
g43
ag44
astRp5579
stRp5580
sS'CHEMBL1336'
p5581
g1
(g2
g3
(dp5582
g1633
g1
(g2
g3
(dp5583
g1635
(lp5584
g1637
ag1638
asg1639
(lp5585
g1587
ag1588
asg1641
(lp5586
g1591
ag1592
asg1643
(lp5587
g439
ag440
ag441
asg1645
(lp5588
g1581
ag1582
asg1647
(lp5589
g509
ag510
asg1649
(lp5590
g1651
ag1652
asg1653
(lp5591
g444
ag445
ag446
astRp5592
sg1751
g1
(g2
g3
(dp5593
g1753
(lp5594
g439
ag440
ag441
asg1755
(lp5595
g1581
ag1582
asg1757
(lp5596
g509
ag510
asg1759
(lp5597
g1761
ag1762
asg1763
(lp5598
g1675
asg1765
(lp5599
g1591
ag1592
asg1767
(lp5600
g444
ag445
ag446
astRp5601
sg503
g1
(g2
g3
(dp5602
g505
(lp5603
g439
ag440
ag441
asg507
(lp5604
g509
ag510
asg511
(lp5605
g513
ag514
asg515
(lp5606
g517
ag518
asg519
(lp5607
g521
asg522
(lp5608
g524
ag525
asg526
(lp5609
g444
ag445
ag446
astRp5610
sS'P36888'
p5611
g1
(g2
g3
(dp5612
S'1.10.510.10'
p5613
(lp5614
g439
ag440
ag441
asS'PF07714'
p5615
(lp5616
g509
ag510
asS'3.30.200.20'
p5617
(lp5618
g444
ag445
ag446
asS'PF00047'
p5619
(lp5620
g1675
asS'2.60.40.10'
p5621
(lp5622
g1591
ag1592
astRp5623
sg1770
g1
(g2
g3
(dp5624
g1772
(lp5625
g439
ag440
ag441
asg1774
(lp5626
g1776
ag1777
asg1778
(lp5627
g1780
ag1781
asg1782
(lp5628
g509
ag510
asg1784
(lp5629
g444
ag445
ag446
asg1786
(lp5630
g1788
ag1789
astRp5631
sg2888
g1
(g2
g3
(dp5632
g1671
(lp5633
g1587
ag1588
asg1673
(lp5634
g1675
asg1676
(lp5635
g1591
ag1592
asg1678
(lp5636
g439
ag440
ag441
asg1680
(lp5637
g1581
ag1582
asg1682
(lp5638
g509
ag510
asg1684
(lp5639
g1651
ag1652
asg1686
(lp5640
g444
ag445
ag446
astRp5641
sg1689
g1
(g2
g3
(dp5642
g1691
(lp5643
g439
ag440
ag441
asg1693
(lp5644
g509
ag510
asg1695
(lp5645
g513
ag514
asg1697
(lp5646
g517
ag518
asg1699
(lp5647
g521
asg1701
(lp5648
g524
ag525
asg1703
(lp5649
g444
ag445
ag446
astRp5650
stRp5651
sS'CHEMBL1437'
p5652
g1
(g2
g3
(dp5653
g1260
g1
(g2
g3
(dp5654
g304
(lp5655
g39
ag40
asg306
(lp5656
g43
ag44
astRp5657
stRp5658
sS'CHEMBL661'
p5659
g1
(g2
g3
(dp5660
g1268
g1
(g2
g3
(dp5661
g1270
(lp5662
g693
ag694
ag695
asg1272
(lp5663
g698
ag699
ag700
asg1274
(lp5664
g703
ag704
ag705
asg1276
(lp5665
g708
ag709
ag710
astRp5666
stRp5667
sS'CHEMBL666'
p5668
g1
(g2
g3
(dp5669
S'P04293'
p5670
g1
(g2
g3
(dp5671
S'3.30.420.10'
p5672
(lp5673
g719
ag720
asS'3.90.1600.10'
p5674
(lp5675
S'Q5BZ17'
p5676
aS'G4LX42'
p5677
asS'PF03104'
p5678
(lp5679
S'G4LX42'
p5680
asS'3.30.342.10'
p5681
(lp5682
S'G4LZ59'
p5683
asS'PF00136'
p5684
(lp5685
S'Q5BZ17'
p5686
aS'G4LX42'
p5687
astRp5688
stRp5689
sS'CHEMBL667'
p5690
g1
(g2
g3
(dp5691
g566
g1
(g2
g3
(dp5692
g568
(lp5693
g39
ag40
asg570
(lp5694
g43
ag44
astRp5695
stRp5696
sS'CHEMBL668'
p5697
g1
(g2
g3
(dp5698
g7
g1
(g2
g3
(dp5699
g9
(lp5700
g11
ag12
astRp5701
sg396
g1
(g2
g3
(dp5702
g398
(lp5703
g11
ag12
astRp5704
stRp5705
sS'CHEMBL669'
p5706
g1
(g2
g3
(dp5707
g907
g1
(g2
g3
(dp5708
g909
(lp5709
g39
ag40
asg911
(lp5710
g43
ag44
astRp5711
sg87
g1
(g2
g3
(dp5712
g89
(lp5713
g39
ag40
asg91
(lp5714
g43
ag44
astRp5715
stRp5716
sS'CHEMBL254316'
p5717
g1
(g2
g3
(dp5718
g3926
g1
(g2
g3
(dp5719
g3928
(lp5720
g719
ag720
asg3930
(lp5721
g3932
ag3933
asg3934
(lp5722
g3936
ag3937
astRp5723
stRp5724
sS'CHEMBL1173655'
p5725
g1
(g2
g3
(dp5726
g3018
g1
(g2
g3
(dp5727
g3020
(lp5728
g3022
ag3023
asg3024
(lp5729
g3026
ag3027
asg3028
(lp5730
g3030
ag3031
asg3032
(lp5731
g3034
ag3035
asg3036
(lp5732
g439
ag440
ag441
asg3038
(lp5733
g509
ag510
asg3040
(lp5734
g3042
asg3043
(lp5735
g444
ag445
ag446
asg3045
(lp5736
g3047
ag3048
astRp5737
sg3050
g1
(g2
g3
(dp5738
g3052
(lp5739
g3022
ag3023
asg3054
(lp5740
g3026
ag3027
asg3056
(lp5741
g3030
ag3031
asg3058
(lp5742
g3034
ag3035
asg3060
(lp5743
g439
ag440
ag441
asg3062
(lp5744
g509
ag510
asg3064
(lp5745
g3042
asg3066
(lp5746
g444
ag445
ag446
asg3068
(lp5747
g3047
ag3048
astRp5748
sS'Q15303'
p5749
g1
(g2
g3
(dp5750
S'PF01030'
p5751
(lp5752
g3022
ag3023
asS'2.10.220.10'
p5753
(lp5754
g3026
ag3027
asS'1.20.5.100'
p5755
(lp5756
g3030
ag3031
asS'3.80.20.20'
p5757
(lp5758
g3034
ag3035
asS'1.10.510.10'
p5759
(lp5760
g439
ag440
ag441
asS'PF07714'
p5761
(lp5762
g509
ag510
asS'PF14843'
p5763
(lp5764
g3042
asS'3.30.200.20'
p5765
(lp5766
g444
ag445
ag446
asS'PF00757'
p5767
(lp5768
g3047
ag3048
astRp5769
stRp5770
sS'CHEMBL1189432'
p5771
g1
(g2
g3
(dp5772
g35
g1
(g2
g3
(dp5773
g37
(lp5774
g39
ag40
asg41
(lp5775
g43
ag44
astRp5776
stRp5777
sS'CHEMBL1194666'
p5778
g1
(g2
g3
(dp5779
g396
g1
(g2
g3
(dp5780
g398
(lp5781
g11
ag12
astRp5782
sg401
g1
(g2
g3
(dp5783
g403
(lp5784
g11
ag12
astRp5785
stRp5786
sS'CHEMBL1077896'
p5787
g1
(g2
g3
(dp5788
g17
g1
(g2
g3
(dp5789
g19
(lp5790
g21
ag22
asg23
(lp5791
g25
ag26
asg27
(lp5792
g29
ag30
astRp5793
stRp5794
sS'CHEMBL672'
p5795
g1
(g2
g3
(dp5796
g1925
g1
(g2
g3
(dp5797
g1927
(lp5798
g122
ag123
asg1929
(lp5799
g126
ag127
asg1931
(lp5800
g130
ag131
asg1933
(lp5801
g134
ag135
astRp5802
stRp5803
sS'CHEMBL71'
p5804
g1
(g2
g3
(dp5805
g87
g1
(g2
g3
(dp5806
g89
(lp5807
g39
ag40
asg91
(lp5808
g43
ag44
astRp5809
sg1347
g1
(g2
g3
(dp5810
g96
(lp5811
g39
ag40
asg98
(lp5812
g43
ag44
astRp5813
stRp5814
sS'CHEMBL72'
p5815
g1
(g2
g3
(dp5816
g396
g1
(g2
g3
(dp5817
g398
(lp5818
g11
ag12
astRp5819
stRp5820
sS'CHEMBL79'
p5821
g1
(g2
g3
(dp5822
g17
g1
(g2
g3
(dp5823
g19
(lp5824
g21
ag22
asg23
(lp5825
g25
ag26
asg27
(lp5826
g29
ag30
astRp5827
stRp5828
sS'CHEMBL708'
p5829
g1
(g2
g3
(dp5830
g907
g1
(g2
g3
(dp5831
g909
(lp5832
g39
ag40
asg911
(lp5833
g43
ag44
astRp5834
sg87
g1
(g2
g3
(dp5835
g89
(lp5836
g39
ag40
asg91
(lp5837
g43
ag44
astRp5838
sg1347
g1
(g2
g3
(dp5839
g96
(lp5840
g39
ag40
asg98
(lp5841
g43
ag44
astRp5842
stRp5843
sS'CHEMBL1201169'
p5844
g1
(g2
g3
(dp5845
g1268
g1
(g2
g3
(dp5846
g1270
(lp5847
g693
ag694
ag695
asg1272
(lp5848
g698
ag699
ag700
asg1274
(lp5849
g703
ag704
ag705
asg1276
(lp5850
g708
ag709
ag710
astRp5851
stRp5852
sS'CHEMBL1201168'
p5853
g1
(g2
g3
(dp5854
g2740
g1
(g2
g3
(dp5855
g2742
(lp5856
g187
ag188
asg2744
(lp5857
g191
ag192
asg2746
(lp5858
g195
ag196
asg2748
(lp5859
g199
ag200
asg2750
(lp5860
g203
ag204
astRp5861
stRp5862
sS'CHEMBL1201319'
p5863
g1
(g2
g3
(dp5864
g379
g1
(g2
g3
(dp5865
g381
(lp5866
g39
ag40
asg383
(lp5867
g43
ag44
astRp5868
stRp5869
sS'CHEMBL1201284'
p5870
g1
(g2
g3
(dp5871
S'P41180'
p5872
g1
(g2
g3
(dp5873
S'PF01094'
p5874
(lp5875
g1048
ag1049
asS'3.40.50.2300'
p5876
(lp5877
g1065
ag1066
asS'PF00003'
p5878
(lp5879
S'E2IFV9'
p5880
asS'PF07562'
p5881
(lp5882
S'E2IFV9'
p5883
astRp5884
stRp5885
sS'CHEMBL1420'
p5886
g1
(g2
g3
(dp5887
g5380
g1
(g2
g3
(dp5888
g2453
(lp5889
g2455
ag2456
ag2457
asg2458
(lp5890
g2460
ag2461
ag2462
astRp5891
stRp5892
sS'CHEMBL839'
p5893
g1
(g2
g3
(dp5894
g832
g1
(g2
g3
(dp5895
g339
(lp5896
g39
ag40
asg341
(lp5897
g43
ag44
astRp5898
stRp5899
sS'CHEMBL838'
p5900
g1
(g2
g3
(dp5901
g755
g1
(g2
g3
(dp5902
g757
(lp5903
g759
ag760
astRp5904
stRp5905
sS'CHEMBL1201288'
p5906
g1
(g2
g3
(dp5907
S'P21817'
p5908
g1
(g2
g3
(dp5909
S'1.10.238.10'
p5910
(lp5911
S'B3GV00'
p5912
aS'A5A6F6'
p5913
aS'C4Q2F2'
p5914
asS'PF06459'
p5915
(lp5916
S'G4LXE8'
p5917
asS'1.25.10.30'
p5918
(lp5919
S'G4LXE8'
p5920
asS'PF08709'
p5921
(lp5922
S'G4LXE8'
p5923
asS'PF00520'
p5924
(lp5925
g21
ag22
asS'PB000467'
p5926
(lp5927
S'G4LXE8'
p5928
asS'PB001126'
p5929
(lp5930
S'G4LXE8'
p5931
asS'PB000549'
p5932
(lp5933
S'G4LXE8'
p5934
asS'PF02026'
p5935
(lp5936
S'G4LXE8'
p5937
asS'PB001594'
p5938
(lp5939
S'G4LXE8'
p5940
asS'2.80.10.50'
p5941
(lp5942
S'G4LUM3'
p5943
aS'B3GUY9'
p5944
asS'PF00622'
p5945
(lp5946
S'G4LZ14'
p5947
aS'Q5BXS8'
p5948
asS'PF01365'
p5949
(lp5950
S'G4LXE8'
p5951
asS'PF02815'
p5952
(lp5953
S'B3GUY9'
p5954
aS'G4M201'
p5955
asS'PF13833'
p5956
(lp5957
S'A5A6F7'
p5958
aS'Q3MJS5'
p5959
aS'G4VFV6'
p5960
asS'PF08454'
p5961
(lp5962
S'G4LXE8'
p5963
aS'Q5C2C3'
p5964
astRp5965
sS'Q15413'
p5966
g1
(g2
g3
(dp5967
S'1.10.238.10'
p5968
(lp5969
g5912
ag5913
ag5914
asS'PF06459'
p5970
(lp5971
g5917
asS'1.25.10.30'
p5972
(lp5973
g5920
asS'PF08709'
p5974
(lp5975
g5923
asS'PF00520'
p5976
(lp5977
g21
ag22
asS'PB000467'
p5978
(lp5979
g5928
asS'PB001126'
p5980
(lp5981
g5931
asS'PB000549'
p5982
(lp5983
g5934
asS'PF02026'
p5984
(lp5985
g5937
asS'PB001594'
p5986
(lp5987
g5940
asS'PB001716'
p5988
(lp5989
S'G4LXE8'
p5990
asS'2.80.10.50'
p5991
(lp5992
g5943
ag5944
asS'PF00622'
p5993
(lp5994
g5947
ag5948
asS'PF01365'
p5995
(lp5996
g5951
asS'PF02815'
p5997
(lp5998
g5954
ag5955
asS'PF08454'
p5999
(lp6000
g5963
ag5964
astRp6001
stRp6002
sS'CHEMBL836'
p6003
g1
(g2
g3
(dp6004
g379
g1
(g2
g3
(dp6005
g381
(lp6006
g39
ag40
asg383
(lp6007
g43
ag44
astRp6008
stRp6009
sS'CHEMBL834'
p6010
g1
(g2
g3
(dp6011
g1181
g1
(g2
g3
(dp6012
g1183
(lp6013
g1185
ag1186
asg1187
(lp6014
g1189
ag1190
astRp6015
stRp6016
sS'CHEMBL833'
p6017
g1
(g2
g3
(dp6018
g5303
g1
(g2
g3
(dp6019
g5305
(lp6020
g39
ag40
asg5307
(lp6021
g43
ag44
astRp6022
stRp6023
sS'CHEMBL832'
p6024
g1
(g2
g3
(dp6025
S'Q96S37'
p6026
g1
(g2
g3
(dp6027
S'1.20.1250.20'
p6028
(lp6029
g410
ag411
asS'PF07690'
p6030
(lp6031
g414
ag415
astRp6032
stRp6033
sS'CHEMBL831'
p6034
g1
(g2
g3
(dp6035
g907
g1
(g2
g3
(dp6036
g909
(lp6037
g39
ag40
asg911
(lp6038
g43
ag44
astRp6039
sg87
g1
(g2
g3
(dp6040
g89
(lp6041
g39
ag40
asg91
(lp6042
g43
ag44
astRp6043
sg1347
g1
(g2
g3
(dp6044
g96
(lp6045
g39
ag40
asg98
(lp6046
g43
ag44
astRp6047
stRp6048
sS'CHEMBL830'
p6049
g1
(g2
g3
(dp6050
S'P11926'
p6051
g1
(g2
g3
(dp6052
S'3.20.20.10'
p6053
(lp6054
g2713
astRp6055
stRp6056
sS'CHEMBL406'
p6057
g1
(g2
g3
(dp6058
g1519
g1
(g2
g3
(dp6059
g1521
(lp6060
g286
astRp6061
stRp6062
sS'CHEMBL679'
p6063
g1
(g2
g3
(dp6064
g1260
g1
(g2
g3
(dp6065
g304
(lp6066
g39
ag40
asg306
(lp6067
g43
ag44
astRp6068
stRp6069
sS'CHEMBL405'
p6070
g1
(g2
g3
(dp6071
g396
g1
(g2
g3
(dp6072
g398
(lp6073
g11
ag12
astRp6074
sg401
g1
(g2
g3
(dp6075
g403
(lp6076
g11
ag12
astRp6077
stRp6078
sS'CHEMBL1580'
p6079
g1
(g2
g3
(dp6080
S'P00813'
p6081
g1
(g2
g3
(dp6082
S'PF00962'
p6083
(lp6084
S'Q1A7N0'
p6085
aS'G4LVD7'
p6086
asS'3.20.20.140'
p6087
(lp6088
S'C1LE16'
p6089
aS'G4LVD7'
p6090
astRp6091
stRp6092
sS'CHEMBL2105395'
p6093
g1
(g2
g3
(dp6094
g3845
g1
(g2
g3
(dp6095
g3135
(lp6096
g122
ag123
asg3137
(lp6097
g126
ag127
asg3139
(lp6098
g130
ag131
asg3141
(lp6099
g134
ag135
astRp6100
stRp6101
sS'CHEMBL1289926'
p6102
g1
(g2
g3
(dp6103
g1633
g1
(g2
g3
(dp6104
g1635
(lp6105
g1637
ag1638
asg1639
(lp6106
g1587
ag1588
asg1641
(lp6107
g1591
ag1592
asg1643
(lp6108
g439
ag440
ag441
asg1645
(lp6109
g1581
ag1582
asg1647
(lp6110
g509
ag510
asg1649
(lp6111
g1651
ag1652
asg1653
(lp6112
g444
ag445
ag446
astRp6113
stRp6114
sS'CHEMBL408'
p6115
g1
(g2
g3
(dp6116
g1306
g1
(g2
g3
(dp6117
g1308
(lp6118
g122
ag123
asg1310
(lp6119
g126
ag127
asg1312
(lp6120
g130
ag131
asg1314
(lp6121
g134
ag135
astRp6122
stRp6123
sS'CHEMBL409'
p6124
g1
(g2
g3
(dp6125
S'P10275'
p6126
g1
(g2
g3
(dp6127
S'PF00104'
p6128
(lp6129
g122
ag123
asS'PF00105'
p6130
(lp6131
g126
ag127
asS'3.30.50.10'
p6132
(lp6133
g130
ag131
asS'1.10.565.10'
p6134
(lp6135
g134
ag135
asS'3.30.40.10'
p6136
(lp6137
g2552
ag2553
astRp6138
stRp6139
sS'CHEMBL796'
p6140
g1
(g2
g3
(dp6141
g396
g1
(g2
g3
(dp6142
g398
(lp6143
g11
ag12
astRp6144
sg401
g1
(g2
g3
(dp6145
g403
(lp6146
g11
ag12
astRp6147
stRp6148
sS'CHEMBL797'
p6149
g1
(g2
g3
(dp6150
g2195
g1
(g2
g3
(dp6151
g2197
(lp6152
g21
ag22
asg2199
(lp6153
g29
ag30
astRp6154
stRp6155
sS'CHEMBL1200862'
p6156
g1
(g2
g3
(dp6157
S'P07101'
p6158
g1
(g2
g3
(dp6159
S'1.10.800.10'
p6160
(lp6161
S'G4VPY9'
p6162
aS'C1LDI3'
p6163
asS'PF00351'
p6164
(lp6165
S'G4VPY9'
p6166
aS'C7TY28'
p6167
astRp6168
stRp6169
sS'CHEMBL601719'
p6170
g1
(g2
g3
(dp6171
S'P08581'
p6172
g1
(g2
g3
(dp6173
S'PF01437'
p6174
(lp6175
S'C4QN32'
p6176
asS'2.130.10.10'
p6177
(lp6178
S'C1L4J2'
p6179
aS'C4Q352'
p6180
asS'3.30.1680.10'
p6181
(lp6182
S'G4V6Q4'
p6183
asS'2.60.40.10'
p6184
(lp6185
g1591
ag1592
asS'PF01833'
p6186
(lp6187
S'Q5C2K5'
p6188
aS'G4VGE5'
p6189
asS'PF01403'
p6190
(lp6191
S'G4VG15'
p6192
aS'Q5C7J3'
p6193
asS'1.10.510.10'
p6194
(lp6195
g439
ag440
ag441
asS'PB000053'
p6196
(lp6197
S'Q5BSE2'
p6198
aS'G4LX88'
p6199
asS'PF07714'
p6200
(lp6201
g509
ag510
asS'3.30.200.20'
p6202
(lp6203
g444
ag445
ag446
astRp6204
sS'Q9UM73'
p6205
g1
(g2
g3
(dp6206
S'1.10.510.10'
p6207
(lp6208
g439
ag440
ag441
asS'4.10.400.10'
p6209
(lp6210
S'G4LZA8'
p6211
aS'Q9U8F4'
p6212
asS'PF00629'
p6213
(lp6214
S'G4V8Z6'
p6215
asS'2.60.120.260'
p6216
(lp6217
g1720
ag1721
asS'PF07714'
p6218
(lp6219
g509
ag510
asS'3.30.200.20'
p6220
(lp6221
g444
ag445
ag446
astRp6222
stRp6223
sS'CHEMBL440'
p6224
g1
(g2
g3
(dp6225
g1268
g1
(g2
g3
(dp6226
g1270
(lp6227
g693
ag694
ag695
asg1272
(lp6228
g698
ag699
ag700
asg1274
(lp6229
g703
ag704
ag705
asg1276
(lp6230
g708
ag709
ag710
astRp6231
stRp6232
sS'CHEMBL799'
p6233
g1
(g2
g3
(dp6234
g4249
g1
(g2
g3
(dp6235
g4251
(lp6236
g2656
ag2657
asg4253
(lp6237
g2662
ag2663
astRp6238
stRp6239
sS'CHEMBL880'
p6240
g1
(g2
g3
(dp6241
g5670
g1
(g2
g3
(dp6242
g5672
(lp6243
g719
ag720
asg5674
(lp6244
g5676
ag5677
asg5678
(lp6245
g5680
asg5681
(lp6246
g5683
asg5684
(lp6247
g5686
ag5687
astRp6248
stRp6249
sS'CHEMBL499'
p6250
g1
(g2
g3
(dp6251
g330
g1
(g2
g3
(dp6252
g332
(lp6253
g39
ag40
asg334
(lp6254
g43
ag44
astRp6255
sg337
g1
(g2
g3
(dp6256
g339
(lp6257
g39
ag40
asg341
(lp6258
g43
ag44
astRp6259
stRp6260
sS'CHEMBL1428'
p6261
g1
(g2
g3
(dp6262
g1071
g1
(g2
g3
(dp6263
g1073
(lp6264
g21
ag22
asg1075
(lp6265
g29
ag30
asg1077
(lp6266
g221
ag222
astRp6267
sg1080
g1
(g2
g3
(dp6268
g1082
(lp6269
g122
ag123
asg1084
(lp6270
g126
ag127
asg1086
(lp6271
g130
ag131
asg1088
(lp6272
g134
ag135
astRp6273
stRp6274
sS'CHEMBL496'
p6275
g1
(g2
g3
(dp6276
g5023
g1
(g2
g3
(dp6277
g5025
(lp6278
g5027
ag5028
asg5029
(lp6279
g195
ag196
astRp6280
stRp6281
sS'CHEMBL490'
p6282
g1
(g2
g3
(dp6283
g7
g1
(g2
g3
(dp6284
g9
(lp6285
g11
ag12
astRp6286
stRp6287
sS'CHEMBL492'
p6288
g1
(g2
g3
(dp6289
g17
g1
(g2
g3
(dp6290
g19
(lp6291
g21
ag22
asg23
(lp6292
g25
ag26
asg27
(lp6293
g29
ag30
astRp6294
stRp6295
sS'CHEMBL728'
p6296
g1
(g2
g3
(dp6297
g94
g1
(g2
g3
(dp6298
g96
(lp6299
g39
ag40
asg98
(lp6300
g43
ag44
astRp6301
stRp6302
sS'CHEMBL439849'
p6303
g1
(g2
g3
(dp6304
g7
g1
(g2
g3
(dp6305
g9
(lp6306
g11
ag12
astRp6307
sg682
g1
(g2
g3
(dp6308
g684
(lp6309
g39
ag40
asg686
(lp6310
g43
ag44
astRp6311
stRp6312
sS'CHEMBL1963681'
p6313
g1
(g2
g3
(dp6314
g2644
g1
(g2
g3
(dp6315
g2646
(lp6316
g2648
ag2649
asg2650
(lp6317
g2652
ag2653
asg2654
(lp6318
g2656
ag2657
asg2658
(lp6319
g25
ag26
asg2660
(lp6320
g2662
ag2663
astRp6321
stRp6322
sS'CHEMBL646'
p6323
g1
(g2
g3
(dp6324
g1268
g1
(g2
g3
(dp6325
g1270
(lp6326
g693
ag694
ag695
asg1272
(lp6327
g698
ag699
ag700
asg1274
(lp6328
g703
ag704
ag705
asg1276
(lp6329
g708
ag709
ag710
astRp6330
stRp6331
sS'CHEMBL964'
p6332
g1
(g2
g3
(dp6333
S'P05091'
p6334
g1
(g2
g3
(dp6335
S'3.40.605.10'
p6336
(lp6337
g1812
ag1813
asS'3.40.309.10'
p6338
(lp6339
g1816
ag1817
asS'PF00171'
p6340
(lp6341
g1820
ag1821
astRp6342
stRp6343
sS'CHEMBL1200453'
p6344
g1
(g2
g3
(dp6345
S'Q69091'
p6346
g1
(g2
g3
(dp6347
S'1.20.5.100'
p6348
(lp6349
g3030
ag3031
astRp6350
stRp6351
sS'CHEMBL1069'
p6352
g1
(g2
g3
(dp6353
g49
g1
(g2
g3
(dp6354
g51
(lp6355
g39
ag40
asg53
(lp6356
g43
ag44
astRp6357
stRp6358
sS'CHEMBL1201287'
p6359
g1
(g2
g3
(dp6360
g35
g1
(g2
g3
(dp6361
g37
(lp6362
g39
ag40
asg41
(lp6363
g43
ag44
astRp6364
stRp6365
sS'CHEMBL535'
p6366
g1
(g2
g3
(dp6367
g1770
g1
(g2
g3
(dp6368
g1772
(lp6369
g439
ag440
ag441
asg1774
(lp6370
g1776
ag1777
asg1778
(lp6371
g1780
ag1781
asg1782
(lp6372
g509
ag510
asg1784
(lp6373
g444
ag445
ag446
asg1786
(lp6374
g1788
ag1789
astRp6375
sg5611
g1
(g2
g3
(dp6376
g5613
(lp6377
g439
ag440
ag441
asg5615
(lp6378
g509
ag510
asg5617
(lp6379
g444
ag445
ag446
asg5619
(lp6380
g1675
asg5621
(lp6381
g1591
ag1592
astRp6382
sg4907
g1
(g2
g3
(dp6383
g4909
(lp6384
g1761
ag1762
asg4911
(lp6385
g1675
asg4913
(lp6386
g1591
ag1592
asg4915
(lp6387
g4917
ag4918
asg4919
(lp6388
g439
ag440
ag441
asg4921
(lp6389
g509
ag510
asg4923
(lp6390
g1651
ag1652
asg4925
(lp6391
g444
ag445
ag446
astRp6392
sg1751
g1
(g2
g3
(dp6393
g1753
(lp6394
g439
ag440
ag441
asg1755
(lp6395
g1581
ag1582
asg1757
(lp6396
g509
ag510
asg1759
(lp6397
g1761
ag1762
asg1763
(lp6398
g1675
asg1765
(lp6399
g1591
ag1592
asg1767
(lp6400
g444
ag445
ag446
astRp6401
sg1633
g1
(g2
g3
(dp6402
g1635
(lp6403
g1637
ag1638
asg1639
(lp6404
g1587
ag1588
asg1641
(lp6405
g1591
ag1592
asg1643
(lp6406
g439
ag440
ag441
asg1645
(lp6407
g1581
ag1582
asg1647
(lp6408
g509
ag510
asg1649
(lp6409
g1651
ag1652
asg1653
(lp6410
g444
ag445
ag446
astRp6411
sg1669
g1
(g2
g3
(dp6412
g1671
(lp6413
g1587
ag1588
asg1673
(lp6414
g1675
asg1676
(lp6415
g1591
ag1592
asg1678
(lp6416
g439
ag440
ag441
asg1680
(lp6417
g1581
ag1582
asg1682
(lp6418
g509
ag510
asg1684
(lp6419
g1651
ag1652
asg1686
(lp6420
g444
ag445
ag446
astRp6421
stRp6422
sS'CHEMBL126'
p6423
g1
(g2
g3
(dp6424
S'P66420'
p6425
g1
(g2
g3
(dp6426
S'PF00253'
p6427
(lp6428
S'G4V8K8'
p6429
aS'Q5BTL1'
p6430
asS'4.10.830.10'
p6431
(lp6432
S'G4V8K8'
p6433
aS'Q5BTL1'
p6434
astRp6435
stRp6436
sS'CHEMBL121'
p6437
g1
(g2
g3
(dp6438
g1306
g1
(g2
g3
(dp6439
g1308
(lp6440
g122
ag123
asg1310
(lp6441
g126
ag127
asg1312
(lp6442
g130
ag131
asg1314
(lp6443
g134
ag135
astRp6444
stRp6445
sS'CHEMBL1201131'
p6446
g1
(g2
g3
(dp6447
S'E0VCW8'
p6448
g1
(g2
g3
(dp6449
S'PF00067'
p6450
(lp6451
g231
ag232
asS'1.10.630.10'
p6452
(lp6453
g235
ag236
astRp6454
stRp6455
sS'CHEMBL122'
p6456
g1
(g2
g3
(dp6457
g256
g1
(g2
g3
(dp6458
g258
(lp6459
g144
ag145
asg260
(lp6460
g148
ag149
asg262
(lp6461
g152
ag153
astRp6462
stRp6463
sS'CHEMBL1789941'
p6464
g1
(g2
g3
(dp6465
S'O60674'
p6466
g1
(g2
g3
(dp6467
S'1.10.510.10'
p6468
(lp6469
g439
ag440
ag441
asS'PF07714'
p6470
(lp6471
g509
ag510
asS'PF00017'
p6472
(lp6473
g1382
ag1383
asS'1.20.80.10'
p6474
(lp6475
g3681
ag3682
asS'3.30.505.10'
p6476
(lp6477
g1388
ag1389
asS'3.30.200.20'
p6478
(lp6479
g444
ag445
ag446
astRp6480
sS'P23458'
p6481
g1
(g2
g3
(dp6482
g3671
(lp6483
g439
ag440
ag441
asg3673
(lp6484
g1388
ag1389
asg3675
(lp6485
g509
ag510
asg3677
(lp6486
g444
ag445
ag446
asg3679
(lp6487
g3681
ag3682
astRp6488
stRp6489
sS'CHEMBL1200692'
p6490
g1
(g2
g3
(dp6491
g49
g1
(g2
g3
(dp6492
g51
(lp6493
g39
ag40
asg53
(lp6494
g43
ag44
astRp6495
stRp6496
sS'CHEMBL1200694'
p6497
g1
(g2
g3
(dp6498
g3534
g1
(g2
g3
(dp6499
g3536
(lp6500
g668
ag669
asg3538
(lp6501
g3540
ag3541
asg3542
(lp6502
g29
ag30
astRp6503
sg3545
g1
(g2
g3
(dp6504
g3547
(lp6505
g693
ag694
ag695
asg3549
(lp6506
g698
ag699
ag700
asg3551
(lp6507
g703
ag704
ag705
asg3553
(lp6508
g708
ag709
ag710
astRp6509
sg1268
g1
(g2
g3
(dp6510
g1270
(lp6511
g693
ag694
ag695
asg1272
(lp6512
g698
ag699
ag700
asg1274
(lp6513
g703
ag704
ag705
asg1276
(lp6514
g708
ag709
ag710
astRp6515
sg3562
g1
(g2
g3
(dp6516
g3564
(lp6517
g668
ag669
asg3566
(lp6518
g29
ag30
astRp6519
sg3569
g1
(g2
g3
(dp6520
g3571
(lp6521
g668
ag669
asg3573
(lp6522
g29
ag30
astRp6523
sg3576
g1
(g2
g3
(dp6524
g3578
(lp6525
g668
ag669
asg3580
(lp6526
g29
ag30
astRp6527
sg3583
g1
(g2
g3
(dp6528
g3585
(lp6529
g668
ag669
asg3587
(lp6530
g29
ag30
astRp6531
stRp6532
sS'CHEMBL128'
p6533
g1
(g2
g3
(dp6534
g2256
g1
(g2
g3
(dp6535
g2258
(lp6536
g39
ag40
asg2260
(lp6537
g43
ag44
astRp6538
sg2263
g1
(g2
g3
(dp6539
g2265
(lp6540
g39
ag40
asg2267
(lp6541
g43
ag44
astRp6542
stRp6543
sS'CHEMBL1259059'
p6544
g1
(g2
g3
(dp6545
S'Q8JXU8'
p6546
g1
(g2
g3
(dp6547
S'3.30.70.270'
p6548
(lp6549
g727
ag728
astRp6550
stRp6551
sS'CHEMBL1104'
p6552
g1
(g2
g3
(dp6553
g5380
g1
(g2
g3
(dp6554
g2453
(lp6555
g2455
ag2456
ag2457
asg2458
(lp6556
g2460
ag2461
ag2462
astRp6557
stRp6558
sS'CHEMBL1237123'
p6559
g1
(g2
g3
(dp6560
g2007
g1
(g2
g3
(dp6561
g2009
(lp6562
g693
ag694
ag695
asg2011
(lp6563
g698
ag699
ag700
asg2013
(lp6564
g703
ag704
ag705
asg2015
(lp6565
g708
ag709
ag710
astRp6566
stRp6567
sS'CHEMBL278020'
p6568
g1
(g2
g3
(dp6569
g5380
g1
(g2
g3
(dp6570
g2453
(lp6571
g2455
ag2456
ag2457
asg2458
(lp6572
g2460
ag2461
ag2462
astRp6573
stRp6574
sS'CHEMBL198362'
p6575
g1
(g2
g3
(dp6576
S'P00742'
p6577
g1
(g2
g3
(dp6578
S'2.40.10.10'
p6579
(lp6580
g3633
ag3634
ag3635
asS'2.10.25.10'
p6581
(lp6582
g152
ag153
asS'PF00089'
p6583
(lp6584
g3641
ag3642
ag3643
asS'PF00008'
p6585
(lp6586
S'Q5C1F4'
p6587
aS'G4V5E1'
p6588
asS'PF14670'
p6589
(lp6590
S'G4VQ02'
p6591
aS'Q5C5F4'
p6592
astRp6593
stRp6594
sS'CHEMBL2105717'
p6595
g1
(g2
g3
(dp6596
g6172
g1
(g2
g3
(dp6597
g6174
(lp6598
g6176
asg6177
(lp6599
g6179
ag6180
asg6181
(lp6600
g6183
asg6184
(lp6601
g1591
ag1592
asg6186
(lp6602
g6188
ag6189
asg6190
(lp6603
g6192
ag6193
asg6194
(lp6604
g439
ag440
ag441
asg6196
(lp6605
g6198
ag6199
asg6200
(lp6606
g509
ag510
asg6202
(lp6607
g444
ag445
ag446
astRp6608
sS'P35968'
p6609
g1
(g2
g3
(dp6610
g1635
(lp6611
g1637
ag1638
asg1639
(lp6612
g1587
ag1588
asg1641
(lp6613
g1591
ag1592
asg1643
(lp6614
g439
ag440
ag441
asg1645
(lp6615
g1581
ag1582
asg1647
(lp6616
g509
ag510
asg1649
(lp6617
g1651
ag1652
asg1653
(lp6618
g444
ag445
ag446
astRp6619
stRp6620
sS'CHEMBL1265'
p6621
g1
(g2
g3
(dp6622
S'P10826'
p6623
g1
(g2
g3
(dp6624
S'PF00104'
p6625
(lp6626
g122
ag123
asS'PF00105'
p6627
(lp6628
g126
ag127
asS'3.30.50.10'
p6629
(lp6630
g130
ag131
asS'1.10.565.10'
p6631
(lp6632
g134
ag135
astRp6633
sS'P13631'
p6634
g1
(g2
g3
(dp6635
S'PF00104'
p6636
(lp6637
g122
ag123
asS'PF00105'
p6638
(lp6639
g126
ag127
asS'3.30.50.10'
p6640
(lp6641
g130
ag131
asS'1.10.565.10'
p6642
(lp6643
g134
ag135
astRp6644
stRp6645
sS'CHEMBL1266'
p6646
g1
(g2
g3
(dp6647
g2682
g1
(g2
g3
(dp6648
g304
(lp6649
g39
ag40
asg306
(lp6650
g43
ag44
astRp6651
stRp6652
sS'CHEMBL1262'
p6653
g1
(g2
g3
(dp6654
g227
g1
(g2
g3
(dp6655
g229
(lp6656
g231
ag232
asg233
(lp6657
g235
ag236
astRp6658
stRp6659
sS'CHEMBL1388'
p6660
g1
(g2
g3
(dp6661
g73
g1
(g2
g3
(dp6662
g75
(lp6663
g77
ag78
asg79
(lp6664
g81
ag82
astRp6665
stRp6666
sS'CHEMBL1382'
p6667
g1
(g2
g3
(dp6668
g765
g1
(g2
g3
(dp6669
g767
(lp6670
g39
ag40
asg769
(lp6671
g43
ag44
astRp6672
sg566
g1
(g2
g3
(dp6673
g568
(lp6674
g39
ag40
asg570
(lp6675
g43
ag44
astRp6676
stRp6677
sS'CHEMBL1380'
p6678
g1
(g2
g3
(dp6679
g715
g1
(g2
g3
(dp6680
g717
(lp6681
g719
ag720
asg721
(lp6682
g723
ag724
asg725
(lp6683
g727
ag728
asg729
(lp6684
g731
ag732
asg733
(lp6685
g735
ag736
astRp6686
stRp6687
sS'CHEMBL407'
p6688
g1
(g2
g3
(dp6689
g1268
g1
(g2
g3
(dp6690
g1270
(lp6691
g693
ag694
ag695
asg1272
(lp6692
g698
ag699
ag700
asg1274
(lp6693
g703
ag704
ag705
asg1276
(lp6694
g708
ag709
ag710
astRp6695
stRp6696
sS'CHEMBL1055'
p6697
g1
(g2
g3
(dp6698
g1519
g1
(g2
g3
(dp6699
g1521
(lp6700
g286
astRp6701
stRp6702
sS'CHEMBL730'
p6703
g1
(g2
g3
(dp6704
g803
g1
(g2
g3
(dp6705
g805
(lp6706
g807
ag808
asg809
(lp6707
g811
asg812
(lp6708
g814
asg815
(lp6709
g817
asg818
(lp6710
g820
ag821
astRp6711
stRp6712
sS'CHEMBL533'
p6713
g1
(g2
g3
(dp6714
g3983
g1
(g2
g3
(dp6715
g3985
(lp6716
g21
ag22
asg3987
(lp6717
g217
ag218
asg3989
(lp6718
g29
ag30
asg3991
(lp6719
g3993
ag3994
asg3995
(lp6720
g3997
asg3998
(lp6721
g4000
ag4001
asg4002
(lp6722
g4004
asg4005
(lp6723
g4007
ag4008
astRp6724
stRp6725
sS'CHEMBL965'
p6726
g1
(g2
g3
(dp6727
g566
g1
(g2
g3
(dp6728
g568
(lp6729
g39
ag40
asg570
(lp6730
g43
ag44
astRp6731
stRp6732
sS'CHEMBL1201466'
p6733
g1
(g2
g3
(dp6734
g3845
g1
(g2
g3
(dp6735
g3135
(lp6736
g122
ag123
asg3137
(lp6737
g126
ag127
asg3139
(lp6738
g130
ag131
asg3141
(lp6739
g134
ag135
astRp6740
stRp6741
sS'CHEMBL1201467'
p6742
g1
(g2
g3
(dp6743
g3845
g1
(g2
g3
(dp6744
g3135
(lp6745
g122
ag123
asg3137
(lp6746
g126
ag127
asg3139
(lp6747
g130
ag131
asg3141
(lp6748
g134
ag135
astRp6749
stRp6750
sS'CHEMBL70418'
p6751
g1
(g2
g3
(dp6752
g1268
g1
(g2
g3
(dp6753
g1270
(lp6754
g693
ag694
ag695
asg1272
(lp6755
g698
ag699
ag700
asg1274
(lp6756
g703
ag704
ag705
asg1276
(lp6757
g708
ag709
ag710
astRp6758
stRp6759
sS'CHEMBL1110'
p6760
g1
(g2
g3
(dp6761
g689
g1
(g2
g3
(dp6762
g691
(lp6763
g693
ag694
ag695
asg696
(lp6764
g698
ag699
ag700
asg701
(lp6765
g703
ag704
ag705
asg706
(lp6766
g708
ag709
ag710
astRp6767
stRp6768
sS'CHEMBL1201268'
p6769
g1
(g2
g3
(dp6770
g559
g1
(g2
g3
(dp6771
g561
(lp6772
g39
ag40
asg563
(lp6773
g43
ag44
astRp6774
sg566
g1
(g2
g3
(dp6775
g568
(lp6776
g39
ag40
asg570
(lp6777
g43
ag44
astRp6778
stRp6779
sS'CHEMBL1201269'
p6780
g1
(g2
g3
(dp6781
g7
g1
(g2
g3
(dp6782
g9
(lp6783
g11
ag12
astRp6784
stRp6785
sS'CHEMBL1201264'
p6786
g1
(g2
g3
(dp6787
g2107
g1
(g2
g3
(dp6788
g2109
(lp6789
g39
ag40
asg2111
(lp6790
g43
ag44
astRp6791
stRp6792
sS'CHEMBL1111'
p6793
g1
(g2
g3
(dp6794
S'P25101'
p6795
g1
(g2
g3
(dp6796
S'1.20.1070.10'
p6797
(lp6798
g39
ag40
asS'PF00001'
p6799
(lp6800
g43
ag44
astRp6801
stRp6802
sS'CHEMBL1201262'
p6803
g1
(g2
g3
(dp6804
g1260
g1
(g2
g3
(dp6805
g304
(lp6806
g39
ag40
asg306
(lp6807
g43
ag44
astRp6808
stRp6809
sS'CHEMBL1201260'
p6810
g1
(g2
g3
(dp6811
g396
g1
(g2
g3
(dp6812
g398
(lp6813
g11
ag12
astRp6814
stRp6815
sS'CHEMBL1200854'
p6816
g1
(g2
g3
(dp6817
g94
g1
(g2
g3
(dp6818
g96
(lp6819
g39
ag40
asg98
(lp6820
g43
ag44
astRp6821
stRp6822
sS'CHEMBL534'
p6823
g1
(g2
g3
(dp6824
g35
g1
(g2
g3
(dp6825
g37
(lp6826
g39
ag40
asg41
(lp6827
g43
ag44
astRp6828
stRp6829
sS'CHEMBL1316'
p6830
g1
(g2
g3
(dp6831
g256
g1
(g2
g3
(dp6832
g258
(lp6833
g144
ag145
asg260
(lp6834
g148
ag149
asg262
(lp6835
g152
ag153
astRp6836
stRp6837
sS'CHEMBL1163'
p6838
g1
(g2
g3
(dp6839
g886
g1
(g2
g3
(dp6840
g888
(lp6841
g890
ag891
asg892
(lp6842
g894
ag895
astRp6843
stRp6844
sS'CHEMBL360328'
p6845
g1
(g2
g3
(dp6846
g907
g1
(g2
g3
(dp6847
g909
(lp6848
g39
ag40
asg911
(lp6849
g43
ag44
astRp6850
stRp6851
sS'CHEMBL998'
p6852
g1
(g2
g3
(dp6853
g35
g1
(g2
g3
(dp6854
g37
(lp6855
g39
ag40
asg41
(lp6856
g43
ag44
astRp6857
stRp6858
sS'CHEMBL1166'
p6859
g1
(g2
g3
(dp6860
g3629
g1
(g2
g3
(dp6861
g3631
(lp6862
g3633
ag3634
ag3635
asg3636
(lp6863
g3638
asg3639
(lp6864
g3641
ag3642
ag3643
asg3644
(lp6865
g3646
astRp6866
stRp6867
sS'CHEMBL1165'
p6868
g1
(g2
g3
(dp6869
g755
g1
(g2
g3
(dp6870
g757
(lp6871
g759
ag760
astRp6872
stRp6873
sS'CHEMBL629'
p6874
g1
(g2
g3
(dp6875
g7
g1
(g2
g3
(dp6876
g9
(lp6877
g11
ag12
astRp6878
sg396
g1
(g2
g3
(dp6879
g398
(lp6880
g11
ag12
astRp6881
stRp6882
sS'CHEMBL626'
p6883
g1
(g2
g3
(dp6884
S'Q4JEY0'
p6885
g1
(g2
g3
(dp6886
S'3.50.50.60'
p6887
(lp6888
g199
ag200
astRp6889
stRp6890
sS'CHEMBL1169'
p6891
g1
(g2
g3
(dp6892
g140
g1
(g2
g3
(dp6893
g142
(lp6894
g144
ag145
asg146
(lp6895
g148
ag149
asg150
(lp6896
g152
ag153
astRp6897
stRp6898
sS'CHEMBL625'
p6899
g1
(g2
g3
(dp6900
g1111
g1
(g2
g3
(dp6901
g1113
(lp6902
g1115
ag1116
ag1117
asg1118
(lp6903
g1120
ag1121
ag1122
astRp6904
sg1124
g1
(g2
g3
(dp6905
g1126
(lp6906
g1128
ag1129
ag1130
asg1131
(lp6907
g1133
ag1134
ag1135
asg1136
(lp6908
g1138
ag1139
ag1140
asg1141
(lp6909
g1120
ag1121
ag1122
asg1143
(lp6910
g1115
ag1116
ag1117
astRp6911
stRp6912
sS'CHEMBL622'
p6913
g1
(g2
g3
(dp6914
g256
g1
(g2
g3
(dp6915
g258
(lp6916
g144
ag145
asg260
(lp6917
g148
ag149
asg262
(lp6918
g152
ag153
astRp6919
stRp6920
sS'CHEMBL623'
p6921
g1
(g2
g3
(dp6922
g7
g1
(g2
g3
(dp6923
g9
(lp6924
g11
ag12
astRp6925
sg907
g1
(g2
g3
(dp6926
g909
(lp6927
g39
ag40
asg911
(lp6928
g43
ag44
astRp6929
sg87
g1
(g2
g3
(dp6930
g89
(lp6931
g39
ag40
asg91
(lp6932
g43
ag44
astRp6933
sg396
g1
(g2
g3
(dp6934
g398
(lp6935
g11
ag12
astRp6936
stRp6937
sS'CHEMBL620'
p6938
g1
(g2
g3
(dp6939
g559
g1
(g2
g3
(dp6940
g561
(lp6941
g39
ag40
asg563
(lp6942
g43
ag44
astRp6943
sg566
g1
(g2
g3
(dp6944
g568
(lp6945
g39
ag40
asg570
(lp6946
g43
ag44
astRp6947
stRp6948
sS'CHEMBL621'
p6949
g1
(g2
g3
(dp6950
g7
g1
(g2
g3
(dp6951
g9
(lp6952
g11
ag12
astRp6953
sg907
g1
(g2
g3
(dp6954
g909
(lp6955
g39
ag40
asg911
(lp6956
g43
ag44
astRp6957
sg87
g1
(g2
g3
(dp6958
g89
(lp6959
g39
ag40
asg91
(lp6960
g43
ag44
astRp6961
stRp6962
sS'CHEMBL701'
p6963
g1
(g2
g3
(dp6964
S'Q9UBS5'
p6965
g1
(g2
g3
(dp6966
S'PF00084'
p6967
(lp6968
S'C4QRP9'
p6969
asS'3.40.50.2300'
p6970
(lp6971
g1065
ag1066
asS'2.10.70.10'
p6972
(lp6973
g3471
ag3472
asS'PF00003'
p6974
(lp6975
g5880
asS'PF01094'
p6976
(lp6977
g1048
ag1049
astRp6978
stRp6979
sS'CHEMBL289469'
p6980
g1
(g2
g3
(dp6981
g689
g1
(g2
g3
(dp6982
g691
(lp6983
g693
ag694
ag695
asg696
(lp6984
g698
ag699
ag700
asg701
(lp6985
g703
ag704
ag705
asg706
(lp6986
g708
ag709
ag710
astRp6987
stRp6988
sS'CHEMBL231779'
p6989
g1
(g2
g3
(dp6990
g6577
g1
(g2
g3
(dp6991
g6579
(lp6992
g3633
ag3634
ag3635
asg6581
(lp6993
g152
ag153
asg6583
(lp6994
g3641
ag3642
ag3643
asg6585
(lp6995
g6587
ag6588
asg6589
(lp6996
g6591
ag6592
astRp6997
stRp6998
sS'CHEMBL2095212'
p6999
g1
(g2
g3
(dp7000
S'P13945'
p7001
g1
(g2
g3
(dp7002
S'1.20.1070.10'
p7003
(lp7004
g39
ag40
asS'PF00001'
p7005
(lp7006
g43
ag44
astRp7007
stRp7008
sS'CHEMBL567'
p7009
g1
(g2
g3
(dp7010
g94
g1
(g2
g3
(dp7011
g96
(lp7012
g39
ag40
asg98
(lp7013
g43
ag44
astRp7014
stRp7015
sS'CHEMBL900'
p7016
g1
(g2
g3
(dp7017
g35
g1
(g2
g3
(dp7018
g37
(lp7019
g39
ag40
asg41
(lp7020
g43
ag44
astRp7021
sg1044
g1
(g2
g3
(dp7022
g1046
(lp7023
g1048
ag1049
asg1050
(lp7024
g1052
ag1053
asg1054
(lp7025
g1056
ag1057
asg1058
(lp7026
g1060
asg1061
(lp7027
g29
ag30
asg1063
(lp7028
g1065
ag1066
astRp7029
sg396
g1
(g2
g3
(dp7030
g398
(lp7031
g11
ag12
astRp7032
sg17
g1
(g2
g3
(dp7033
g19
(lp7034
g21
ag22
asg23
(lp7035
g25
ag26
asg27
(lp7036
g29
ag30
astRp7037
stRp7038
sS'CHEMBL905'
p7039
g1
(g2
g3
(dp7040
g2256
g1
(g2
g3
(dp7041
g2258
(lp7042
g39
ag40
asg2260
(lp7043
g43
ag44
astRp7044
sg2263
g1
(g2
g3
(dp7045
g2265
(lp7046
g39
ag40
asg2267
(lp7047
g43
ag44
astRp7048
stRp7049
sS'CHEMBL561'
p7050
g1
(g2
g3
(dp7051
g463
g1
(g2
g3
(dp7052
g465
(lp7053
g467
ag468
asg469
(lp7054
g471
asg472
(lp7055
g474
asg475
(lp7056
g477
ag478
asg479
(lp7057
g481
ag482
asg483
(lp7058
g485
ag486
astRp7059
stRp7060
sS'CHEMBL908'
p7061
g1
(g2
g3
(dp7062
g907
g1
(g2
g3
(dp7063
g909
(lp7064
g39
ag40
asg911
(lp7065
g43
ag44
astRp7066
sg87
g1
(g2
g3
(dp7067
g89
(lp7068
g39
ag40
asg91
(lp7069
g43
ag44
astRp7070
sg94
g1
(g2
g3
(dp7071
g96
(lp7072
g39
ag40
asg98
(lp7073
g43
ag44
astRp7074
sg5529
g1
(g2
g3
(dp7075
g5531
(lp7076
g39
ag40
asg5533
(lp7077
g43
ag44
astRp7078
stRp7079
sS'CHEMBL1542'
p7080
g1
(g2
g3
(dp7081
g2756
g1
(g2
g3
(dp7082
g2758
(lp7083
g2760
asg2761
(lp7084
g2763
ag2764
asg2765
(lp7085
g2767
ag2768
asg2769
(lp7086
g2771
ag2772
astRp7087
stRp7088
sS'CHEMBL6966'
p7089
g1
(g2
g3
(dp7090
g1071
g1
(g2
g3
(dp7091
g1073
(lp7092
g21
ag22
asg1075
(lp7093
g29
ag30
asg1077
(lp7094
g221
ag222
astRp7095
stRp7096
sS'CHEMBL1201764'
p7097
g1
(g2
g3
(dp7098
g765
g1
(g2
g3
(dp7099
g767
(lp7100
g39
ag40
asg769
(lp7101
g43
ag44
astRp7102
sg566
g1
(g2
g3
(dp7103
g568
(lp7104
g39
ag40
asg570
(lp7105
g43
ag44
astRp7106
stRp7107
sS'CHEMBL1254682'
p7108
g1
(g2
g3
(dp7109
g1561
g1
(g2
g3
(dp7110
g1563
(lp7111
g39
ag40
asg1565
(lp7112
g43
ag44
astRp7113
sg312
g1
(g2
g3
(dp7114
g314
(lp7115
g39
ag40
asg316
(lp7116
g43
ag44
astRp7117
stRp7118
sS'CHEMBL191'
p7119
g1
(g2
g3
(dp7120
g49
g1
(g2
g3
(dp7121
g51
(lp7122
g39
ag40
asg53
(lp7123
g43
ag44
astRp7124
stRp7125
sS'CHEMBL192'
p7126
g1
(g2
g3
(dp7127
g2644
g1
(g2
g3
(dp7128
g2646
(lp7129
g2648
ag2649
asg2650
(lp7130
g2652
ag2653
asg2654
(lp7131
g2656
ag2657
asg2658
(lp7132
g25
ag26
asg2660
(lp7133
g2662
ag2663
astRp7134
stRp7135
sS'CHEMBL1685'
p7136
g1
(g2
g3
(dp7137
g1561
g1
(g2
g3
(dp7138
g1563
(lp7139
g39
ag40
asg1565
(lp7140
g43
ag44
astRp7141
sg312
g1
(g2
g3
(dp7142
g314
(lp7143
g39
ag40
asg316
(lp7144
g43
ag44
astRp7145
stRp7146
sS'CHEMBL703'
p7147
g1
(g2
g3
(dp7148
g2007
g1
(g2
g3
(dp7149
g2009
(lp7150
g693
ag694
ag695
asg2011
(lp7151
g698
ag699
ag700
asg2013
(lp7152
g703
ag704
ag705
asg2015
(lp7153
g708
ag709
ag710
astRp7154
stRp7155
sS'CHEMBL1201295'
p7156
g1
(g2
g3
(dp7157
g330
g1
(g2
g3
(dp7158
g332
(lp7159
g39
ag40
asg334
(lp7160
g43
ag44
astRp7161
stRp7162
sS'CHEMBL1096'
p7163
g1
(g2
g3
(dp7164
g4094
g1
(g2
g3
(dp7165
g4096
(lp7166
g2656
ag2657
asg4098
(lp7167
g2662
ag2663
astRp7168
stRp7169
sS'CHEMBL753'
p7170
g1
(g2
g3
(dp7171
g2682
g1
(g2
g3
(dp7172
g304
(lp7173
g39
ag40
asg306
(lp7174
g43
ag44
astRp7175
stRp7176
sS'CHEMBL1201772'
p7177
g1
(g2
g3
(dp7178
g5303
g1
(g2
g3
(dp7179
g5305
(lp7180
g39
ag40
asg5307
(lp7181
g43
ag44
astRp7182
stRp7183
sS'CHEMBL698'
p7184
g1
(g2
g3
(dp7185
g17
g1
(g2
g3
(dp7186
g19
(lp7187
g21
ag22
asg23
(lp7188
g25
ag26
asg27
(lp7189
g29
ag30
astRp7190
stRp7191
sS'CHEMBL1760'
p7192
g1
(g2
g3
(dp7193
g330
g1
(g2
g3
(dp7194
g332
(lp7195
g39
ag40
asg334
(lp7196
g43
ag44
astRp7197
stRp7198
sS'CHEMBL1763'
p7199
g1
(g2
g3
(dp7200
g1519
g1
(g2
g3
(dp7201
g1521
(lp7202
g286
astRp7203
stRp7204
sS'CHEMBL1762'
p7205
g1
(g2
g3
(dp7206
g17
g1
(g2
g3
(dp7207
g19
(lp7208
g21
ag22
asg23
(lp7209
g25
ag26
asg27
(lp7210
g29
ag30
astRp7211
stRp7212
sS'CHEMBL1444'
p7213
g1
(g2
g3
(dp7214
g3515
g1
(g2
g3
(dp7215
g3517
(lp7216
g231
ag232
asg3519
(lp7217
g235
ag236
astRp7218
stRp7219
sS'CHEMBL558'
p7220
g1
(g2
g3
(dp7221
g17
g1
(g2
g3
(dp7222
g19
(lp7223
g21
ag22
asg23
(lp7224
g25
ag26
asg27
(lp7225
g29
ag30
astRp7226
stRp7227
sS'CHEMBL256087'
p7228
g1
(g2
g3
(dp7229
S'O75762'
p7230
g1
(g2
g3
(dp7231
S'PF00023'
p7232
(lp7233
S'Q5BRJ1'
p7234
aS'G4VE81'
p7235
asS'PF00520'
p7236
(lp7237
g21
ag22
asS'1.25.40.20'
p7238
(lp7239
g4169
ag4170
astRp7240
sS'Q7Z2W7'
p7241
g1
(g2
g3
(dp7242
S'PF00520'
p7243
(lp7244
g21
ag22
asS'PB001633'
p7245
(lp7246
S'G4VHR1'
p7247
asS'3.40.50.450'
p7248
(lp7249
S'G4LW05'
p7250
aS'Q5C1U5'
p7251
astRp7252
stRp7253
sS'CHEMBL697'
p7254
g1
(g2
g3
(dp7255
g2195
g1
(g2
g3
(dp7256
g2197
(lp7257
g21
ag22
asg2199
(lp7258
g29
ag30
astRp7259
stRp7260
sS'CHEMBL1441'
p7261
g1
(g2
g3
(dp7262
S'P0A5Y6'
p7263
g1
(g2
g3
(dp7264
S'PF13561'
p7265
(lp7266
g5027
ag5028
asS'3.40.50.720'
p7267
(lp7268
g195
ag196
astRp7269
stRp7270
sS'CHEMBL695'
p7271
g1
(g2
g3
(dp7272
g2195
g1
(g2
g3
(dp7273
g2197
(lp7274
g21
ag22
asg2199
(lp7275
g29
ag30
astRp7276
stRp7277
sS'CHEMBL87992'
p7278
g1
(g2
g3
(dp7279
g17
g1
(g2
g3
(dp7280
g19
(lp7281
g21
ag22
asg23
(lp7282
g25
ag26
asg27
(lp7283
g29
ag30
astRp7284
stRp7285
sS'CHEMBL1102'
p7286
g1
(g2
g3
(dp7287
g1268
g1
(g2
g3
(dp7288
g1270
(lp7289
g693
ag694
ag695
asg1272
(lp7290
g698
ag699
ag700
asg1274
(lp7291
g703
ag704
ag705
asg1276
(lp7292
g708
ag709
ag710
astRp7293
stRp7294
sS'CHEMBL1200733'
p7295
g1
(g2
g3
(dp7296
g3534
g1
(g2
g3
(dp7297
g3536
(lp7298
g668
ag669
asg3538
(lp7299
g3540
ag3541
asg3542
(lp7300
g29
ag30
astRp7301
sg3545
g1
(g2
g3
(dp7302
g3547
(lp7303
g693
ag694
ag695
asg3549
(lp7304
g698
ag699
ag700
asg3551
(lp7305
g703
ag704
ag705
asg3553
(lp7306
g708
ag709
ag710
astRp7307
sg1268
g1
(g2
g3
(dp7308
g1270
(lp7309
g693
ag694
ag695
asg1272
(lp7310
g698
ag699
ag700
asg1274
(lp7311
g703
ag704
ag705
asg1276
(lp7312
g708
ag709
ag710
astRp7313
sg3562
g1
(g2
g3
(dp7314
g3564
(lp7315
g668
ag669
asg3566
(lp7316
g29
ag30
astRp7317
sg3569
g1
(g2
g3
(dp7318
g3571
(lp7319
g668
ag669
asg3573
(lp7320
g29
ag30
astRp7321
sg3576
g1
(g2
g3
(dp7322
g3578
(lp7323
g668
ag669
asg3580
(lp7324
g29
ag30
astRp7325
sg3583
g1
(g2
g3
(dp7326
g3585
(lp7327
g668
ag669
asg3587
(lp7328
g29
ag30
astRp7329
stRp7330
sS'CHEMBL184412'
p7331
g1
(g2
g3
(dp7332
g1071
g1
(g2
g3
(dp7333
g1073
(lp7334
g21
ag22
asg1075
(lp7335
g29
ag30
asg1077
(lp7336
g221
ag222
astRp7337
sg832
g1
(g2
g3
(dp7338
g339
(lp7339
g39
ag40
asg341
(lp7340
g43
ag44
astRp7341
sS'P16389'
p7342
g1
(g2
g3
(dp7343
S'PF00520'
p7344
(lp7345
g21
ag22
asS'1.20.120.350'
p7346
(lp7347
g217
ag218
asS'1.20.5.110'
p7348
(lp7349
g652
ag653
asS'1.10.287.70'
p7350
(lp7351
g29
ag30
asS'PF02214'
p7352
(lp7353
S'Q5BVP4'
p7354
aS'G4LVM6'
p7355
asS'3.30.710.10'
p7356
(lp7357
g592
ag593
astRp7358
sg3983
g1
(g2
g3
(dp7359
g3985
(lp7360
g21
ag22
asg3987
(lp7361
g217
ag218
asg3989
(lp7362
g29
ag30
asg3991
(lp7363
g3993
ag3994
asg3995
(lp7364
g3997
asg3998
(lp7365
g4000
ag4001
asg4002
(lp7366
g4004
asg4005
(lp7367
g4007
ag4008
astRp7368
sg17
g1
(g2
g3
(dp7369
g19
(lp7370
g21
ag22
asg23
(lp7371
g25
ag26
asg27
(lp7372
g29
ag30
astRp7373
stRp7374
sS'CHEMBL447'
p7375
g1
(g2
g3
(dp7376
g1268
g1
(g2
g3
(dp7377
g1270
(lp7378
g693
ag694
ag695
asg1272
(lp7379
g698
ag699
ag700
asg1274
(lp7380
g703
ag704
ag705
asg1276
(lp7381
g708
ag709
ag710
astRp7382
stRp7383
sS'CHEMBL193240'
p7384
g1
(g2
g3
(dp7385
g4094
g1
(g2
g3
(dp7386
g4096
(lp7387
g2656
ag2657
asg4098
(lp7388
g2662
ag2663
astRp7389
stRp7390
sS'CHEMBL1164729'
p7391
g1
(g2
g3
(dp7392
g1490
g1
(g2
g3
(dp7393
g1492
(lp7394
g1494
ag1495
asg1496
(lp7395
g1498
ag1499
astRp7396
stRp7397
sS'CHEMBL23'
p7398
g1
(g2
g3
(dp7399
g1071
g1
(g2
g3
(dp7400
g1073
(lp7401
g21
ag22
asg1075
(lp7402
g29
ag30
asg1077
(lp7403
g221
ag222
astRp7404
stRp7405
sS'CHEMBL22'
p7406
g1
(g2
g3
(dp7407
S'P0ABQ4'
p7408
g1
(g2
g3
(dp7409
S'3.40.430.10'
p7410
(lp7411
g4328
ag4329
asS'PF00186'
p7412
(lp7413
g4332
astRp7414
stRp7415
sS'CHEMBL20'
p7416
g1
(g2
g3
(dp7417
g4486
g1
(g2
g3
(dp7418
g4488
(lp7419
g3085
ag3086
asg4490
(lp7420
g3089
ag3090
astRp7421
sS'P22748'
p7422
g1
(g2
g3
(dp7423
S'PF00194'
p7424
(lp7425
g3085
ag3086
asS'3.10.200.10'
p7426
(lp7427
g3089
ag3090
astRp7428
sg3081
g1
(g2
g3
(dp7429
g3083
(lp7430
g3085
ag3086
asg3087
(lp7431
g3089
ag3090
astRp7432
sS'O43570'
p7433
g1
(g2
g3
(dp7434
S'PF00194'
p7435
(lp7436
g3085
ag3086
asS'3.10.200.10'
p7437
(lp7438
g3089
ag3090
astRp7439
stRp7440
sS'CHEMBL27'
p7441
g1
(g2
g3
(dp7442
g330
g1
(g2
g3
(dp7443
g332
(lp7444
g39
ag40
asg334
(lp7445
g43
ag44
astRp7446
sg337
g1
(g2
g3
(dp7447
g339
(lp7448
g39
ag40
asg341
(lp7449
g43
ag44
astRp7450
stRp7451
sS'CHEMBL1046'
p7452
g1
(g2
g3
(dp7453
S'P00747'
p7454
g1
(g2
g3
(dp7455
S'2.40.10.10'
p7456
(lp7457
g3633
ag3634
ag3635
asS'2.40.20.10'
p7458
(lp7459
g3638
asS'PF00089'
p7460
(lp7461
g3641
ag3642
ag3643
asS'3.50.4.10'
p7462
(lp7463
S'Q5DBB4'
p7464
asS'PF00051'
p7465
(lp7466
g3646
astRp7467
sS'P00750'
p7468
g1
(g2
g3
(dp7469
S'PF00008'
p7470
(lp7471
g6587
ag6588
asS'2.10.25.10'
p7472
(lp7473
g152
ag153
asS'PF00089'
p7474
(lp7475
g3641
ag3642
ag3643
asS'2.40.20.10'
p7476
(lp7477
g3638
asS'2.40.10.10'
p7478
(lp7479
g3633
ag3634
ag3635
asS'2.10.70.10'
p7480
(lp7481
g3471
ag3472
asS'PF00051'
p7482
(lp7483
g3646
astRp7484
stRp7485
sS'CHEMBL24'
p7486
g1
(g2
g3
(dp7487
g337
g1
(g2
g3
(dp7488
g339
(lp7489
g39
ag40
asg341
(lp7490
g43
ag44
astRp7491
stRp7492
sS'CHEMBL61593'
p7493
g1
(g2
g3
(dp7494
g1519
g1
(g2
g3
(dp7495
g1521
(lp7496
g286
astRp7497
stRp7498
sS'CHEMBL2105689'
p7499
g1
(g2
g3
(dp7500
g227
g1
(g2
g3
(dp7501
g229
(lp7502
g231
ag232
asg233
(lp7503
g235
ag236
astRp7504
stRp7505
sS'CHEMBL360055'
p7506
g1
(g2
g3
(dp7507
g2007
g1
(g2
g3
(dp7508
g2009
(lp7509
g693
ag694
ag695
asg2011
(lp7510
g698
ag699
ag700
asg2013
(lp7511
g703
ag704
ag705
asg2015
(lp7512
g708
ag709
ag710
astRp7513
stRp7514
sS'CHEMBL577'
p7515
g1
(g2
g3
(dp7516
g755
g1
(g2
g3
(dp7517
g757
(lp7518
g759
ag760
astRp7519
stRp7520
sS'CHEMBL570'
p7521
g1
(g2
g3
(dp7522
g94
g1
(g2
g3
(dp7523
g96
(lp7524
g39
ag40
asg98
(lp7525
g43
ag44
astRp7526
stRp7527
sS'CHEMBL571'
p7528
g1
(g2
g3
(dp7529
g140
g1
(g2
g3
(dp7530
g142
(lp7531
g144
ag145
asg146
(lp7532
g148
ag149
asg150
(lp7533
g152
ag153
astRp7534
stRp7535
sS'CHEMBL308954'
p7536
g1
(g2
g3
(dp7537
g715
g1
(g2
g3
(dp7538
g717
(lp7539
g719
ag720
asg721
(lp7540
g723
ag724
asg725
(lp7541
g727
ag728
asg729
(lp7542
g731
ag732
asg733
(lp7543
g735
ag736
astRp7544
stRp7545
sS'CHEMBL473'
p7546
g1
(g2
g3
(dp7547
g3983
g1
(g2
g3
(dp7548
g3985
(lp7549
g21
ag22
asg3987
(lp7550
g217
ag218
asg3989
(lp7551
g29
ag30
asg3991
(lp7552
g3993
ag3994
asg3995
(lp7553
g3997
asg3998
(lp7554
g4000
ag4001
asg4002
(lp7555
g4004
asg4005
(lp7556
g4007
ag4008
astRp7557
stRp7558
sS'CHEMBL472'
p7559
g1
(g2
g3
(dp7560
g65
g1
(g2
g3
(dp7561
g67
(lp7562
g29
ag30
astRp7563
stRp7564
sS'CHEMBL471'
p7565
g1
(g2
g3
(dp7566
g330
g1
(g2
g3
(dp7567
g332
(lp7568
g39
ag40
asg334
(lp7569
g43
ag44
astRp7570
sg337
g1
(g2
g3
(dp7571
g339
(lp7572
g39
ag40
asg341
(lp7573
g43
ag44
astRp7574
sg3983
g1
(g2
g3
(dp7575
g3985
(lp7576
g21
ag22
asg3987
(lp7577
g217
ag218
asg3989
(lp7578
g29
ag30
asg3991
(lp7579
g3993
ag3994
asg3995
(lp7580
g3997
asg3998
(lp7581
g4000
ag4001
asg4002
(lp7582
g4004
asg4005
(lp7583
g4007
ag4008
astRp7584
stRp7585
sS'CHEMBL1520'
p7586
g1
(g2
g3
(dp7587
g2644
g1
(g2
g3
(dp7588
g2646
(lp7589
g2648
ag2649
asg2650
(lp7590
g2652
ag2653
asg2654
(lp7591
g2656
ag2657
asg2658
(lp7592
g25
ag26
asg2660
(lp7593
g2662
ag2663
astRp7594
stRp7595
sS'CHEMBL878'
p7596
g1
(g2
g3
(dp7597
g1519
g1
(g2
g3
(dp7598
g1521
(lp7599
g286
astRp7600
stRp7601
sS'CHEMBL923'
p7602
g1
(g2
g3
(dp7603
g1181
g1
(g2
g3
(dp7604
g1183
(lp7605
g1185
ag1186
asg1187
(lp7606
g1189
ag1190
astRp7607
stRp7608
sS'CHEMBL870'
p7609
g1
(g2
g3
(dp7610
g1181
g1
(g2
g3
(dp7611
g1183
(lp7612
g1185
ag1186
asg1187
(lp7613
g1189
ag1190
astRp7614
stRp7615
sS'CHEMBL877'
p7616
g1
(g2
g3
(dp7617
g7454
g1
(g2
g3
(dp7618
g7456
(lp7619
g3633
ag3634
ag3635
asg7458
(lp7620
g3638
asg7460
(lp7621
g3641
ag3642
ag3643
asg7462
(lp7622
g7464
asg7465
(lp7623
g3646
astRp7624
stRp7625
sS'CHEMBL325041'
p7626
g1
(g2
g3
(dp7627
S'P25787'
p7628
g1
(g2
g3
(dp7629
S'3.60.20.10'
p7630
(lp7631
g2763
ag2764
asS'PF10584'
p7632
(lp7633
S'B9VRG0'
p7634
aS'G4LZ69'
p7635
asS'PF00227'
p7636
(lp7637
S'C7TY90'
p7638
aS'G4LUJ6'
p7639
astRp7640
stRp7641
sS'CHEMBL1237021'
p7642
g1
(g2
g3
(dp7643
g87
g1
(g2
g3
(dp7644
g89
(lp7645
g39
ag40
asg91
(lp7646
g43
ag44
astRp7647
sg1347
g1
(g2
g3
(dp7648
g96
(lp7649
g39
ag40
asg98
(lp7650
g43
ag44
astRp7651
stRp7652
sS'CHEMBL1628502'
p7653
g1
(g2
g3
(dp7654
g209
g1
(g2
g3
(dp7655
g211
(lp7656
g21
ag22
asg213
(lp7657
g29
ag30
asg215
(lp7658
g217
ag218
asg219
(lp7659
g221
ag222
astRp7660
stRp7661
sS'CHEMBL856'
p7662
g1
(g2
g3
(dp7663
g1268
g1
(g2
g3
(dp7664
g1270
(lp7665
g693
ag694
ag695
asg1272
(lp7666
g698
ag699
ag700
asg1274
(lp7667
g703
ag704
ag705
asg1276
(lp7668
g708
ag709
ag710
astRp7669
sg17
g1
(g2
g3
(dp7670
g19
(lp7671
g21
ag22
asg23
(lp7672
g25
ag26
asg27
(lp7673
g29
ag30
astRp7674
stRp7675
sS'CHEMBL14376'
p7676
g1
(g2
g3
(dp7677
g87
g1
(g2
g3
(dp7678
g89
(lp7679
g39
ag40
asg91
(lp7680
g43
ag44
astRp7681
sg94
g1
(g2
g3
(dp7682
g96
(lp7683
g39
ag40
asg98
(lp7684
g43
ag44
astRp7685
stRp7686
sS'CHEMBL583'
p7687
g1
(g2
g3
(dp7688
g4506
g1
(g2
g3
(dp7689
g4508
(lp7690
g492
asg4510
(lp7691
g495
asg4512
(lp7692
g498
astRp7693
sg4515
g1
(g2
g3
(dp7694
g4517
(lp7695
g492
asg4519
(lp7696
g495
asg4521
(lp7697
g498
astRp7698
stRp7699
sS'CHEMBL398435'
p7700
g1
(g2
g3
(dp7701
g5303
g1
(g2
g3
(dp7702
g5305
(lp7703
g39
ag40
asg5307
(lp7704
g43
ag44
astRp7705
stRp7706
sS'CHEMBL1201222'
p7707
g1
(g2
g3
(dp7708
g396
g1
(g2
g3
(dp7709
g398
(lp7710
g11
ag12
astRp7711
sg401
g1
(g2
g3
(dp7712
g403
(lp7713
g11
ag12
astRp7714
sg406
g1
(g2
g3
(dp7715
g408
(lp7716
g410
ag411
asg412
(lp7717
g414
ag415
astRp7718
stRp7719
sS'CHEMBL1201227'
p7720
g1
(g2
g3
(dp7721
g559
g1
(g2
g3
(dp7722
g561
(lp7723
g39
ag40
asg563
(lp7724
g43
ag44
astRp7725
stRp7726
sS'CHEMBL1171837'
p7727
g1
(g2
g3
(dp7728
S'P11274'
p7729
g1
(g2
g3
(dp7730
S'PF00168'
p7731
(lp7732
S'G4M2A8'
p7733
aS'Q5BVG7'
p7734
asS'2.60.40.150'
p7735
(lp7736
S'C1L4J4'
p7737
aS'G4LWG8'
p7738
asS'1.20.900.10'
p7739
(lp7740
S'Q5BWE4'
p7741
aS'G4LZ97'
p7742
asS'4.10.280.30'
p7743
(lp7744
S'Q5C6B6'
p7745
asS'PF00621'
p7746
(lp7747
S'G4LUE0'
p7748
aS'Q5BSP8'
p7749
asS'PF00620'
p7750
(lp7751
S'Q5BZL0'
p7752
aS'C1LZZ3'
p7753
asS'2.30.29.30'
p7754
(lp7755
g3243
ag3244
asS'PF00169'
p7756
(lp7757
g3232
ag3233
asS'1.10.555.10'
p7758
(lp7759
S'C4QRU8'
p7760
aS'C1LIT2'
p7761
astRp7762
sS'P00519'
p7763
g1
(g2
g3
(dp7764
g1416
(lp7765
g1378
ag1379
asg1418
(lp7766
g1420
asg1421
(lp7767
g1388
ag1389
asg1423
(lp7768
g439
ag440
ag441
asg1425
(lp7769
g509
ag510
asg1427
(lp7770
g1382
ag1383
asg1429
(lp7771
g1431
ag1432
ag1433
asg1434
(lp7772
g1392
ag1393
asg1436
(lp7773
g444
ag445
ag446
astRp7774
stRp7775
sS'CHEMBL1201229'
p7776
g1
(g2
g3
(dp7777
g5380
g1
(g2
g3
(dp7778
g2453
(lp7779
g2455
ag2456
ag2457
asg2458
(lp7780
g2460
ag2461
ag2462
astRp7781
stRp7782
sS'CHEMBL1201187'
p7783
g1
(g2
g3
(dp7784
S'P51681'
p7785
g1
(g2
g3
(dp7786
S'1.20.1070.10'
p7787
(lp7788
g39
ag40
asS'PF00001'
p7789
(lp7790
g43
ag44
astRp7791
stRp7792
sS'CHEMBL1279'
p7793
g1
(g2
g3
(dp7794
g2256
g1
(g2
g3
(dp7795
g2258
(lp7796
g39
ag40
asg2260
(lp7797
g43
ag44
astRp7798
sg2263
g1
(g2
g3
(dp7799
g2265
(lp7800
g39
ag40
asg2267
(lp7801
g43
ag44
astRp7802
stRp7803
sS'CHEMBL1200951'
p7804
g1
(g2
g3
(dp7805
g94
g1
(g2
g3
(dp7806
g96
(lp7807
g39
ag40
asg98
(lp7808
g43
ag44
astRp7809
stRp7810
sS'CHEMBL1574'
p7811
g1
(g2
g3
(dp7812
g396
g1
(g2
g3
(dp7813
g398
(lp7814
g11
ag12
astRp7815
stRp7816
sS'CHEMBL1200959'
p7817
g1
(g2
g3
(dp7818
g35
g1
(g2
g3
(dp7819
g37
(lp7820
g39
ag40
asg41
(lp7821
g43
ag44
astRp7822
stRp7823
sS'CHEMBL259209'
p7824
g1
(g2
g3
(dp7825
g7
g1
(g2
g3
(dp7826
g9
(lp7827
g11
ag12
astRp7828
sg396
g1
(g2
g3
(dp7829
g398
(lp7830
g11
ag12
astRp7831
stRp7832
sS'CHEMBL1535'
p7833
g1
(g2
g3
(dp7834
S'Q9NR96'
p7835
g1
(g2
g3
(dp7836
S'PF13504'
p7837
(lp7838
S'G4LZA1'
p7839
asS'3.80.10.10'
p7840
(lp7841
S'C4QRK3'
p7842
aS'C1L577'
p7843
asS'3.40.50.10140'
p7844
(lp7845
S'G4LXN9'
p7846
aS'Q5C6A1'
p7847
asS'PF00560'
p7848
(lp7849
S'Q5C195'
p7850
aS'G4V8E9'
p7851
asS'PF13855'
p7852
(lp7853
S'G4VG51'
p7854
aS'Q3KZ54'
p7855
astRp7856
sS'Q9NYK1'
p7857
g1
(g2
g3
(dp7858
S'3.80.10.10'
p7859
(lp7860
g7842
ag7843
asS'3.40.50.10140'
p7861
(lp7862
g7846
ag7847
asS'PF00560'
p7863
(lp7864
g7850
ag7851
asS'PF13855'
p7865
(lp7866
g7854
ag7855
astRp7867
stRp7868
sS'CHEMBL1532'
p7869
g1
(g2
g3
(dp7870
g1519
g1
(g2
g3
(dp7871
g1521
(lp7872
g286
astRp7873
stRp7874
sS'CHEMBL1664'
p7875
g1
(g2
g3
(dp7876
g886
g1
(g2
g3
(dp7877
g888
(lp7878
g890
ag891
asg892
(lp7879
g894
ag895
astRp7880
stRp7881
sS'CHEMBL1187833'
p7882
g1
(g2
g3
(dp7883
g566
g1
(g2
g3
(dp7884
g568
(lp7885
g39
ag40
asg570
(lp7886
g43
ag44
astRp7887
stRp7888
sS'CHEMBL806'
p7889
g1
(g2
g3
(dp7890
g6126
g1
(g2
g3
(dp7891
g6128
(lp7892
g122
ag123
asg6130
(lp7893
g126
ag127
asg6132
(lp7894
g130
ag131
asg6134
(lp7895
g134
ag135
asg6136
(lp7896
g2552
ag2553
astRp7897
stRp7898
sS'CHEMBL422'
p7899
g1
(g2
g3
(dp7900
g907
g1
(g2
g3
(dp7901
g909
(lp7902
g39
ag40
asg911
(lp7903
g43
ag44
astRp7904
sg87
g1
(g2
g3
(dp7905
g89
(lp7906
g39
ag40
asg91
(lp7907
g43
ag44
astRp7908
sg1347
g1
(g2
g3
(dp7909
g96
(lp7910
g39
ag40
asg98
(lp7911
g43
ag44
astRp7912
stRp7913
sS'CHEMBL642'
p7914
g1
(g2
g3
(dp7915
g337
g1
(g2
g3
(dp7916
g339
(lp7917
g39
ag40
asg341
(lp7918
g43
ag44
astRp7919
stRp7920
sS'CHEMBL119'
p7921
g1
(g2
g3
(dp7922
S'P16184'
p7923
g1
(g2
g3
(dp7924
S'3.40.430.10'
p7925
(lp7926
g4328
ag4329
asS'PF00186'
p7927
(lp7928
g4332
astRp7929
stRp7930
sS'CHEMBL423'
p7931
g1
(g2
g3
(dp7932
g337
g1
(g2
g3
(dp7933
g339
(lp7934
g39
ag40
asg341
(lp7935
g43
ag44
astRp7936
stRp7937
sS'CHEMBL1201358'
p7938
g1
(g2
g3
(dp7939
g396
g1
(g2
g3
(dp7940
g398
(lp7941
g11
ag12
astRp7942
sg406
g1
(g2
g3
(dp7943
g408
(lp7944
g410
ag411
asg412
(lp7945
g414
ag415
astRp7946
stRp7947
sS'CHEMBL636'
p7948
g1
(g2
g3
(dp7949
g2451
g1
(g2
g3
(dp7950
g2453
(lp7951
g2455
ag2456
ag2457
asg2458
(lp7952
g2460
ag2461
ag2462
astRp7953
stRp7954
sS'CHEMBL1201354'
p7955
g1
(g2
g3
(dp7956
g559
g1
(g2
g3
(dp7957
g561
(lp7958
g39
ag40
asg563
(lp7959
g43
ag44
astRp7960
sg566
g1
(g2
g3
(dp7961
g568
(lp7962
g39
ag40
asg570
(lp7963
g43
ag44
astRp7964
stRp7965
sS'CHEMBL2103873'
p7966
g1
(g2
g3
(dp7967
g6795
g1
(g2
g3
(dp7968
g6797
(lp7969
g39
ag40
asg6799
(lp7970
g43
ag44
astRp7971
stRp7972
sS'CHEMBL1201353'
p7973
g1
(g2
g3
(dp7974
g35
g1
(g2
g3
(dp7975
g37
(lp7976
g39
ag40
asg41
(lp7977
g43
ag44
astRp7978
stRp7979
sS'CHEMBL1221'
p7980
g1
(g2
g3
(dp7981
g227
g1
(g2
g3
(dp7982
g229
(lp7983
g231
ag232
asg233
(lp7984
g235
ag236
astRp7985
stRp7986
sS'CHEMBL1224'
p7987
g1
(g2
g3
(dp7988
g35
g1
(g2
g3
(dp7989
g37
(lp7990
g39
ag40
asg41
(lp7991
g43
ag44
astRp7992
stRp7993
sS'CHEMBL1228'
p7994
g1
(g2
g3
(dp7995
g140
g1
(g2
g3
(dp7996
g142
(lp7997
g144
ag145
asg146
(lp7998
g148
ag149
asg150
(lp7999
g152
ag153
astRp8000
stRp8001
sS'CHEMBL1342'
p8002
g1
(g2
g3
(dp8003
g6965
g1
(g2
g3
(dp8004
g6967
(lp8005
g6969
asg6970
(lp8006
g1065
ag1066
asg6972
(lp8007
g3471
ag3472
asg6974
(lp8008
g5880
asg6976
(lp8009
g1048
ag1049
astRp8010
stRp8011
sS'CHEMBL1341'
p8012
g1
(g2
g3
(dp8013
g3545
g1
(g2
g3
(dp8014
g3547
(lp8015
g693
ag694
ag695
asg3549
(lp8016
g698
ag699
ag700
asg3551
(lp8017
g703
ag704
ag705
asg3553
(lp8018
g708
ag709
ag710
astRp8019
sg1268
g1
(g2
g3
(dp8020
g1270
(lp8021
g693
ag694
ag695
asg1272
(lp8022
g698
ag699
ag700
asg1274
(lp8023
g703
ag704
ag705
asg1276
(lp8024
g708
ag709
ag710
astRp8025
stRp8026
sS'CHEMBL2103875'
p8027
g1
(g2
g3
(dp8028
S'P36507'
p8029
g1
(g2
g3
(dp8030
S'1.10.510.10'
p8031
(lp8032
g439
ag440
ag441
asS'3.30.200.20'
p8033
(lp8034
g444
ag445
ag446
asS'PF00069'
p8035
(lp8036
g449
ag450
ag451
astRp8037
sS'Q02750'
p8038
g1
(g2
g3
(dp8039
S'1.10.510.10'
p8040
(lp8041
g439
ag440
ag441
asS'3.30.200.20'
p8042
(lp8043
g444
ag445
ag446
asS'PF00069'
p8044
(lp8045
g449
ag450
ag451
astRp8046
stRp8047
sS'CHEMBL1263'
p8048
g1
(g2
g3
(dp8049
g330
g1
(g2
g3
(dp8050
g332
(lp8051
g39
ag40
asg334
(lp8052
g43
ag44
astRp8053
stRp8054
sS'CHEMBL1159'
p8055
g1
(g2
g3
(dp8056
S'O60706'
p8057
g1
(g2
g3
(dp8058
S'1.20.1560.10'
p8059
(lp8060
g2042
ag2043
asS'PF00005'
p8061
(lp8062
g2046
ag2047
asS'3.40.50.300'
p8063
(lp8064
g2050
ag2051
asS'PF00664'
p8065
(lp8066
g2054
ag2055
astRp8067
stRp8068
sS'CHEMBL1017'
p8069
g1
(g2
g3
(dp8070
g49
g1
(g2
g3
(dp8071
g51
(lp8072
g39
ag40
asg53
(lp8073
g43
ag44
astRp8074
stRp8075
sS'CHEMBL354541'
p8076
g1
(g2
g3
(dp8077
S'P07237'
p8078
g1
(g2
g3
(dp8079
S'PF00085'
p8080
(lp8081
S'B3GUT5'
p8082
aS'C4QPB5'
p8083
asS'3.40.30.10'
p8084
(lp8085
S'B3GUT5'
p8086
aS'P30114'
p8087
aS'C4QPB5'
p8088
asS'PF13848'
p8089
(lp8090
S'B3W657'
p8091
aS'G4VMZ6'
p8092
astRp8093
stRp8094
sS'CHEMBL1014'
p8095
g1
(g2
g3
(dp8096
g49
g1
(g2
g3
(dp8097
g51
(lp8098
g39
ag40
asg53
(lp8099
g43
ag44
astRp8100
stRp8101
sS'CHEMBL716'
p8102
g1
(g2
g3
(dp8103
g907
g1
(g2
g3
(dp8104
g909
(lp8105
g39
ag40
asg911
(lp8106
g43
ag44
astRp8107
sg87
g1
(g2
g3
(dp8108
g89
(lp8109
g39
ag40
asg91
(lp8110
g43
ag44
astRp8111
sg1347
g1
(g2
g3
(dp8112
g96
(lp8113
g39
ag40
asg98
(lp8114
g43
ag44
astRp8115
stRp8116
sS'CHEMBL1229211'
p8117
g1
(g2
g3
(dp8118
g3926
g1
(g2
g3
(dp8119
g3928
(lp8120
g719
ag720
asg3930
(lp8121
g3932
ag3933
asg3934
(lp8122
g3936
ag3937
astRp8123
stRp8124
sS'CHEMBL714'
p8125
g1
(g2
g3
(dp8126
g330
g1
(g2
g3
(dp8127
g332
(lp8128
g39
ag40
asg334
(lp8129
g43
ag44
astRp8130
stRp8131
sS'CHEMBL715'
p8132
g1
(g2
g3
(dp8133
g907
g1
(g2
g3
(dp8134
g909
(lp8135
g39
ag40
asg911
(lp8136
g43
ag44
astRp8137
sg87
g1
(g2
g3
(dp8138
g89
(lp8139
g39
ag40
asg91
(lp8140
g43
ag44
astRp8141
sg1347
g1
(g2
g3
(dp8142
g96
(lp8143
g39
ag40
asg98
(lp8144
g43
ag44
astRp8145
stRp8146
sS'CHEMBL712'
p8147
g1
(g2
g3
(dp8148
S'P38435'
p8149
g1
(g2
g3
(dp8150
S'2.60.120.10'
p8151
(lp8152
g4000
ag4001
astRp8153
stRp8154
sS'CHEMBL1213252'
p8155
g1
(g2
g3
(dp8156
g1268
g1
(g2
g3
(dp8157
g1270
(lp8158
g693
ag694
ag695
asg1272
(lp8159
g698
ag699
ag700
asg1274
(lp8160
g703
ag704
ag705
asg1276
(lp8161
g708
ag709
ag710
astRp8162
stRp8163
sS'CHEMBL855'
p8164
g1
(g2
g3
(dp8165
g35
g1
(g2
g3
(dp8166
g37
(lp8167
g39
ag40
asg41
(lp8168
g43
ag44
astRp8169
stRp8170
sS'CHEMBL657'
p8171
g1
(g2
g3
(dp8172
g35
g1
(g2
g3
(dp8173
g37
(lp8174
g39
ag40
asg41
(lp8175
g43
ag44
astRp8176
stRp8177
sS'CHEMBL655'
p8178
g1
(g2
g3
(dp8179
g1268
g1
(g2
g3
(dp8180
g1270
(lp8181
g693
ag694
ag695
asg1272
(lp8182
g698
ag699
ag700
asg1274
(lp8183
g703
ag704
ag705
asg1276
(lp8184
g708
ag709
ag710
astRp8185
stRp8186
sS'CHEMBL654'
p8187
g1
(g2
g3
(dp8188
g302
g1
(g2
g3
(dp8189
g304
(lp8190
g39
ag40
asg306
(lp8191
g43
ag44
astRp8192
sg907
g1
(g2
g3
(dp8193
g909
(lp8194
g39
ag40
asg911
(lp8195
g43
ag44
astRp8196
sg87
g1
(g2
g3
(dp8197
g89
(lp8198
g39
ag40
asg91
(lp8199
g43
ag44
astRp8200
stRp8201
sS'CHEMBL653'
p8202
g1
(g2
g3
(dp8203
g2107
g1
(g2
g3
(dp8204
g2109
(lp8205
g39
ag40
asg2111
(lp8206
g43
ag44
astRp8207
stRp8208
sS'CHEMBL652'
p8209
g1
(g2
g3
(dp8210
S'Q14524'
p8211
g1
(g2
g3
(dp8212
S'PF00520'
p8213
(lp8214
g21
ag22
asS'1.20.120.350'
p8215
(lp8216
g217
ag218
asS'1.10.287.70'
p8217
(lp8218
g29
ag30
astRp8219
stRp8220
sS'CHEMBL651'
p8221
g1
(g2
g3
(dp8222
g312
g1
(g2
g3
(dp8223
g314
(lp8224
g39
ag40
asg316
(lp8225
g43
ag44
astRp8226
stRp8227
sS'CHEMBL89598'
p8228
g1
(g2
g3
(dp8229
S'P80404'
p8230
g1
(g2
g3
(dp8231
S'3.90.1150.10'
p8232
(lp8233
g5094
ag5095
asS'3.40.640.10'
p8234
(lp8235
g5098
ag5099
asS'PF00202'
p8236
(lp8237
S'Q5DDC4'
p8238
aS'A7UAX6'
p8239
astRp8240
stRp8241
sS'CHEMBL658'
p8242
g1
(g2
g3
(dp8243
g312
g1
(g2
g3
(dp8244
g314
(lp8245
g39
ag40
asg316
(lp8246
g43
ag44
astRp8247
stRp8248
sS'CHEMBL1214124'
p8249
g1
(g2
g3
(dp8250
S'P48058'
p8251
g1
(g2
g3
(dp8252
S'PF01094'
p8253
(lp8254
g1048
ag1049
asS'3.40.190.10'
p8255
(lp8256
g1052
ag1053
asS'1.10.287.70'
p8257
(lp8258
g29
ag30
asS'PF00060'
p8259
(lp8260
g1056
ag1057
asS'3.40.50.2300'
p8261
(lp8262
g1065
ag1066
astRp8263
stRp8264
sS'CHEMBL24778'
p8265
g1
(g2
g3
(dp8266
g362
g1
(g2
g3
(dp8267
g364
(lp8268
g39
ag40
asg366
(lp8269
g43
ag44
astRp8270
stRp8271
sS'CHEMBL1085'
p8272
g1
(g2
g3
(dp8273
g94
g1
(g2
g3
(dp8274
g96
(lp8275
g39
ag40
asg98
(lp8276
g43
ag44
astRp8277
stRp8278
sS'CHEMBL1086'
p8279
g1
(g2
g3
(dp8280
g8211
g1
(g2
g3
(dp8281
g8213
(lp8282
g21
ag22
asg8215
(lp8283
g217
ag218
asg8217
(lp8284
g29
ag30
astRp8285
sS'Q9Y5Y9'
p8286
g1
(g2
g3
(dp8287
S'PF00520'
p8288
(lp8289
g21
ag22
asS'1.20.120.350'
p8290
(lp8291
g217
ag218
asS'1.10.287.70'
p8292
(lp8293
g29
ag30
astRp8294
stRp8295
sS'CHEMBL64'
p8296
g1
(g2
g3
(dp8297
g7263
g1
(g2
g3
(dp8298
g7265
(lp8299
g5027
ag5028
asg7267
(lp8300
g195
ag196
astRp8301
stRp8302
sS'CHEMBL1023'
p8303
g1
(g2
g3
(dp8304
S'P28702'
p8305
g1
(g2
g3
(dp8306
S'PF00104'
p8307
(lp8308
g122
ag123
asS'PF00105'
p8309
(lp8310
g126
ag127
asS'3.30.50.10'
p8311
(lp8312
g130
ag131
asS'1.10.565.10'
p8313
(lp8314
g134
ag135
astRp8315
stRp8316
sS'CHEMBL953'
p8317
g1
(g2
g3
(dp8318
g3869
g1
(g2
g3
(dp8319
g3871
(lp8320
g3873
ag3874
asg3875
(lp8321
g3877
ag3878
astRp8322
stRp8323
sS'CHEMBL1123'
p8324
g1
(g2
g3
(dp8325
g559
g1
(g2
g3
(dp8326
g561
(lp8327
g39
ag40
asg563
(lp8328
g43
ag44
astRp8329
sg566
g1
(g2
g3
(dp8330
g568
(lp8331
g39
ag40
asg570
(lp8332
g43
ag44
astRp8333
stRp8334
sS'CHEMBL1089'
p8335
g1
(g2
g3
(dp8336
g2740
g1
(g2
g3
(dp8337
g2742
(lp8338
g187
ag188
asg2744
(lp8339
g191
ag192
asg2746
(lp8340
g195
ag196
asg2748
(lp8341
g199
ag200
asg2750
(lp8342
g203
ag204
astRp8343
stRp8344
sS'CHEMBL385517'
p8345
g1
(g2
g3
(dp8346
g2777
g1
(g2
g3
(dp8347
g2779
(lp8348
g2781
asg2782
(lp8349
g2784
ag2785
asg2786
(lp8350
g2788
ag2789
asg2790
(lp8351
g2460
ag2461
ag2462
astRp8352
stRp8353
sS'CHEMBL957'
p8354
g1
(g2
g3
(dp8355
g6795
g1
(g2
g3
(dp8356
g6797
(lp8357
g39
ag40
asg6799
(lp8358
g43
ag44
astRp8359
stRp8360
sS'CHEMBL821'
p8361
g1
(g2
g3
(dp8362
g7342
g1
(g2
g3
(dp8363
g7344
(lp8364
g21
ag22
asg7346
(lp8365
g217
ag218
asg7348
(lp8366
g652
ag653
asg7350
(lp8367
g29
ag30
asg7352
(lp8368
g7354
ag7355
asg7356
(lp8369
g592
ag593
astRp8370
stRp8371
sS'CHEMBL822'
p8372
g1
(g2
g3
(dp8373
g6885
g1
(g2
g3
(dp8374
g6887
(lp8375
g199
ag200
astRp8376
stRp8377
sS'CHEMBL76370'
p8378
g1
(g2
g3
(dp8379
g4377
g1
(g2
g3
(dp8380
g4379
(lp8381
g39
ag40
asg4381
(lp8382
g43
ag44
astRp8383
stRp8384
sS'CHEMBL826'
p8385
g1
(g2
g3
(dp8386
S'Q5EP76'
p8387
g1
(g2
g3
(dp8388
S'PF01396'
p8389
(lp8390
S'G4VM01'
p8391
asS'3.30.65.10'
p8392
(lp8393
S'G4VM01'
p8394
asS'3.40.50.140'
p8395
(lp8396
S'Q5DFL5'
p8397
aS'G4VFA7'
p8398
asS'1.10.460.10'
p8399
(lp8400
S'G4VFA7'
p8401
asS'PF01131'
p8402
(lp8403
S'Q5BXA8'
p8404
aS'G4VFA7'
p8405
asS'2.70.20.10'
p8406
(lp8407
S'G4VFA7'
p8408
asS'PF01751'
p8409
(lp8410
g485
ag486
astRp8411
sS'P48371'
p8412
g1
(g2
g3
(dp8413
S'1.10.268.10'
p8414
(lp8415
g492
asS'PF00521'
p8416
(lp8417
g495
asS'3.90.199.10'
p8418
(lp8419
g498
astRp8420
stRp8421
sS'CHEMBL827'
p8422
g1
(g2
g3
(dp8423
g396
g1
(g2
g3
(dp8424
g398
(lp8425
g11
ag12
astRp8426
sg401
g1
(g2
g3
(dp8427
g403
(lp8428
g11
ag12
astRp8429
stRp8430
sS'CHEMBL802'
p8431
g1
(g2
g3
(dp8432
g8057
g1
(g2
g3
(dp8433
g8059
(lp8434
g2042
ag2043
asg8061
(lp8435
g2046
ag2047
asg8063
(lp8436
g2050
ag2051
asg8065
(lp8437
g2054
ag2055
astRp8438
stRp8439
sS'CHEMBL829'
p8440
g1
(g2
g3
(dp8441
g35
g1
(g2
g3
(dp8442
g37
(lp8443
g39
ag40
asg41
(lp8444
g43
ag44
astRp8445
stRp8446
sS'CHEMBL1201170'
p8447
g1
(g2
g3
(dp8448
g420
g1
(g2
g3
(dp8449
g422
(lp8450
g424
ag425
asg426
(lp8451
g428
ag429
asg430
(lp8452
g432
ag433
astRp8453
sg435
g1
(g2
g3
(dp8454
g437
(lp8455
g439
ag440
ag441
asg442
(lp8456
g444
ag445
ag446
asg447
(lp8457
g449
ag450
ag451
astRp8458
stRp8459
sS'CHEMBL430'
p8460
g1
(g2
g3
(dp8461
g4506
g1
(g2
g3
(dp8462
g4508
(lp8463
g492
asg4510
(lp8464
g495
asg4512
(lp8465
g498
astRp8466
sg4515
g1
(g2
g3
(dp8467
g4517
(lp8468
g492
asg4519
(lp8469
g495
asg4521
(lp8470
g498
astRp8471
stRp8472
sS'CHEMBL435'
p8473
g1
(g2
g3
(dp8474
g1519
g1
(g2
g3
(dp8475
g1521
(lp8476
g286
astRp8477
stRp8478
sS'CHEMBL434'
p8479
g1
(g2
g3
(dp8480
g832
g1
(g2
g3
(dp8481
g339
(lp8482
g39
ag40
asg341
(lp8483
g43
ag44
astRp8484
stRp8485
sS'CHEMBL1655'
p8486
g1
(g2
g3
(dp8487
g3845
g1
(g2
g3
(dp8488
g3135
(lp8489
g122
ag123
asg3137
(lp8490
g126
ag127
asg3139
(lp8491
g130
ag131
asg3141
(lp8492
g134
ag135
astRp8493
stRp8494
sS'CHEMBL1657'
p8495
g1
(g2
g3
(dp8496
S'P13631'
p8497
g1
(g2
g3
(dp8498
g6636
(lp8499
g122
ag123
asg6638
(lp8500
g126
ag127
asg6640
(lp8501
g130
ag131
asg6642
(lp8502
g134
ag135
astRp8503
stRp8504
sS'CHEMBL313833'
p8505
g1
(g2
g3
(dp8506
g2740
g1
(g2
g3
(dp8507
g2742
(lp8508
g187
ag188
asg2744
(lp8509
g191
ag192
asg2746
(lp8510
g195
ag196
asg2748
(lp8511
g199
ag200
asg2750
(lp8512
g203
ag204
astRp8513
stRp8514
sS'CHEMBL1652'
p8515
g1
(g2
g3
(dp8516
g5380
g1
(g2
g3
(dp8517
g2453
(lp8518
g2455
ag2456
ag2457
asg2458
(lp8519
g2460
ag2461
ag2462
astRp8520
stRp8521
sS'CHEMBL517712'
p8522
g1
(g2
g3
(dp8523
g765
g1
(g2
g3
(dp8524
g767
(lp8525
g39
ag40
asg769
(lp8526
g43
ag44
astRp8527
sg559
g1
(g2
g3
(dp8528
g561
(lp8529
g39
ag40
asg563
(lp8530
g43
ag44
astRp8531
sg566
g1
(g2
g3
(dp8532
g568
(lp8533
g39
ag40
asg570
(lp8534
g43
ag44
astRp8535
stRp8536
sS'CHEMBL1201747'
p8537
g1
(g2
g3
(dp8538
g35
g1
(g2
g3
(dp8539
g37
(lp8540
g39
ag40
asg41
(lp8541
g43
ag44
astRp8542
stRp8543
sS'CHEMBL1201338'
p8544
g1
(g2
g3
(dp8545
g566
g1
(g2
g3
(dp8546
g568
(lp8547
g39
ag40
asg570
(lp8548
g43
ag44
astRp8549
stRp8550
sS'CHEMBL1346'
p8551
g1
(g2
g3
(dp8552
g765
g1
(g2
g3
(dp8553
g767
(lp8554
g39
ag40
asg769
(lp8555
g43
ag44
astRp8556
sg566
g1
(g2
g3
(dp8557
g568
(lp8558
g39
ag40
asg570
(lp8559
g43
ag44
astRp8560
stRp8561
sS'CHEMBL488'
p8562
g1
(g2
g3
(dp8563
g4276
g1
(g2
g3
(dp8564
g4278
(lp8565
g231
ag232
asg4280
(lp8566
g235
ag236
astRp8567
sg3515
g1
(g2
g3
(dp8568
g3517
(lp8569
g231
ag232
asg3519
(lp8570
g235
ag236
astRp8571
stRp8572
sS'CHEMBL1037'
p8573
g1
(g2
g3
(dp8574
g396
g1
(g2
g3
(dp8575
g398
(lp8576
g11
ag12
astRp8577
stRp8578
sS'CHEMBL660'
p8579
g1
(g2
g3
(dp8580
g1044
g1
(g2
g3
(dp8581
g1046
(lp8582
g1048
ag1049
asg1050
(lp8583
g1052
ag1053
asg1054
(lp8584
g1056
ag1057
asg1058
(lp8585
g1060
asg1061
(lp8586
g29
ag30
asg1063
(lp8587
g1065
ag1066
astRp8588
stRp8589
sS'CHEMBL480'
p8590
g1
(g2
g3
(dp8591
g2124
g1
(g2
g3
(dp8592
g2126
(lp8593
g2128
ag2129
asg2130
(lp8594
g2132
ag2133
asg2134
(lp8595
g2136
ag2137
asg2138
(lp8596
g2140
ag2141
asg2142
(lp8597
g2144
ag2145
asg2146
(lp8598
g2148
ag2149
asg2150
(lp8599
g2152
ag2153
asg2154
(lp8600
g2156
ag2157
astRp8601
stRp8602
sS'CHEMBL1456'
p8603
g1
(g2
g3
(dp8604
g268
g1
(g2
g3
(dp8605
g270
(lp8606
g272
ag273
asg274
(lp8607
g276
ag277
astRp8608
stRp8609
sS'CHEMBL117785'
p8610
g1
(g2
g3
(dp8611
g406
g1
(g2
g3
(dp8612
g408
(lp8613
g410
ag411
asg412
(lp8614
g414
ag415
astRp8615
stRp8616
sS'CHEMBL1454'
p8617
g1
(g2
g3
(dp8618
S'O96760'
p8619
g1
(g2
g3
(dp8620
S'1.20.58.390'
p8621
(lp8622
g693
ag694
ag695
asS'PF02931'
p8623
(lp8624
g698
ag699
ag700
asS'2.70.170.10'
p8625
(lp8626
g703
ag704
ag705
asS'PF02932'
p8627
(lp8628
g708
ag709
ag710
astRp8629
stRp8630
sS'CHEMBL684'
p8631
g1
(g2
g3
(dp8632
g3855
g1
(g2
g3
(dp8633
g3857
(lp8634
g693
ag694
ag695
asg3859
(lp8635
g698
ag699
ag700
asg3861
(lp8636
g703
ag704
ag705
asg3863
(lp8637
g708
ag709
ag710
astRp8638
stRp8639
sS'CHEMBL509'
p8640
g1
(g2
g3
(dp8641
g1282
g1
(g2
g3
(dp8642
g1284
(lp8643
g1286
ag1287
asg1288
(lp8644
g1290
ag1291
asg1292
(lp8645
g1294
ag1295
asg1296
(lp8646
g1298
ag1299
astRp8647
sg140
g1
(g2
g3
(dp8648
g142
(lp8649
g144
ag145
asg146
(lp8650
g148
ag149
asg150
(lp8651
g152
ag153
astRp8652
stRp8653
sS'CHEMBL3039598'
p8654
g1
(g2
g3
(dp8655
g755
g1
(g2
g3
(dp8656
g757
(lp8657
g759
ag760
astRp8658
stRp8659
sS'CHEMBL524004'
p8660
g1
(g2
g3
(dp8661
g559
g1
(g2
g3
(dp8662
g561
(lp8663
g39
ag40
asg563
(lp8664
g43
ag44
astRp8665
sg566
g1
(g2
g3
(dp8666
g568
(lp8667
g39
ag40
asg570
(lp8668
g43
ag44
astRp8669
stRp8670
sS'CHEMBL502'
p8671
g1
(g2
g3
(dp8672
g5380
g1
(g2
g3
(dp8673
g2453
(lp8674
g2455
ag2456
ag2457
asg2458
(lp8675
g2460
ag2461
ag2462
astRp8676
stRp8677
sS'CHEMBL500'
p8678
g1
(g2
g3
(dp8679
g330
g1
(g2
g3
(dp8680
g332
(lp8681
g39
ag40
asg334
(lp8682
g43
ag44
astRp8683
sg337
g1
(g2
g3
(dp8684
g339
(lp8685
g39
ag40
asg341
(lp8686
g43
ag44
astRp8687
stRp8688
sS'CHEMBL134'
p8689
g1
(g2
g3
(dp8690
g302
g1
(g2
g3
(dp8691
g304
(lp8692
g39
ag40
asg306
(lp8693
g43
ag44
astRp8694
stRp8695
sS'CHEMBL1628227'
p8696
g1
(g2
g3
(dp8697
g396
g1
(g2
g3
(dp8698
g398
(lp8699
g11
ag12
astRp8700
stRp8701
sS'CHEMBL130'
p8702
g1
(g2
g3
(dp8703
g3318
g1
(g2
g3
(dp8704
g3320
(lp8705
g3322
ag3323
astRp8706
stRp8707
sS'CHEMBL139'
p8708
g1
(g2
g3
(dp8709
g140
g1
(g2
g3
(dp8710
g142
(lp8711
g144
ag145
asg146
(lp8712
g148
ag149
asg150
(lp8713
g152
ag153
astRp8714
stRp8715
sS'CHEMBL284348'
p8716
g1
(g2
g3
(dp8717
g7342
g1
(g2
g3
(dp8718
g7344
(lp8719
g21
ag22
asg7346
(lp8720
g217
ag218
asg7348
(lp8721
g652
ag653
asg7350
(lp8722
g29
ag30
asg7352
(lp8723
g7354
ag7355
asg7356
(lp8724
g592
ag593
astRp8725
stRp8726
sS'CHEMBL12856'
p8727
g1
(g2
g3
(dp8728
g4249
g1
(g2
g3
(dp8729
g4251
(lp8730
g2656
ag2657
asg4253
(lp8731
g2662
ag2663
astRp8732
stRp8733
sS'CHEMBL1401'
p8734
g1
(g2
g3
(dp8735
S'Q24982'
p8736
g1
(g2
g3
(dp8737
S'3.30.70.20'
p8738
(lp8739
S'G4LXI8'
p8740
aS'C1LE80'
p8741
asS'3.40.50.970'
p8742
(lp8743
S'C1LFH4'
p8744
aS'G4VT40'
p8745
asS'3.40.50.920'
p8746
(lp8747
S'G4V9A5'
p8748
aS'Q5BSR1'
p8749
asS'PF00037'
p8750
(lp8751
S'G4LXI8'
p8752
aS'Q5C0Q9'
p8753
astRp8754
sS'Q968X7'
p8755
g1
(g2
g3
(dp8756
S'PF02775'
p8757
(lp8758
S'Q5C320'
p8759
asS'3.40.50.970'
p8760
(lp8761
g8744
ag8745
asS'3.30.70.20'
p8762
(lp8763
g8740
ag8741
asS'PF00175'
p8764
(lp8765
S'Q5D9L4'
p8766
aS'G4LUL4'
p8767
asS'3.40.50.360'
p8768
(lp8769
S'C1L3S0'
p8770
aS'G4LUL4'
p8771
asS'3.40.50.920'
p8772
(lp8773
g8748
ag8749
asS'2.40.30.10'
p8774
(lp8775
S'G4LUY4'
p8776
aS'Q5BTN1'
p8777
asS'PF12838'
p8778
(lp8779
S'Q5DHM4'
p8780
aS'G4VRD8'
p8781
asS'PF00258'
p8782
(lp8783
S'G4LUL4'
p8784
asS'3.40.50.80'
p8785
(lp8786
S'Q5D9L4'
p8787
aS'G4LUL4'
p8788
asS'PF00667'
p8789
(lp8790
S'Q5BXJ5'
p8791
aS'G4LUL4'
p8792
asS'1.20.990.10'
p8793
(lp8794
S'C1LE85'
p8795
aS'G4LUL4'
p8796
astRp8797
stRp8798
sS'CHEMBL344159'
p8799
g1
(g2
g3
(dp8800
g5320
g1
(g2
g3
(dp8801
g5322
(lp8802
g39
ag40
asg5324
(lp8803
g43
ag44
astRp8804
stRp8805
sS'CHEMBL255863'
p8806
g1
(g2
g3
(dp8807
g1414
g1
(g2
g3
(dp8808
g1416
(lp8809
g1378
ag1379
asg1418
(lp8810
g1420
asg1421
(lp8811
g1388
ag1389
asg1423
(lp8812
g439
ag440
ag441
asg1425
(lp8813
g509
ag510
asg1427
(lp8814
g1382
ag1383
asg1429
(lp8815
g1431
ag1432
ag1433
asg1434
(lp8816
g1392
ag1393
asg1436
(lp8817
g444
ag445
ag446
astRp8818
stRp8819
sS'CHEMBL1522'
p8820
g1
(g2
g3
(dp8821
g1268
g1
(g2
g3
(dp8822
g1270
(lp8823
g693
ag694
ag695
asg1272
(lp8824
g698
ag699
ag700
asg1274
(lp8825
g703
ag704
ag705
asg1276
(lp8826
g708
ag709
ag710
astRp8827
stRp8828
sS'CHEMBL1373'
p8829
g1
(g2
g3
(dp8830
g401
g1
(g2
g3
(dp8831
g403
(lp8832
g11
ag12
astRp8833
stRp8834
sS'CHEMBL1018'
p8835
g1
(g2
g3
(dp8836
g3133
g1
(g2
g3
(dp8837
g3135
(lp8838
g122
ag123
asg3137
(lp8839
g126
ag127
asg3139
(lp8840
g130
ag131
asg3141
(lp8841
g134
ag135
astRp8842
stRp8843
sS'CHEMBL1377'
p8844
g1
(g2
g3
(dp8845
g4320
g1
(g2
g3
(dp8846
g4322
(lp8847
g4324
ag4325
asg4326
(lp8848
g4328
ag4329
asg4330
(lp8849
g4332
asg4333
(lp8850
g4335
ag4336
astRp8851
stRp8852
sS'CHEMBL1615438'
p8853
g1
(g2
g3
(dp8854
g35
g1
(g2
g3
(dp8855
g37
(lp8856
g39
ag40
asg41
(lp8857
g43
ag44
astRp8858
stRp8859
sS'CHEMBL1404'
p8860
g1
(g2
g3
(dp8861
g8211
g1
(g2
g3
(dp8862
g8213
(lp8863
g21
ag22
asg8215
(lp8864
g217
ag218
asg8217
(lp8865
g29
ag30
astRp8866
sg538
g1
(g2
g3
(dp8867
g540
(lp8868
g21
ag22
asg542
(lp8869
g29
ag30
astRp8870
stRp8871
sS'CHEMBL1378'
p8872
g1
(g2
g3
(dp8873
g94
g1
(g2
g3
(dp8874
g96
(lp8875
g39
ag40
asg98
(lp8876
g43
ag44
astRp8877
stRp8878
sS'CHEMBL1615433'
p8879
g1
(g2
g3
(dp8880
g566
g1
(g2
g3
(dp8881
g568
(lp8882
g39
ag40
asg570
(lp8883
g43
ag44
astRp8884
stRp8885
sS'CHEMBL270190'
p8886
g1
(g2
g3
(dp8887
g312
g1
(g2
g3
(dp8888
g314
(lp8889
g39
ag40
asg316
(lp8890
g43
ag44
astRp8891
stRp8892
sS'CHEMBL2028663'
p8893
g1
(g2
g3
(dp8894
g503
g1
(g2
g3
(dp8895
g505
(lp8896
g439
ag440
ag441
asg507
(lp8897
g509
ag510
asg511
(lp8898
g513
ag514
asg515
(lp8899
g517
ag518
asg519
(lp8900
g521
asg522
(lp8901
g524
ag525
asg526
(lp8902
g444
ag445
ag446
astRp8903
stRp8904
sS'CHEMBL2028661'
p8905
g1
(g2
g3
(dp8906
g49
g1
(g2
g3
(dp8907
g51
(lp8908
g39
ag40
asg53
(lp8909
g43
ag44
astRp8910
stRp8911
sS'CHEMBL295698'
p8912
g1
(g2
g3
(dp8913
g227
g1
(g2
g3
(dp8914
g229
(lp8915
g231
ag232
asg233
(lp8916
g235
ag236
astRp8917
stRp8918
sS'CHEMBL1201258'
p8919
g1
(g2
g3
(dp8920
S'P00374'
p8921
g1
(g2
g3
(dp8922
S'3.40.430.10'
p8923
(lp8924
g4328
ag4329
asS'PF00186'
p8925
(lp8926
g4332
astRp8927
sS'P22102'
p8928
g1
(g2
g3
(dp8929
S'3.40.50.20'
p8930
(lp8931
g2702
ag2703
asS'3.90.650.10'
p8932
(lp8933
S'B3GUX9'
p8934
asS'PF00551'
p8935
(lp8936
S'Q5BZJ0'
p8937
aS'G4LX97'
p8938
asS'3.30.1490.20'
p8939
(lp8940
g2698
ag2699
asS'PF02769'
p8941
(lp8942
S'B3GUX9'
p8943
asS'3.30.470.20'
p8944
(lp8945
g2706
ag2707
asS'PF00586'
p8946
(lp8947
S'B3GUX9'
p8948
asS'3.40.50.170'
p8949
(lp8950
S'Q5BZJ0'
p8951
aS'G4LX97'
p8952
asS'3.30.1330.10'
p8953
(lp8954
S'B3GUX9'
p8955
astRp8956
sS'P04818'
p8957
g1
(g2
g3
(dp8958
S'3.30.572.10'
p8959
(lp8960
g4324
ag4325
asS'PF00303'
p8961
(lp8962
g4335
ag4336
astRp8963
stRp8964
sS'CHEMBL1201317'
p8965
g1
(g2
g3
(dp8966
g1268
g1
(g2
g3
(dp8967
g1270
(lp8968
g693
ag694
ag695
asg1272
(lp8969
g698
ag699
ag700
asg1274
(lp8970
g703
ag704
ag705
asg1276
(lp8971
g708
ag709
ag710
astRp8972
stRp8973
sS'CHEMBL1201250'
p8974
g1
(g2
g3
(dp8975
g94
g1
(g2
g3
(dp8976
g96
(lp8977
g39
ag40
asg98
(lp8978
g43
ag44
astRp8979
stRp8980
sS'CHEMBL1306'
p8981
g1
(g2
g3
(dp8982
g227
g1
(g2
g3
(dp8983
g229
(lp8984
g231
ag232
asg233
(lp8985
g235
ag236
astRp8986
stRp8987
sS'CHEMBL1305'
p8988
g1
(g2
g3
(dp8989
g35
g1
(g2
g3
(dp8990
g37
(lp8991
g39
ag40
asg41
(lp8992
g43
ag44
astRp8993
stRp8994
sS'CHEMBL1303'
p8995
g1
(g2
g3
(dp8996
g1347
g1
(g2
g3
(dp8997
g96
(lp8998
g39
ag40
asg98
(lp8999
g43
ag44
astRp9000
stRp9001
sS'CHEMBL220491'
p9002
g1
(g2
g3
(dp9003
g4486
g1
(g2
g3
(dp9004
g4488
(lp9005
g3085
ag3086
asg4490
(lp9006
g3089
ag3090
astRp9007
stRp9008
sS'CHEMBL1200986'
p9009
g1
(g2
g3
(dp9010
g87
g1
(g2
g3
(dp9011
g89
(lp9012
g39
ag40
asg91
(lp9013
g43
ag44
astRp9014
sg1347
g1
(g2
g3
(dp9015
g96
(lp9016
g39
ag40
asg98
(lp9017
g43
ag44
astRp9018
stRp9019
sS'CHEMBL1308'
p9020
g1
(g2
g3
(dp9021
S'P00325'
p9022
g1
(g2
g3
(dp9023
S'3.40.50.10730'
p9024
(lp9025
S'G4VR32'
p9026
asS'3.90.180.10'
p9027
(lp9028
g4421
ag4422
asS'PF00107'
p9029
(lp9030
g4448
asS'PF08240'
p9031
(lp9032
S'Q5BRU3'
p9033
aS'G4VEY4'
p9034
astRp9035
stRp9036
sS'CHEMBL960'
p9037
g1
(g2
g3
(dp9038
g3303
g1
(g2
g3
(dp9039
g3305
(lp9040
g3307
ag3308
asg3309
(lp9041
g3311
ag3312
ag3313
astRp9042
stRp9043
sS'CHEMBL611'
p9044
g1
(g2
g3
(dp9045
g379
g1
(g2
g3
(dp9046
g381
(lp9047
g39
ag40
asg383
(lp9048
g43
ag44
astRp9049
stRp9050
sS'CHEMBL1115'
p9051
g1
(g2
g3
(dp9052
g5380
g1
(g2
g3
(dp9053
g2453
(lp9054
g2455
ag2456
ag2457
asg2458
(lp9055
g2460
ag2461
ag2462
astRp9056
stRp9057
sS'CHEMBL1112'
p9058
g1
(g2
g3
(dp9059
g87
g1
(g2
g3
(dp9060
g89
(lp9061
g39
ag40
asg91
(lp9062
g43
ag44
astRp9063
sg94
g1
(g2
g3
(dp9064
g96
(lp9065
g39
ag40
asg98
(lp9066
g43
ag44
astRp9067
sg682
g1
(g2
g3
(dp9068
g684
(lp9069
g39
ag40
asg686
(lp9070
g43
ag44
astRp9071
stRp9072
sS'CHEMBL1113'
p9073
g1
(g2
g3
(dp9074
g7
g1
(g2
g3
(dp9075
g9
(lp9076
g11
ag12
astRp9077
sg396
g1
(g2
g3
(dp9078
g398
(lp9079
g11
ag12
astRp9080
sg2800
g1
(g2
g3
(dp9081
g2802
(lp9082
g39
ag40
asg2804
(lp9083
g43
ag44
astRp9084
stRp9085
sS'CHEMBL967'
p9086
g1
(g2
g3
(dp9087
g1268
g1
(g2
g3
(dp9088
g1270
(lp9089
g693
ag694
ag695
asg1272
(lp9090
g698
ag699
ag700
asg1274
(lp9091
g703
ag704
ag705
asg1276
(lp9092
g708
ag709
ag710
astRp9093
stRp9094
sS'CHEMBL614'
p9095
g1
(g2
g3
(dp9096
S'P95029'
p9097
g1
(g2
g3
(dp9098
S'PF00698'
p9099
(lp9100
g4400
ag4401
asS'3.40.50.720'
p9101
(lp9102
g195
ag196
asS'3.40.366.10'
p9103
(lp9104
g4411
ag4412
asS'3.20.20.70'
p9105
(lp9106
g3311
ag3312
ag3313
asS'3.40.47.10'
p9107
(lp9108
g4415
ag4416
asS'PF02801'
p9109
(lp9110
g4433
asS'PF00109'
p9111
(lp9112
g4436
ag4437
asS'PF01575'
p9113
(lp9114
S'G4V9Z7'
p9115
aS'Q5C0P9'
p9116
asS'3.10.129.10'
p9117
(lp9118
g4451
ag4452
astRp9119
sS'P66065'
p9120
g1
(g2
g3
(dp9121
S'3.90.1180.10'
p9122
(lp9123
S'G4VGE1'
p9124
aS'C1LJK3'
p9125
asS'PF00572'
p9126
(lp9127
S'G4VGE1'
p9128
aS'Q5D932'
p9129
astRp9130
stRp9131
sS'CHEMBL969'
p9132
g1
(g2
g3
(dp9133
g1268
g1
(g2
g3
(dp9134
g1270
(lp9135
g693
ag694
ag695
asg1272
(lp9136
g698
ag699
ag700
asg1274
(lp9137
g703
ag704
ag705
asg1276
(lp9138
g708
ag709
ag710
astRp9139
stRp9140
sS'CHEMBL968'
p9141
g1
(g2
g3
(dp9142
g1268
g1
(g2
g3
(dp9143
g1270
(lp9144
g693
ag694
ag695
asg1272
(lp9145
g698
ag699
ag700
asg1274
(lp9146
g703
ag704
ag705
asg1276
(lp9147
g708
ag709
ag710
astRp9148
stRp9149
sS'CHEMBL648'
p9150
g1
(g2
g3
(dp9151
g35
g1
(g2
g3
(dp9152
g37
(lp9153
g39
ag40
asg41
(lp9154
g43
ag44
astRp9155
stRp9156
sS'CHEMBL1118'
p9157
g1
(g2
g3
(dp9158
g7
g1
(g2
g3
(dp9159
g9
(lp9160
g11
ag12
astRp9161
sg396
g1
(g2
g3
(dp9162
g398
(lp9163
g11
ag12
astRp9164
stRp9165
sS'CHEMBL1286'
p9166
g1
(g2
g3
(dp9167
S'Q00975'
p9168
g1
(g2
g3
(dp9169
S'PF00520'
p9170
(lp9171
g21
ag22
asS'1.10.287.70'
p9172
(lp9173
g29
ag30
asS'PF08763'
p9174
(lp9175
g221
ag222
astRp9176
sS'Q7L0J3'
p9177
g1
(g2
g3
(dp9178
S'1.20.1250.20'
p9179
(lp9180
g410
ag411
asS'PF07690'
p9181
(lp9182
g414
ag415
asS'PF00083'
p9183
(lp9184
g3268
ag3269
astRp9185
stRp9186
sS'CHEMBL1282'
p9187
g1
(g2
g3
(dp9188
g7857
g1
(g2
g3
(dp9189
g7859
(lp9190
g7842
ag7843
asg7861
(lp9191
g7846
ag7847
asg7863
(lp9192
g7850
ag7851
asg7865
(lp9193
g7854
ag7855
astRp9194
stRp9195
sS'CHEMBL1194325'
p9196
g1
(g2
g3
(dp9197
g566
g1
(g2
g3
(dp9198
g568
(lp9199
g39
ag40
asg570
(lp9200
g43
ag44
astRp9201
stRp9202
sS'CHEMBL945'
p9203
g1
(g2
g3
(dp9204
S'P51170'
p9205
g1
(g2
g3
(dp9206
S'2.60.470.10'
p9207
(lp9208
S'G4LVW8'
p9209
asS'1.10.287.770'
p9210
(lp9211
S'Q5BW11'
p9212
aS'G4VKI6'
p9213
asS'PF00858'
p9214
(lp9215
S'Q5BW11'
p9216
aS'G4LUW7'
p9217
astRp9218
stRp9219
sS'CHEMBL1256786'
p9220
g1
(g2
g3
(dp9221
g330
g1
(g2
g3
(dp9222
g332
(lp9223
g39
ag40
asg334
(lp9224
g43
ag44
astRp9225
stRp9226
sS'CHEMBL1082407'
p9227
g1
(g2
g3
(dp9228
g6126
g1
(g2
g3
(dp9229
g6128
(lp9230
g122
ag123
asg6130
(lp9231
g126
ag127
asg6132
(lp9232
g130
ag131
asg6134
(lp9233
g134
ag135
asg6136
(lp9234
g2552
ag2553
astRp9235
stRp9236
sS'CHEMBL461101'
p9237
g1
(g2
g3
(dp9238
S'P40238'
p9239
g1
(g2
g3
(dp9240
S'PF00041'
p9241
(lp9242
g1736
ag1737
asS'2.60.40.10'
p9243
(lp9244
g1591
ag1592
astRp9245
stRp9246
sS'CHEMBL914'
p9247
g1
(g2
g3
(dp9248
g35
g1
(g2
g3
(dp9249
g37
(lp9250
g39
ag40
asg41
(lp9251
g43
ag44
astRp9252
stRp9253
sS'CHEMBL1571'
p9254
g1
(g2
g3
(dp9255
g3515
g1
(g2
g3
(dp9256
g3517
(lp9257
g231
ag232
asg3519
(lp9258
g235
ag236
astRp9259
stRp9260
sS'CHEMBL916'
p9261
g1
(g2
g3
(dp9262
S'P05106'
p9263
g1
(g2
g3
(dp9264
S'2.10.25.10'
p9265
(lp9266
g152
ag153
asS'3.40.50.410'
p9267
(lp9268
S'G4VPZ8'
p9269
aS'C1LNP9'
p9270
asS'1.20.5.630'
p9271
(lp9272
S'E7BBC0'
p9273
aS'Q5C0L6'
p9274
asS'PF00362'
p9275
(lp9276
S'E7BBC0'
p9277
aS'Q5C2S8'
p9278
asS'1.20.5.100'
p9279
(lp9280
g3030
ag3031
asS'PF08725'
p9281
(lp9282
S'E7BBC0'
p9283
aS'Q5C0L6'
p9284
astRp9285
stRp9286
sS'CHEMBL1278'
p9287
g1
(g2
g3
(dp9288
g2256
g1
(g2
g3
(dp9289
g2258
(lp9290
g39
ag40
asg2260
(lp9291
g43
ag44
astRp9292
sg2263
g1
(g2
g3
(dp9293
g2265
(lp9294
g39
ag40
asg2267
(lp9295
g43
ag44
astRp9296
stRp9297
sS'CHEMBL376359'
p9298
g1
(g2
g3
(dp9299
g2777
g1
(g2
g3
(dp9300
g2779
(lp9301
g2781
asg2782
(lp9302
g2784
ag2785
asg2786
(lp9303
g2788
ag2789
asg2790
(lp9304
g2460
ag2461
ag2462
astRp9305
stRp9306
sS'CHEMBL911'
p9307
g1
(g2
g3
(dp9308
g1195
g1
(g2
g3
(dp9309
g1197
(lp9310
g693
ag694
ag695
asg1199
(lp9311
g698
ag699
ag700
asg1201
(lp9312
g703
ag704
ag705
asg1203
(lp9313
g708
ag709
ag710
astRp9314
stRp9315
sS'CHEMBL1577'
p9316
g1
(g2
g3
(dp9317
g1519
g1
(g2
g3
(dp9318
g1521
(lp9319
g286
astRp9320
stRp9321
sS'CHEMBL1198857'
p9322
g1
(g2
g3
(dp9323
g330
g1
(g2
g3
(dp9324
g332
(lp9325
g39
ag40
asg334
(lp9326
g43
ag44
astRp9327
stRp9328
sS'CHEMBL1271'
p9329
g1
(g2
g3
(dp9330
g2060
g1
(g2
g3
(dp9331
g2062
(lp9332
g693
ag694
ag695
asg2064
(lp9333
g698
ag699
ag700
asg2066
(lp9334
g703
ag704
ag705
asg2068
(lp9335
g708
ag709
ag710
astRp9336
stRp9337
sS'CHEMBL918'
p9338
g1
(g2
g3
(dp9339
g17
g1
(g2
g3
(dp9340
g19
(lp9341
g21
ag22
asg23
(lp9342
g25
ag26
asg27
(lp9343
g29
ag30
astRp9344
stRp9345
sS'CHEMBL1274'
p9346
g1
(g2
g3
(dp9347
g6126
g1
(g2
g3
(dp9348
g6128
(lp9349
g122
ag123
asg6130
(lp9350
g126
ag127
asg6132
(lp9351
g130
ag131
asg6134
(lp9352
g134
ag135
asg6136
(lp9353
g2552
ag2553
astRp9354
stRp9355
sS'CHEMBL1546'
p9356
g1
(g2
g3
(dp9357
g1260
g1
(g2
g3
(dp9358
g304
(lp9359
g39
ag40
asg306
(lp9360
g43
ag44
astRp9361
stRp9362
sS'CHEMBL1168'
p9363
g1
(g2
g3
(dp9364
g755
g1
(g2
g3
(dp9365
g757
(lp9366
g759
ag760
astRp9367
stRp9368
sS'CHEMBL18'
p9369
g1
(g2
g3
(dp9370
S'P07451'
p9371
g1
(g2
g3
(dp9372
S'PF00194'
p9373
(lp9374
g3085
ag3086
asS'3.10.200.10'
p9375
(lp9376
g3089
ag3090
astRp9377
stRp9378
sS'CHEMBL990'
p9379
g1
(g2
g3
(dp9380
g6885
g1
(g2
g3
(dp9381
g6887
(lp9382
g199
ag200
astRp9383
stRp9384
sS'CHEMBL1020'
p9385
g1
(g2
g3
(dp9386
g140
g1
(g2
g3
(dp9387
g142
(lp9388
g144
ag145
asg146
(lp9389
g148
ag149
asg150
(lp9390
g152
ag153
astRp9391
stRp9392
sS'CHEMBL1021'
p9393
g1
(g2
g3
(dp9394
g140
g1
(g2
g3
(dp9395
g142
(lp9396
g144
ag145
asg146
(lp9397
g148
ag149
asg150
(lp9398
g152
ag153
astRp9399
stRp9400
sS'CHEMBL1754'
p9401
g1
(g2
g3
(dp9402
g3576
g1
(g2
g3
(dp9403
g3578
(lp9404
g668
ag669
asg3580
(lp9405
g29
ag30
astRp9406
sg3583
g1
(g2
g3
(dp9407
g3585
(lp9408
g668
ag669
asg3587
(lp9409
g29
ag30
astRp9410
stRp9411
sS'CHEMBL1027'
p9412
g1
(g2
g3
(dp9413
S'P30531'
p9414
g1
(g2
g3
(dp9415
S'PF00209'
p9416
(lp9417
g11
ag12
astRp9418
stRp9419
sS'CHEMBL1201039'
p9420
g1
(g2
g3
(dp9421
g1519
g1
(g2
g3
(dp9422
g1521
(lp9423
g286
astRp9424
stRp9425
sS'CHEMBL1025'
p9426
g1
(g2
g3
(dp9427
g5380
g1
(g2
g3
(dp9428
g2453
(lp9429
g2455
ag2456
ag2457
asg2458
(lp9430
g2460
ag2461
ag2462
astRp9431
stRp9432
sS'CHEMBL766'
p9433
g1
(g2
g3
(dp9434
S'P16444'
p9435
g1
(g2
g3
(dp9436
S'3.20.20.140'
p9437
(lp9438
g6089
ag6090
astRp9439
stRp9440
sS'CHEMBL765'
p9441
g1
(g2
g3
(dp9442
g396
g1
(g2
g3
(dp9443
g398
(lp9444
g11
ag12
astRp9445
stRp9446
sS'CHEMBL1450'
p9447
g1
(g2
g3
(dp9448
S'Q02768'
p9449
g1
(g2
g3
(dp9450
S'PF00032'
p9451
(lp9452
S'Q1I0P2'
p9453
aS'B0FNB8'
p9454
aS'Q3KU59'
p9455
asS'1.20.810.10'
p9456
(lp9457
S'Q1I0P2'
p9458
aS'B0FNB8'
p9459
aS'I6LB10'
p9460
asS'PF13631'
p9461
(lp9462
S'Q9B8X3'
p9463
aS'D3TTI0'
p9464
aS'Q1I0P2'
p9465
astRp9466
stRp9467
sS'CHEMBL762'
p9468
g1
(g2
g3
(dp9469
g2682
g1
(g2
g3
(dp9470
g304
(lp9471
g39
ag40
asg306
(lp9472
g43
ag44
astRp9473
stRp9474
sS'CHEMBL761'
p9475
g1
(g2
g3
(dp9476
g2682
g1
(g2
g3
(dp9477
g304
(lp9478
g39
ag40
asg306
(lp9479
g43
ag44
astRp9480
stRp9481
sS'CHEMBL1186610'
p9482
g1
(g2
g3
(dp9483
g559
g1
(g2
g3
(dp9484
g561
(lp9485
g39
ag40
asg563
(lp9486
g43
ag44
astRp9487
sg566
g1
(g2
g3
(dp9488
g568
(lp9489
g39
ag40
asg570
(lp9490
g43
ag44
astRp9491
stRp9492
sS'CHEMBL1592'
p9493
g1
(g2
g3
(dp9494
g755
g1
(g2
g3
(dp9495
g757
(lp9496
g759
ag760
astRp9497
stRp9498
sS'CHEMBL1200522'
p9499
g1
(g2
g3
(dp9500
g73
g1
(g2
g3
(dp9501
g75
(lp9502
g77
ag78
asg79
(lp9503
g81
ag82
astRp9504
stRp9505
sS'CHEMBL686'
p9506
g1
(g2
g3
(dp9507
g140
g1
(g2
g3
(dp9508
g142
(lp9509
g144
ag145
asg146
(lp9510
g148
ag149
asg150
(lp9511
g152
ag153
astRp9512
stRp9513
sS'CHEMBL681'
p9514
g1
(g2
g3
(dp9515
g1268
g1
(g2
g3
(dp9516
g1270
(lp9517
g693
ag694
ag695
asg1272
(lp9518
g698
ag699
ag700
asg1274
(lp9519
g703
ag704
ag705
asg1276
(lp9520
g708
ag709
ag710
astRp9521
stRp9522
sS'CHEMBL768'
p9523
g1
(g2
g3
(dp9524
g330
g1
(g2
g3
(dp9525
g332
(lp9526
g39
ag40
asg334
(lp9527
g43
ag44
astRp9528
sg337
g1
(g2
g3
(dp9529
g339
(lp9530
g39
ag40
asg341
(lp9531
g43
ag44
astRp9532
stRp9533
sS'CHEMBL267936'
p9534
g1
(g2
g3
(dp9535
g2060
g1
(g2
g3
(dp9536
g2062
(lp9537
g693
ag694
ag695
asg2064
(lp9538
g698
ag699
ag700
asg2066
(lp9539
g703
ag704
ag705
asg2068
(lp9540
g708
ag709
ag710
astRp9541
stRp9542
sS'CHEMBL1094966'
p9543
g1
(g2
g3
(dp9544
g330
g1
(g2
g3
(dp9545
g332
(lp9546
g39
ag40
asg334
(lp9547
g43
ag44
astRp9548
stRp9549
sS'CHEMBL1200472'
p9550
g1
(g2
g3
(dp9551
g1268
g1
(g2
g3
(dp9552
g1270
(lp9553
g693
ag694
ag695
asg1272
(lp9554
g698
ag699
ag700
asg1274
(lp9555
g703
ag704
ag705
asg1276
(lp9556
g708
ag709
ag710
astRp9557
stRp9558
sS'CHEMBL108'
p9559
g1
(g2
g3
(dp9560
g17
g1
(g2
g3
(dp9561
g19
(lp9562
g21
ag22
asg23
(lp9563
g25
ag26
asg27
(lp9564
g29
ag30
astRp9565
stRp9566
sS'CHEMBL1059'
p9567
g1
(g2
g3
(dp9568
g209
g1
(g2
g3
(dp9569
g211
(lp9570
g21
ag22
asg213
(lp9571
g29
ag30
asg215
(lp9572
g217
ag218
asg219
(lp9573
g221
ag222
astRp9574
stRp9575
sS'CHEMBL19'
p9576
g1
(g2
g3
(dp9577
g4486
g1
(g2
g3
(dp9578
g4488
(lp9579
g3085
ag3086
asg4490
(lp9580
g3089
ag3090
astRp9581
sg7422
g1
(g2
g3
(dp9582
g7424
(lp9583
g3085
ag3086
asg7426
(lp9584
g3089
ag3090
astRp9585
sg3081
g1
(g2
g3
(dp9586
g3083
(lp9587
g3085
ag3086
asg3087
(lp9588
g3089
ag3090
astRp9589
sS'P43166'
p9590
g1
(g2
g3
(dp9591
S'PF00194'
p9592
(lp9593
g3085
ag3086
asS'3.10.200.10'
p9594
(lp9595
g3089
ag3090
astRp9596
stRp9597
sS'CHEMBL16'
p9598
g1
(g2
g3
(dp9599
g17
g1
(g2
g3
(dp9600
g19
(lp9601
g21
ag22
asg23
(lp9602
g25
ag26
asg27
(lp9603
g29
ag30
astRp9604
stRp9605
sS'CHEMBL17'
p9606
g1
(g2
g3
(dp9607
g4486
g1
(g2
g3
(dp9608
g4488
(lp9609
g3085
ag3086
asg4490
(lp9610
g3089
ag3090
astRp9611
sg7422
g1
(g2
g3
(dp9612
g7424
(lp9613
g3085
ag3086
asg7426
(lp9614
g3089
ag3090
astRp9615
sg3081
g1
(g2
g3
(dp9616
g3083
(lp9617
g3085
ag3086
asg3087
(lp9618
g3089
ag3090
astRp9619
sg7433
g1
(g2
g3
(dp9620
g7435
(lp9621
g3085
ag3086
asg7437
(lp9622
g3089
ag3090
astRp9623
stRp9624
sS'CHEMBL997'
p9625
g1
(g2
g3
(dp9626
g1181
g1
(g2
g3
(dp9627
g1183
(lp9628
g1185
ag1186
asg1187
(lp9629
g1189
ag1190
astRp9630
stRp9631
sS'CHEMBL1054'
p9632
g1
(g2
g3
(dp9633
g1519
g1
(g2
g3
(dp9634
g1521
(lp9635
g286
astRp9636
stRp9637
sS'CHEMBL12'
p9638
g1
(g2
g3
(dp9639
g1268
g1
(g2
g3
(dp9640
g1270
(lp9641
g693
ag694
ag695
asg1272
(lp9642
g698
ag699
ag700
asg1274
(lp9643
g703
ag704
ag705
asg1276
(lp9644
g708
ag709
ag710
astRp9645
stRp9646
sS'CHEMBL13'
p9647
g1
(g2
g3
(dp9648
g337
g1
(g2
g3
(dp9649
g339
(lp9650
g39
ag40
asg341
(lp9651
g43
ag44
astRp9652
stRp9653
sS'CHEMBL11'
p9654
g1
(g2
g3
(dp9655
g7
g1
(g2
g3
(dp9656
g9
(lp9657
g11
ag12
astRp9658
sg396
g1
(g2
g3
(dp9659
g398
(lp9660
g11
ag12
astRp9661
stRp9662
stRp9663
.