ccopy_reg
_reconstructor
p1
(c__main__
AutoVivification
p2
c__builtin__
dict
p3
(dp4
S'CHEMBL960'
p5
g1
(g2
g3
(dp6
S'Q02127'
p7
g1
(g2
g3
(dp8
S'3.20.20.70'
p9
(lp10
S'C4PZQ3'
p11
astRp12
stRp13
sS'CHEMBL973'
p14
g1
(g2
g3
(dp15
g7
g1
(g2
g3
(dp16
g9
(lp17
g11
astRp18
stRp19
sS'CHEMBL354541'
p20
g1
(g2
g3
(dp21
S'P07237'
p22
g1
(g2
g3
(dp23
S'3.40.30.10'
p24
(lp25
S'P30114'
p26
astRp27
stRp28
sS'CHEMBL614'
p29
g1
(g2
g3
(dp30
S'P95029'
p31
g1
(g2
g3
(dp32
S'3.20.20.70'
p33
(lp34
g11
astRp35
stRp36
stRp37
.