ccopy_reg
_reconstructor
p1
(c__main__
AutoVivification
p2
c__builtin__
dict
p3
(dp4
S'DB02951'
p5
g1
(g2
g3
(dp6
S'P0A6L6'
p7
g1
(g2
g3
(dp8
S'3.20.20.70'
p9
(lp10
S'C4PZQ3'
p11
astRp12
stRp13
sS'DB03685'
p14
g1
(g2
g3
(dp15
S'P25971'
p16
g1
(g2
g3
(dp17
S'3.20.20.70'
p18
(lp19
g11
astRp20
stRp21
sS'DB01796'
p22
g1
(g2
g3
(dp23
S'O06594'
p24
g1
(g2
g3
(dp25
S'3.20.20.70'
p26
(lp27
g11
astRp28
sS'P30012'
p29
g1
(g2
g3
(dp30
S'3.20.20.70'
p31
(lp32
g11
astRp33
stRp34
sS'DB02954'
p35
g1
(g2
g3
(dp36
S'Q83P33'
p37
g1
(g2
g3
(dp38
S'PF00709'
p39
(lp40
S'C4QCD2'
p41
aS'Q5D8V5'
p42
asS'3.90.170.10'
p43
(lp44
S'C4QCD2'
p45
aS'Q5D8V5'
p46
asS'3.40.440.10'
p47
(lp48
S'C4QCD2'
p49
aS'Q5D8V5'
p50
astRp51
stRp52
sS' DB03566'
p53
g1
(g2
g3
(dp54
S'Q16881'
p55
g1
(g2
g3
(dp56
S'3.40.30.10'
p57
(lp58
S'P30114'
p59
astRp60
stRp61
sS' DB07381'
p62
g1
(g2
g3
(dp63
S'P11444'
p64
g1
(g2
g3
(dp65
S'3.20.20.120'
p66
(lp67
S'P33676'
p68
asS'3.30.390.10'
p69
(lp70
S'P33676'
p71
astRp72
stRp73
sS' DB07387'
p74
g1
(g2
g3
(dp75
S'P60174'
p76
g1
(g2
g3
(dp77
S'3.20.20.70'
p78
(lp79
g11
astRp80
stRp81
sS'DB03171'
p82
g1
(g2
g3
(dp83
S'P00929'
p84
g1
(g2
g3
(dp85
S'3.20.20.70'
p86
(lp87
g11
astRp88
sS'P16608'
p89
g1
(g2
g3
(dp90
S'3.20.20.70'
p91
(lp92
g11
astRp93
stRp94
sS' DB02836'
p95
g1
(g2
g3
(dp96
S'P0A7D4'
p97
g1
(g2
g3
(dp98
S'PF00709'
p99
(lp100
g41
ag42
asS'3.90.170.10'
p101
(lp102
g45
ag46
asS'3.40.440.10'
p103
(lp104
g49
ag50
astRp105
stRp106
sS'DB04272'
p107
g1
(g2
g3
(dp108
S'P0A955'
p109
g1
(g2
g3
(dp110
S'3.20.20.70'
p111
(lp112
g11
astRp113
sS'Q7CL96'
p114
g1
(g2
g3
(dp115
S'3.40.30.10'
p116
(lp117
g59
asS'PF00043'
p118
(lp119
S'P30114'
p120
asS'1.20.1050.10'
p121
(lp122
S'P30114'
p123
astRp124
stRp125
sS' DB03884'
p126
g1
(g2
g3
(dp127
S'Q9UJM8'
p128
g1
(g2
g3
(dp129
S'3.20.20.70'
p130
(lp131
g11
astRp132
stRp133
sS' DB04701'
p134
g1
(g2
g3
(dp135
S'P28161'
p136
g1
(g2
g3
(dp137
S'3.40.30.10'
p138
(lp139
g59
asS'PF00043'
p140
(lp141
g120
asS'1.20.1050.10'
p142
(lp143
g123
asS'PF02798'
p144
(lp145
S'P30114'
p146
astRp147
stRp148
sS' DB04700'
p149
g1
(g2
g3
(dp150
S'Q9Y2Q3'
p151
g1
(g2
g3
(dp152
S'3.40.30.10'
p153
(lp154
g59
astRp155
stRp156
sS'DB01097'
p157
g1
(g2
g3
(dp158
S'Q02127'
p159
g1
(g2
g3
(dp160
S'3.20.20.70'
p161
(lp162
g11
astRp163
stRp164
sS' DB07060'
p165
g1
(g2
g3
(dp166
S'P20932'
p167
g1
(g2
g3
(dp168
S'3.20.20.70'
p169
(lp170
g11
astRp171
sg128
g1
(g2
g3
(dp172
g130
(lp173
g11
astRp174
stRp175
sS' DB04460'
p176
g1
(g2
g3
(dp177
g97
g1
(g2
g3
(dp178
g99
(lp179
g41
ag42
asg101
(lp180
g45
ag46
asg103
(lp181
g49
ag50
astRp182
stRp183
sS' DB08636'
p184
g1
(g2
g3
(dp185
S'Q51948'
p186
g1
(g2
g3
(dp187
S'3.40.30.10'
p188
(lp189
g59
astRp190
stRp191
sS' DB03289'
p192
g1
(g2
g3
(dp193
S'P08692'
p194
g1
(g2
g3
(dp195
S'3.40.30.10'
p196
(lp197
g59
astRp198
stRp199
sS' DB07849'
p200
g1
(g2
g3
(dp201
S'P09211'
p202
g1
(g2
g3
(dp203
S'3.40.30.10'
p204
(lp205
g59
asS'PF00043'
p206
(lp207
g120
asS'1.20.1050.10'
p208
(lp209
g123
asS'PF02798'
p210
(lp211
g146
astRp212
stRp213
sS'DB02251'
p214
g1
(g2
g3
(dp215
S'P29208'
p216
g1
(g2
g3
(dp217
S'3.20.20.120'
p218
(lp219
g68
asS'3.30.390.10'
p220
(lp221
g71
astRp222
sS'Q47Q21'
p223
g1
(g2
g3
(dp224
S'3.20.20.120'
p225
(lp226
g68
asS'3.30.390.10'
p227
(lp228
g71
astRp229
stRp230
sS' DB03668'
p231
g1
(g2
g3
(dp232
S'P08244'
p233
g1
(g2
g3
(dp234
S'3.20.20.70'
p235
(lp236
g11
astRp237
stRp238
sS' DB08231'
p239
g1
(g2
g3
(dp240
S'P62158'
p241
g1
(g2
g3
(dp242
S'PF00036'
p243
(lp244
S'P13566'
p245
astRp246
sS'P63098'
p247
g1
(g2
g3
(dp248
S'PF00036'
p249
(lp250
g245
astRp251
stRp252
sS' DB03801'
p253
g1
(g2
g3
(dp254
S'Q70AC7'
p255
g1
(g2
g3
(dp256
S'3.20.20.70'
p257
(lp258
g11
astRp259
stRp260
sS' DB04160'
p261
g1
(g2
g3
(dp262
g37
g1
(g2
g3
(dp263
g39
(lp264
g41
ag42
asg43
(lp265
g45
ag46
asg47
(lp266
g49
ag50
astRp267
stRp268
sS' DB04048'
p269
g1
(g2
g3
(dp270
S'P32119'
p271
g1
(g2
g3
(dp272
S'3.40.30.10'
p273
(lp274
g59
astRp275
stRp276
sS' DB01117'
p277
g1
(g2
g3
(dp278
g159
g1
(g2
g3
(dp279
g161
(lp280
g11
astRp281
stRp282
sS' DB01115'
p283
g1
(g2
g3
(dp284
g241
g1
(g2
g3
(dp285
g243
(lp286
g245
astRp287
stRp288
sS' DB04841'
p289
g1
(g2
g3
(dp290
g241
g1
(g2
g3
(dp291
g243
(lp292
g245
astRp293
stRp294
sS'DB03570'
p295
g1
(g2
g3
(dp296
S'P25053'
p297
g1
(g2
g3
(dp298
S'3.20.20.70'
p299
(lp300
g11
astRp301
stRp302
sS'DB07914'
p303
g1
(g2
g3
(dp304
S'Q59721'
p305
g1
(g2
g3
(dp306
S'3.40.30.10'
p307
(lp308
g59
asS'1.20.1050.10'
p309
(lp310
g123
asS'PF02798'
p311
(lp312
g146
astRp313
stRp314
sS' DB01819'
p315
g1
(g2
g3
(dp316
S'O66496'
p317
g1
(g2
g3
(dp318
S'3.20.20.70'
p319
(lp320
g11
astRp321
stRp322
sS' DB03146'
p323
g1
(g2
g3
(dp324
g97
g1
(g2
g3
(dp325
g99
(lp326
g41
ag42
asg101
(lp327
g45
ag46
asg103
(lp328
g49
ag50
astRp329
stRp330
sS' DB03147'
p331
g1
(g2
g3
(dp332
S'Q12882'
p333
g1
(g2
g3
(dp334
S'3.20.20.70'
p335
(lp336
g11
astRp337
sg55
g1
(g2
g3
(dp338
g57
(lp339
g59
astRp340
stRp341
sS' DB03145'
p342
g1
(g2
g3
(dp343
S'P39594'
p344
g1
(g2
g3
(dp345
S'3.20.20.70'
p346
(lp347
g11
astRp348
stRp349
sS' DB07497'
p350
g1
(g2
g3
(dp351
S'P11498'
p352
g1
(g2
g3
(dp353
S'3.20.20.70'
p354
(lp355
g11
astRp356
stRp357
sS'DB04074'
p358
g1
(g2
g3
(dp359
S'P96420'
p360
g1
(g2
g3
(dp361
S'3.20.20.70'
p362
(lp363
g11
astRp364
stRp365
sS' DB03064'
p366
g1
(g2
g3
(dp367
g128
g1
(g2
g3
(dp368
g130
(lp369
g11
astRp370
stRp371
sS' DB02165'
p372
g1
(g2
g3
(dp373
S'P09488'
p374
g1
(g2
g3
(dp375
S'3.40.30.10'
p376
(lp377
g59
asS'PF00043'
p378
(lp379
g120
asS'1.20.1050.10'
p380
(lp381
g123
asS'PF02798'
p382
(lp383
g146
astRp384
stRp385
sS'DB04077'
p386
g1
(g2
g3
(dp387
S'Q8GR70'
p388
g1
(g2
g3
(dp389
S'PF03952'
p390
(lp391
S'P33676'
p392
asS'3.20.20.120'
p393
(lp394
g68
asS'3.30.390.10'
p395
(lp396
g71
asS'PF00113'
p397
(lp398
S'P33676'
p399
astRp400
sS'P17050'
p401
g1
(g2
g3
(dp402
S'3.20.20.70'
p403
(lp404
g11
astRp405
stRp406
sS'DB01808'
p407
g1
(g2
g3
(dp408
g194
g1
(g2
g3
(dp409
g196
(lp410
g59
astRp411
stRp412
sS'DB04594'
p413
g1
(g2
g3
(dp414
S'P35914'
p415
g1
(g2
g3
(dp416
S'3.20.20.70'
p417
(lp418
g11
astRp419
stRp420
sS' DB08006'
p421
g1
(g2
g3
(dp422
g159
g1
(g2
g3
(dp423
g161
(lp424
g11
astRp425
stRp426
sS' DB03900'
p427
g1
(g2
g3
(dp428
g241
g1
(g2
g3
(dp429
g243
(lp430
g245
astRp431
sg76
g1
(g2
g3
(dp432
g78
(lp433
g11
astRp434
stRp435
sS'DB02153'
p436
g1
(g2
g3
(dp437
g271
g1
(g2
g3
(dp438
g273
(lp439
g59
astRp440
stRp441
sS' DB04294'
p442
g1
(g2
g3
(dp443
g24
g1
(g2
g3
(dp444
g26
(lp445
g11
astRp446
stRp447
sS' DB03465'
p448
g1
(g2
g3
(dp449
S'P13929'
p450
g1
(g2
g3
(dp451
S'PF03952'
p452
(lp453
g392
asS'3.20.20.120'
p454
(lp455
g68
asS'3.30.390.10'
p456
(lp457
g71
asS'PF00113'
p458
(lp459
g399
astRp460
stRp461
sS' DB05448'
p462
g1
(g2
g3
(dp463
g55
g1
(g2
g3
(dp464
g57
(lp465
g59
astRp466
stRp467
sS' DB03461'
p468
g1
(g2
g3
(dp469
S'P42593'
p470
g1
(g2
g3
(dp471
S'3.20.20.70'
p472
(lp473
g11
astRp474
sS'P40925'
p475
g1
(g2
g3
(dp476
S'PF00056'
p477
(lp478
S'P37227'
p479
astRp480
stRp481
sS'DB03814'
p482
g1
(g2
g3
(dp483
S'P30041'
p484
g1
(g2
g3
(dp485
S'3.40.30.10'
p486
(lp487
g59
astRp488
sS'P0AEG6'
p489
g1
(g2
g3
(dp490
S'3.40.30.10'
p491
(lp492
g59
astRp493
stRp494
sS'DB00527'
p495
g1
(g2
g3
(dp496
g241
g1
(g2
g3
(dp497
g243
(lp498
g245
astRp499
stRp500
sS' DB07976'
p501
g1
(g2
g3
(dp502
g159
g1
(g2
g3
(dp503
g161
(lp504
g11
astRp505
stRp506
sS' DB04447'
p507
g1
(g2
g3
(dp508
S'O43708'
p509
g1
(g2
g3
(dp510
S'3.40.30.10'
p511
(lp512
g59
asS'PF00043'
p513
(lp514
g120
asS'1.20.1050.10'
p515
(lp516
g123
astRp517
sg76
g1
(g2
g3
(dp518
g78
(lp519
g11
astRp520
stRp521
sS'DB01677'
p522
g1
(g2
g3
(dp523
S'P80040'
p524
g1
(g2
g3
(dp525
S'PF00056'
p526
(lp527
g479
astRp528
stRp529
sS'DB01676'
p530
g1
(g2
g3
(dp531
S'P71278'
p532
g1
(g2
g3
(dp533
S'3.20.20.70'
p534
(lp535
g11
astRp536
stRp537
sS' DB07975'
p538
g1
(g2
g3
(dp539
g159
g1
(g2
g3
(dp540
g161
(lp541
g11
astRp542
stRp543
sS' DB07646'
p544
g1
(g2
g3
(dp545
g159
g1
(g2
g3
(dp546
g161
(lp547
g11
astRp548
stRp549
sS' DB04510'
p550
g1
(g2
g3
(dp551
g76
g1
(g2
g3
(dp552
g78
(lp553
g11
astRp554
sS'Q07412'
p555
g1
(g2
g3
(dp556
S'3.20.20.70'
p557
(lp558
g11
astRp559
stRp560
sS' DB04511'
p561
g1
(g2
g3
(dp562
S'Q44244'
p563
g1
(g2
g3
(dp564
S'3.20.20.120'
p565
(lp566
g68
asS'3.30.390.10'
p567
(lp568
g71
astRp569
stRp570
sS' DB04513'
p571
g1
(g2
g3
(dp572
g241
g1
(g2
g3
(dp573
g243
(lp574
g245
astRp575
stRp576
sS' DB02433'
p577
g1
(g2
g3
(dp578
g317
g1
(g2
g3
(dp579
g319
(lp580
g11
astRp581
sS'P0A716'
p582
g1
(g2
g3
(dp583
S'3.20.20.70'
p584
(lp585
g11
astRp586
stRp587
sS' DB02726'
p588
g1
(g2
g3
(dp589
g76
g1
(g2
g3
(dp590
g78
(lp591
g11
astRp592
sg450
g1
(g2
g3
(dp593
g452
(lp594
g392
asg454
(lp595
g68
asg456
(lp596
g71
asg458
(lp597
g399
astRp598
sg555
g1
(g2
g3
(dp599
g557
(lp600
g11
astRp601
sS'P0AB91'
p602
g1
(g2
g3
(dp603
S'3.20.20.70'
p604
(lp605
g11
astRp606
stRp607
sS'DB01972'
p608
g1
(g2
g3
(dp609
S'P36959'
p610
g1
(g2
g3
(dp611
S'3.20.20.70'
p612
(lp613
g11
astRp614
stRp615
sS' DB03523'
p616
g1
(g2
g3
(dp617
g159
g1
(g2
g3
(dp618
g161
(lp619
g11
astRp620
stRp621
sS' DB08790'
p622
g1
(g2
g3
(dp623
S'O60760'
p624
g1
(g2
g3
(dp625
S'3.40.30.10'
p626
(lp627
g59
asS'PF00043'
p628
(lp629
g120
asS'1.20.1050.10'
p630
(lp631
g123
asS'PF02798'
p632
(lp633
g146
astRp634
stRp635
sS' DB03480'
p636
g1
(g2
g3
(dp637
g159
g1
(g2
g3
(dp638
g161
(lp639
g11
astRp640
stRp641
sS'DB01117'
p642
g1
(g2
g3
(dp643
S'Q08210'
p644
g1
(g2
g3
(dp645
S'3.20.20.70'
p646
(lp647
g11
astRp648
stRp649
sS' DB07925'
p650
g1
(g2
g3
(dp651
g84
g1
(g2
g3
(dp652
g86
(lp653
g11
astRp654
stRp655
sS' DB04106'
p656
g1
(g2
g3
(dp657
g55
g1
(g2
g3
(dp658
g57
(lp659
g59
astRp660
stRp661
sS' DB08313'
p662
g1
(g2
g3
(dp663
g624
g1
(g2
g3
(dp664
g626
(lp665
g59
asg628
(lp666
g120
asg630
(lp667
g123
asg632
(lp668
g146
astRp669
stRp670
sS' DB00121'
p671
g1
(g2
g3
(dp672
g352
g1
(g2
g3
(dp673
g354
(lp674
g11
astRp675
stRp676
sS' DB02483'
p677
g1
(g2
g3
(dp678
S'P00338'
p679
g1
(g2
g3
(dp680
S'PF00056'
p681
(lp682
g479
astRp683
stRp684
sS' DB02868'
p685
g1
(g2
g3
(dp686
g241
g1
(g2
g3
(dp687
g243
(lp688
g245
astRp689
stRp690
sS'DB03499'
p691
g1
(g2
g3
(dp692
S'P74645'
p693
g1
(g2
g3
(dp694
S'3.40.30.10'
p695
(lp696
g59
astRp697
stRp698
sS' DB02239'
p699
g1
(g2
g3
(dp700
S'P13716'
p701
g1
(g2
g3
(dp702
S'3.20.20.70'
p703
(lp704
g11
astRp705
stRp706
sS' DB03003'
p707
g1
(g2
g3
(dp708
g202
g1
(g2
g3
(dp709
g204
(lp710
g59
asg206
(lp711
g120
asg208
(lp712
g123
asg210
(lp713
g146
astRp714
sS'Q03013'
p715
g1
(g2
g3
(dp716
S'3.40.30.10'
p717
(lp718
g59
asS'PF00043'
p719
(lp720
g120
asS'1.20.1050.10'
p721
(lp722
g123
asS'PF02798'
p723
(lp724
g146
astRp725
sS'P08263'
p726
g1
(g2
g3
(dp727
S'3.40.30.10'
p728
(lp729
g59
asS'PF00043'
p730
(lp731
g120
asS'1.20.1050.10'
p732
(lp733
g123
asS'PF02798'
p734
(lp735
g146
astRp736
stRp737
sS' DB05200'
p738
g1
(g2
g3
(dp739
S'P10253'
p740
g1
(g2
g3
(dp741
S'3.20.20.70'
p742
(lp743
g11
astRp744
stRp745
sS' DB03416'
p746
g1
(g2
g3
(dp747
g344
g1
(g2
g3
(dp748
g346
(lp749
g11
astRp750
stRp751
sS' DB03419'
p752
g1
(g2
g3
(dp753
g333
g1
(g2
g3
(dp754
g335
(lp755
g11
astRp756
stRp757
sS'DB02262'
p758
g1
(g2
g3
(dp759
S'Q53ZE5'
p760
g1
(g2
g3
(dp761
S'3.20.20.70'
p762
(lp763
g11
astRp764
stRp765
sS' DB03734'
p766
g1
(g2
g3
(dp767
S'P0AES2'
p768
g1
(g2
g3
(dp769
S'3.20.20.120'
p770
(lp771
g68
asS'3.30.390.10'
p772
(lp773
g71
astRp774
stRp775
sS' DB00753'
p776
g1
(g2
g3
(dp777
g241
g1
(g2
g3
(dp778
g243
(lp779
g245
astRp780
stRp781
sS'DB02209'
p782
g1
(g2
g3
(dp783
S'P0A794'
p784
g1
(g2
g3
(dp785
S'3.20.20.70'
p786
(lp787
g11
astRp788
stRp789
sS' DB00491'
p790
g1
(g2
g3
(dp791
g740
g1
(g2
g3
(dp792
g742
(lp793
g11
astRp794
sS'O43451'
p795
g1
(g2
g3
(dp796
S'3.20.20.70'
p797
(lp798
g11
astRp799
stRp800
sS' DB03248'
p801
g1
(g2
g3
(dp802
g317
g1
(g2
g3
(dp803
g319
(lp804
g11
astRp805
stRp806
sS'DB00995'
p807
g1
(g2
g3
(dp808
S'P30044'
p809
g1
(g2
g3
(dp810
S'3.40.30.10'
p811
(lp812
g59
astRp813
stRp814
sS' DB05428'
p815
g1
(g2
g3
(dp816
g55
g1
(g2
g3
(dp817
g57
(lp818
g59
astRp819
stRp820
sS'DB00855'
p821
g1
(g2
g3
(dp822
g701
g1
(g2
g3
(dp823
g703
(lp824
g11
astRp825
stRp826
sS' DB03247'
p827
g1
(g2
g3
(dp828
g760
g1
(g2
g3
(dp829
g762
(lp830
g11
astRp831
sg159
g1
(g2
g3
(dp832
g161
(lp833
g11
astRp834
sg333
g1
(g2
g3
(dp835
g335
(lp836
g11
astRp837
sg470
g1
(g2
g3
(dp838
g472
(lp839
g11
astRp840
sg128
g1
(g2
g3
(dp841
g130
(lp842
g11
astRp843
sS'P0A7E1'
p844
g1
(g2
g3
(dp845
S'3.20.20.70'
p846
(lp847
g11
astRp848
sg532
g1
(g2
g3
(dp849
g534
(lp850
g11
astRp851
stRp852
sS'DB02637'
p853
g1
(g2
g3
(dp854
S'Q9ZF99'
p855
g1
(g2
g3
(dp856
S'PF00056'
p857
(lp858
g479
astRp859
sg255
g1
(g2
g3
(dp860
g257
(lp861
g11
astRp862
stRp863
sS'DB08378'
p864
g1
(g2
g3
(dp865
S'P19105'
p866
g1
(g2
g3
(dp867
S'PF00036'
p868
(lp869
g245
astRp870
stRp871
sS' DB03645'
p872
g1
(g2
g3
(dp873
g450
g1
(g2
g3
(dp874
g452
(lp875
g392
asg454
(lp876
g68
asg456
(lp877
g71
asg458
(lp878
g399
astRp879
stRp880
sS'DB01709'
p881
g1
(g2
g3
(dp882
g555
g1
(g2
g3
(dp883
g557
(lp884
g11
astRp885
sg317
g1
(g2
g3
(dp886
g319
(lp887
g11
astRp888
stRp889
sS'DB01695'
p890
g1
(g2
g3
(dp891
g76
g1
(g2
g3
(dp892
g78
(lp893
g11
astRp894
stRp895
sS'DB00151'
p896
g1
(g2
g3
(dp897
S'Q16878'
p898
g1
(g2
g3
(dp899
S'PF05995'
p900
(lp901
S'Q9U8F1'
p902
astRp903
sS'Q16857'
p904
g1
(g2
g3
(dp905
S'PF05995'
p906
(lp907
g902
astRp908
stRp909
sS' DB04530'
p910
g1
(g2
g3
(dp911
S'P0ACB2'
p912
g1
(g2
g3
(dp913
S'3.20.20.70'
p914
(lp915
g11
astRp916
stRp917
sS'DB02726'
p918
g1
(g2
g3
(dp919
S'P09104'
p920
g1
(g2
g3
(dp921
S'PF03952'
p922
(lp923
g392
asS'3.20.20.120'
p924
(lp925
g68
asS'3.30.390.10'
p926
(lp927
g71
asS'PF00113'
p928
(lp929
g399
astRp930
sS'P00943'
p931
g1
(g2
g3
(dp932
S'3.20.20.70'
p933
(lp934
g11
astRp935
sS'P50921'
p936
g1
(g2
g3
(dp937
S'3.20.20.70'
p938
(lp939
g11
astRp940
stRp941
sS' DB04583'
p942
g1
(g2
g3
(dp943
g159
g1
(g2
g3
(dp944
g161
(lp945
g11
astRp946
stRp947
sS'DB05018'
p948
g1
(g2
g3
(dp949
S'P06280'
p950
g1
(g2
g3
(dp951
S'3.20.20.70'
p952
(lp953
g11
astRp954
stRp955
sS'DB00128'
p956
g1
(g2
g3
(dp957
S'Q8N142'
p958
g1
(g2
g3
(dp959
S'PF00709'
p960
(lp961
g41
ag42
asS'3.90.170.10'
p962
(lp963
g45
ag46
asS'3.40.440.10'
p964
(lp965
g49
ag50
astRp966
sS'P30520'
p967
g1
(g2
g3
(dp968
S'PF00709'
p969
(lp970
g41
ag42
asS'3.90.170.10'
p971
(lp972
g45
ag46
asS'3.40.440.10'
p973
(lp974
g49
ag50
astRp975
stRp976
sS' DB02515'
p977
g1
(g2
g3
(dp978
S'P05062'
p979
g1
(g2
g3
(dp980
S'3.20.20.70'
p981
(lp982
g11
astRp983
sg555
g1
(g2
g3
(dp984
g557
(lp985
g11
astRp986
sg784
g1
(g2
g3
(dp987
g786
(lp988
g11
astRp989
stRp990
sS' DB07907'
p991
g1
(g2
g3
(dp992
g167
g1
(g2
g3
(dp993
g169
(lp994
g11
astRp995
sg128
g1
(g2
g3
(dp996
g130
(lp997
g11
astRp998
stRp999
sS' DB02510'
p1000
g1
(g2
g3
(dp1001
S'P07814'
p1002
g1
(g2
g3
(dp1003
S'1.20.1050.10'
p1004
(lp1005
g123
astRp1006
stRp1007
sS' DB02458'
p1008
g1
(g2
g3
(dp1009
g374
g1
(g2
g3
(dp1010
g376
(lp1011
g59
asg378
(lp1012
g120
asg380
(lp1013
g123
asg382
(lp1014
g146
astRp1015
sg136
g1
(g2
g3
(dp1016
g138
(lp1017
g59
asg140
(lp1018
g120
asg142
(lp1019
g123
asg144
(lp1020
g146
astRp1021
stRp1022
sS' DB08370'
p1023
g1
(g2
g3
(dp1024
g202
g1
(g2
g3
(dp1025
g204
(lp1026
g59
asg206
(lp1027
g120
asg208
(lp1028
g123
asg210
(lp1029
g146
astRp1030
stRp1031
sS' DB02666'
p1032
g1
(g2
g3
(dp1033
g97
g1
(g2
g3
(dp1034
g99
(lp1035
g41
ag42
asg101
(lp1036
g45
ag46
asg103
(lp1037
g49
ag50
astRp1038
stRp1039
sS' DB03026'
p1040
g1
(g2
g3
(dp1041
g76
g1
(g2
g3
(dp1042
g78
(lp1043
g11
astRp1044
stRp1045
sS' DB04326'
p1046
g1
(g2
g3
(dp1047
S'P04075'
p1048
g1
(g2
g3
(dp1049
S'3.20.20.70'
p1050
(lp1051
g11
astRp1052
sg76
g1
(g2
g3
(dp1053
g78
(lp1054
g11
astRp1055
sg979
g1
(g2
g3
(dp1056
g981
(lp1057
g11
astRp1058
stRp1059
sS' DB02787'
p1060
g1
(g2
g3
(dp1061
S'Q57265'
p1062
g1
(g2
g3
(dp1063
S'3.20.20.70'
p1064
(lp1065
g11
astRp1066
stRp1067
sS' DB04733'
p1068
g1
(g2
g3
(dp1069
g1048
g1
(g2
g3
(dp1070
g1050
(lp1071
g11
astRp1072
stRp1073
sS'DB04132'
p1074
g1
(g2
g3
(dp1075
S'P0CG29'
p1076
g1
(g2
g3
(dp1077
S'3.40.30.10'
p1078
(lp1079
g59
asS'PF00043'
p1080
(lp1081
g120
asS'1.20.1050.10'
p1082
(lp1083
g123
asS'PF02798'
p1084
(lp1085
g146
astRp1086
stRp1087
sS' DB03940'
p1088
g1
(g2
g3
(dp1089
g679
g1
(g2
g3
(dp1090
g681
(lp1091
g479
astRp1092
sS'Q27743'
p1093
g1
(g2
g3
(dp1094
S'PF00056'
p1095
(lp1096
g479
astRp1097
sS'P07195'
p1098
g1
(g2
g3
(dp1099
S'PF00056'
p1100
(lp1101
g479
astRp1102
stRp1103
sS'DB04640'
p1104
g1
(g2
g3
(dp1105
S'Q8P9V9'
p1106
g1
(g2
g3
(dp1107
S'3.40.30.10'
p1108
(lp1109
g59
astRp1110
stRp1111
sS'DB02111'
p1112
g1
(g2
g3
(dp1113
g1093
g1
(g2
g3
(dp1114
g1095
(lp1115
g479
astRp1116
stRp1117
sS'DB03147'
p1118
g1
(g2
g3
(dp1119
g470
g1
(g2
g3
(dp1120
g472
(lp1121
g11
astRp1122
sS'P19480'
p1123
g1
(g2
g3
(dp1124
S'3.40.30.10'
p1125
(lp1126
g59
astRp1127
sS'P35340'
p1128
g1
(g2
g3
(dp1129
S'3.40.30.10'
p1130
(lp1131
g59
astRp1132
stRp1133
sS' DB02885'
p1134
g1
(g2
g3
(dp1135
g344
g1
(g2
g3
(dp1136
g346
(lp1137
g11
astRp1138
stRp1139
sS'DB00491'
p1140
g1
(g2
g3
(dp1141
S'Q14697'
p1142
g1
(g2
g3
(dp1143
S'3.20.20.70'
p1144
(lp1145
g11
astRp1146
sS'Q8TET4'
p1147
g1
(g2
g3
(dp1148
S'3.20.20.70'
p1149
(lp1150
g11
astRp1151
stRp1152
sS' DB01242'
p1153
g1
(g2
g3
(dp1154
g202
g1
(g2
g3
(dp1155
g204
(lp1156
g59
asg206
(lp1157
g120
asg208
(lp1158
g123
asg210
(lp1159
g146
astRp1160
stRp1161
sS' DB01244'
p1162
g1
(g2
g3
(dp1163
g241
g1
(g2
g3
(dp1164
g243
(lp1165
g245
astRp1166
stRp1167
sS'DB04566'
p1168
g1
(g2
g3
(dp1169
S'P0C0H6'
p1170
g1
(g2
g3
(dp1171
S'3.20.20.70'
p1172
(lp1173
g11
astRp1174
stRp1175
sS' DB04456'
p1176
g1
(g2
g3
(dp1177
g194
g1
(g2
g3
(dp1178
g196
(lp1179
g59
astRp1180
stRp1181
sS' DB03793'
p1182
g1
(g2
g3
(dp1183
g809
g1
(g2
g3
(dp1184
g811
(lp1185
g59
astRp1186
stRp1187
sS'DB02260'
p1188
g1
(g2
g3
(dp1189
g912
g1
(g2
g3
(dp1190
g914
(lp1191
g11
astRp1192
stRp1193
sS'DB08657'
p1194
g1
(g2
g3
(dp1195
S'Q9FBC5'
p1196
g1
(g2
g3
(dp1197
S'3.20.20.70'
p1198
(lp1199
g11
astRp1200
stRp1201
sS'DB03746'
p1202
g1
(g2
g3
(dp1203
S'P24670'
p1204
g1
(g2
g3
(dp1205
S'3.20.20.70'
p1206
(lp1207
g11
astRp1208
stRp1209
sS' DB08172'
p1210
g1
(g2
g3
(dp1211
g159
g1
(g2
g3
(dp1212
g161
(lp1213
g11
astRp1214
stRp1215
sS' DB03113'
p1216
g1
(g2
g3
(dp1217
g582
g1
(g2
g3
(dp1218
g584
(lp1219
g11
astRp1220
stRp1221
sS' DB04553'
p1222
g1
(g2
g3
(dp1223
g255
g1
(g2
g3
(dp1224
g257
(lp1225
g11
astRp1226
stRp1227
sS'DB00148'
p1228
g1
(g2
g3
(dp1229
S'P06732'
p1230
g1
(g2
g3
(dp1231
S'PF00217'
p1232
(lp1233
S'P16641'
p1234
asS'PF02807'
p1235
(lp1236
S'P16641'
p1237
asS'1.10.135.10'
p1238
(lp1239
S'P16641'
p1240
astRp1241
sS'P17540'
p1242
g1
(g2
g3
(dp1243
S'PF00217'
p1244
(lp1245
g1234
asS'PF02807'
p1246
(lp1247
g1237
asS'1.10.135.10'
p1248
(lp1249
g1240
astRp1250
sS'P12277'
p1251
g1
(g2
g3
(dp1252
S'PF00217'
p1253
(lp1254
g1234
asS'PF02807'
p1255
(lp1256
g1237
asS'1.10.135.10'
p1257
(lp1258
g1240
astRp1259
sS'P12532'
p1260
g1
(g2
g3
(dp1261
S'PF00217'
p1262
(lp1263
g1234
asS'PF02807'
p1264
(lp1265
g1237
asS'1.10.135.10'
p1266
(lp1267
g1240
astRp1268
stRp1269
sS' DB01923'
p1270
g1
(g2
g3
(dp1271
S'P39304'
p1272
g1
(g2
g3
(dp1273
S'3.20.20.70'
p1274
(lp1275
g11
astRp1276
stRp1277
sS'DB00142'
p1278
g1
(g2
g3
(dp1279
g1002
g1
(g2
g3
(dp1280
g1004
(lp1281
g123
astRp1282
stRp1283
sS'DB00143'
p1284
g1
(g2
g3
(dp1285
S'Q7RTV2'
p1286
g1
(g2
g3
(dp1287
S'3.40.30.10'
p1288
(lp1289
g59
asS'PF00043'
p1290
(lp1291
g120
asS'1.20.1050.10'
p1292
(lp1293
g123
asS'PF02798'
p1294
(lp1295
g146
astRp1296
sS'Q9H4Y5'
p1297
g1
(g2
g3
(dp1298
S'3.40.30.10'
p1299
(lp1300
g59
asS'1.20.1050.10'
p1301
(lp1302
g123
astRp1303
sS'O95881'
p1304
g1
(g2
g3
(dp1305
S'3.40.30.10'
p1306
(lp1307
g59
astRp1308
sS'Q9NS18'
p1309
g1
(g2
g3
(dp1310
S'3.40.30.10'
p1311
(lp1312
g59
astRp1313
sS'P35754'
p1314
g1
(g2
g3
(dp1315
S'3.40.30.10'
p1316
(lp1317
g59
astRp1318
sS'P46439'
p1319
g1
(g2
g3
(dp1320
S'3.40.30.10'
p1321
(lp1322
g59
asS'PF00043'
p1323
(lp1324
g120
asS'1.20.1050.10'
p1325
(lp1326
g123
asS'PF02798'
p1327
(lp1328
g146
astRp1329
sS'P78417'
p1330
g1
(g2
g3
(dp1331
S'3.40.30.10'
p1332
(lp1333
g59
asS'PF00043'
p1334
(lp1335
g120
asS'1.20.1050.10'
p1336
(lp1337
g123
astRp1338
sg374
g1
(g2
g3
(dp1339
g376
(lp1340
g59
asg378
(lp1341
g120
asg380
(lp1342
g123
asg382
(lp1343
g146
astRp1344
sS'P21266'
p1345
g1
(g2
g3
(dp1346
S'3.40.30.10'
p1347
(lp1348
g59
asS'PF00043'
p1349
(lp1350
g120
asS'1.20.1050.10'
p1351
(lp1352
g123
asS'PF02798'
p1353
(lp1354
g146
astRp1355
sS'Q96SL4'
p1356
g1
(g2
g3
(dp1357
S'3.40.30.10'
p1358
(lp1359
g59
astRp1360
sg202
g1
(g2
g3
(dp1361
g204
(lp1362
g59
asg206
(lp1363
g120
asg208
(lp1364
g123
asg210
(lp1365
g146
astRp1366
sS'P30711'
p1367
g1
(g2
g3
(dp1368
S'3.40.30.10'
p1369
(lp1370
g59
asS'PF00043'
p1371
(lp1372
g120
asS'1.20.1050.10'
p1373
(lp1374
g123
asS'PF02798'
p1375
(lp1376
g146
astRp1377
sg151
g1
(g2
g3
(dp1378
g153
(lp1379
g59
astRp1380
sS'O75715'
p1381
g1
(g2
g3
(dp1382
S'3.40.30.10'
p1383
(lp1384
g59
astRp1385
sS'P22352'
p1386
g1
(g2
g3
(dp1387
S'3.40.30.10'
p1388
(lp1389
g59
astRp1390
sg726
g1
(g2
g3
(dp1391
g728
(lp1392
g59
asg730
(lp1393
g120
asg732
(lp1394
g123
asg734
(lp1395
g146
astRp1396
sS'P59796'
p1397
g1
(g2
g3
(dp1398
S'3.40.30.10'
p1399
(lp1400
g59
astRp1401
sS'P18283'
p1402
g1
(g2
g3
(dp1403
S'3.40.30.10'
p1404
(lp1405
g59
astRp1406
sS'P36969'
p1407
g1
(g2
g3
(dp1408
S'3.40.30.10'
p1409
(lp1410
g59
astRp1411
sg624
g1
(g2
g3
(dp1412
g626
(lp1413
g59
asg628
(lp1414
g120
asg630
(lp1415
g123
asg632
(lp1416
g146
astRp1417
sS'Q8TED1'
p1418
g1
(g2
g3
(dp1419
S'3.40.30.10'
p1420
(lp1421
g59
astRp1422
sS'P07203'
p1423
g1
(g2
g3
(dp1424
S'3.40.30.10'
p1425
(lp1426
g59
astRp1427
sS'Q16772'
p1428
g1
(g2
g3
(dp1429
S'3.40.30.10'
p1430
(lp1431
g59
asS'PF00043'
p1432
(lp1433
g120
asS'1.20.1050.10'
p1434
(lp1435
g123
asS'PF02798'
p1436
(lp1437
g146
astRp1438
sS'Q6NSD4'
p1439
g1
(g2
g3
(dp1440
S'3.40.30.10'
p1441
(lp1442
g59
astRp1443
sg136
g1
(g2
g3
(dp1444
g138
(lp1445
g59
asg140
(lp1446
g120
asg142
(lp1447
g123
asg144
(lp1448
g146
astRp1449
sg715
g1
(g2
g3
(dp1450
g717
(lp1451
g59
asg719
(lp1452
g120
asg721
(lp1453
g123
asg723
(lp1454
g146
astRp1455
sS'P09210'
p1456
g1
(g2
g3
(dp1457
S'3.40.30.10'
p1458
(lp1459
g59
asS'PF00043'
p1460
(lp1461
g120
asS'1.20.1050.10'
p1462
(lp1463
g123
asS'PF02798'
p1464
(lp1465
g146
astRp1466
sS'O15217'
p1467
g1
(g2
g3
(dp1468
S'3.40.30.10'
p1469
(lp1470
g59
asS'PF00043'
p1471
(lp1472
g120
asS'1.20.1050.10'
p1473
(lp1474
g123
asS'PF02798'
p1475
(lp1476
g146
astRp1477
sg509
g1
(g2
g3
(dp1478
g511
(lp1479
g59
asg513
(lp1480
g120
asg515
(lp1481
g123
astRp1482
stRp1483
sS'DB01788'
p1484
g1
(g2
g3
(dp1485
g344
g1
(g2
g3
(dp1486
g346
(lp1487
g11
astRp1488
stRp1489
sS'DB03212'
p1490
g1
(g2
g3
(dp1491
g768
g1
(g2
g3
(dp1492
g770
(lp1493
g68
asg772
(lp1494
g71
astRp1495
stRp1496
sS' DB02828'
p1497
g1
(g2
g3
(dp1498
S'Q59643'
p1499
g1
(g2
g3
(dp1500
S'3.20.20.70'
p1501
(lp1502
g11
astRp1503
stRp1504
sS' DB03706'
p1505
g1
(g2
g3
(dp1506
g715
g1
(g2
g3
(dp1507
g717
(lp1508
g59
asg719
(lp1509
g120
asg721
(lp1510
g123
asg723
(lp1511
g146
astRp1512
stRp1513
sS' DB06979'
p1514
g1
(g2
g3
(dp1515
g128
g1
(g2
g3
(dp1516
g130
(lp1517
g11
astRp1518
stRp1519
sS' DB03597'
p1520
g1
(g2
g3
(dp1521
g715
g1
(g2
g3
(dp1522
g717
(lp1523
g59
asg719
(lp1524
g120
asg721
(lp1525
g123
asg723
(lp1526
g146
astRp1527
stRp1528
sS' DB02109'
p1529
g1
(g2
g3
(dp1530
g958
g1
(g2
g3
(dp1531
g960
(lp1532
g41
ag42
asg962
(lp1533
g45
ag46
asg964
(lp1534
g49
ag50
astRp1535
stRp1536
sS' DB03352'
p1537
g1
(g2
g3
(dp1538
g194
g1
(g2
g3
(dp1539
g196
(lp1540
g59
astRp1541
stRp1542
sS' DB07773'
p1543
g1
(g2
g3
(dp1544
g84
g1
(g2
g3
(dp1545
g86
(lp1546
g11
astRp1547
stRp1548
sS' DB03299'
p1549
g1
(g2
g3
(dp1550
g563
g1
(g2
g3
(dp1551
g565
(lp1552
g68
asg567
(lp1553
g71
astRp1554
stRp1555
sS' DB03357'
p1556
g1
(g2
g3
(dp1557
g64
g1
(g2
g3
(dp1558
g66
(lp1559
g68
asg69
(lp1560
g71
astRp1561
stRp1562
sS' DB02272'
p1563
g1
(g2
g3
(dp1564
g701
g1
(g2
g3
(dp1565
g703
(lp1566
g11
astRp1567
stRp1568
sS' DB02279'
p1569
g1
(g2
g3
(dp1570
g128
g1
(g2
g3
(dp1571
g130
(lp1572
g11
astRp1573
stRp1574
sS' DB02382'
p1575
g1
(g2
g3
(dp1576
g24
g1
(g2
g3
(dp1577
g26
(lp1578
g11
astRp1579
stRp1580
sS'DB01169'
p1581
g1
(g2
g3
(dp1582
g55
g1
(g2
g3
(dp1583
g57
(lp1584
g59
astRp1585
stRp1586
sS' DB02401'
p1587
g1
(g2
g3
(dp1588
g1093
g1
(g2
g3
(dp1589
g1095
(lp1590
g479
astRp1591
sg1098
g1
(g2
g3
(dp1592
g1100
(lp1593
g479
astRp1594
stRp1595
sS' DB03805'
p1596
g1
(g2
g3
(dp1597
g159
g1
(g2
g3
(dp1598
g161
(lp1599
g11
astRp1600
stRp1601
sS' DB04972'
p1602
g1
(g2
g3
(dp1603
g202
g1
(g2
g3
(dp1604
g204
(lp1605
g59
asg206
(lp1606
g120
asg208
(lp1607
g123
asg210
(lp1608
g146
astRp1609
stRp1610
sS'DB01646'
p1611
g1
(g2
g3
(dp1612
g563
g1
(g2
g3
(dp1613
g565
(lp1614
g68
asg567
(lp1615
g71
astRp1616
stRp1617
sS' DB04878'
p1618
g1
(g2
g3
(dp1619
g795
g1
(g2
g3
(dp1620
g797
(lp1621
g11
astRp1622
stRp1623
sS' DB00622'
p1624
g1
(g2
g3
(dp1625
g241
g1
(g2
g3
(dp1626
g243
(lp1627
g245
astRp1628
stRp1629
sS' DB07978'
p1630
g1
(g2
g3
(dp1631
g159
g1
(g2
g3
(dp1632
g161
(lp1633
g11
astRp1634
stRp1635
sS' DB04077'
p1636
g1
(g2
g3
(dp1637
g624
g1
(g2
g3
(dp1638
g626
(lp1639
g59
asg628
(lp1640
g120
asg630
(lp1641
g123
asg632
(lp1642
g146
astRp1643
sg202
g1
(g2
g3
(dp1644
g204
(lp1645
g59
asg206
(lp1646
g120
asg208
(lp1647
g123
asg210
(lp1648
g146
astRp1649
stRp1650
sS'DB04464'
p1651
g1
(g2
g3
(dp1652
S'P29377'
p1653
g1
(g2
g3
(dp1654
S'PF00036'
p1655
(lp1656
g245
astRp1657
stRp1658
sS' DB07977'
p1659
g1
(g2
g3
(dp1660
g159
g1
(g2
g3
(dp1661
g161
(lp1662
g11
astRp1663
stRp1664
sS'DB01942'
p1665
g1
(g2
g3
(dp1666
g844
g1
(g2
g3
(dp1667
g846
(lp1668
g11
astRp1669
sS'Q8MU52'
p1670
g1
(g2
g3
(dp1671
S'3.40.30.10'
p1672
(lp1673
g59
asS'1.20.1050.10'
p1674
(lp1675
g123
asS'PF02798'
p1676
(lp1677
g146
astRp1678
sg1499
g1
(g2
g3
(dp1679
g1501
(lp1680
g11
astRp1681
stRp1682
sS' DB07782'
p1683
g1
(g2
g3
(dp1684
g344
g1
(g2
g3
(dp1685
g346
(lp1686
g11
astRp1687
stRp1688
sS' DB02053'
p1689
g1
(g2
g3
(dp1690
g317
g1
(g2
g3
(dp1691
g319
(lp1692
g11
astRp1693
stRp1694
sS' DB01069'
p1695
g1
(g2
g3
(dp1696
g241
g1
(g2
g3
(dp1697
g243
(lp1698
g245
astRp1699
stRp1700
sS' DB01100'
p1701
g1
(g2
g3
(dp1702
g241
g1
(g2
g3
(dp1703
g243
(lp1704
g245
astRp1705
stRp1706
sS' DB07373'
p1707
g1
(g2
g3
(dp1708
g532
g1
(g2
g3
(dp1709
g534
(lp1710
g11
astRp1711
stRp1712
sS'DB07497'
p1713
g1
(g2
g3
(dp1714
S'Q99UY8'
p1715
g1
(g2
g3
(dp1716
S'3.20.20.70'
p1717
(lp1718
g11
astRp1719
stRp1720
sS' DB01065'
p1721
g1
(g2
g3
(dp1722
g241
g1
(g2
g3
(dp1723
g243
(lp1724
g245
astRp1725
stRp1726
sS' DB03686'
p1727
g1
(g2
g3
(dp1728
g202
g1
(g2
g3
(dp1729
g204
(lp1730
g59
asg206
(lp1731
g120
asg208
(lp1732
g123
asg210
(lp1733
g146
astRp1734
stRp1735
sS' DB04272'
p1736
g1
(g2
g3
(dp1737
g89
g1
(g2
g3
(dp1738
g91
(lp1739
g11
astRp1740
sS'P40926'
p1741
g1
(g2
g3
(dp1742
S'PF00056'
p1743
(lp1744
g479
astRp1745
stRp1746
sS'DB07752'
p1747
g1
(g2
g3
(dp1748
S'P20941'
p1749
g1
(g2
g3
(dp1750
S'3.40.30.10'
p1751
(lp1752
g59
astRp1753
stRp1754
sS' DB04374'
p1755
g1
(g2
g3
(dp1756
g128
g1
(g2
g3
(dp1757
g130
(lp1758
g11
astRp1759
stRp1760
sS' DB03602'
p1761
g1
(g2
g3
(dp1762
g726
g1
(g2
g3
(dp1763
g728
(lp1764
g59
asg730
(lp1765
g120
asg732
(lp1766
g123
asg734
(lp1767
g146
astRp1768
stRp1769
sS'DB02890'
p1770
g1
(g2
g3
(dp1771
S'P11172'
p1772
g1
(g2
g3
(dp1773
S'3.20.20.70'
p1774
(lp1775
g11
astRp1776
sg233
g1
(g2
g3
(dp1777
g235
(lp1778
g11
astRp1779
stRp1780
sS'DB04560'
p1781
g1
(g2
g3
(dp1782
S'Q59334'
p1783
g1
(g2
g3
(dp1784
S'3.20.20.70'
p1785
(lp1786
g11
astRp1787
stRp1788
sS'DB01819'
p1789
g1
(g2
g3
(dp1790
g1062
g1
(g2
g3
(dp1791
g1064
(lp1792
g11
astRp1793
sg602
g1
(g2
g3
(dp1794
g604
(lp1795
g11
astRp1796
sS'Q9WYH8'
p1797
g1
(g2
g3
(dp1798
S'3.20.20.70'
p1799
(lp1800
g11
astRp1801
sg450
g1
(g2
g3
(dp1802
g452
(lp1803
g392
asg454
(lp1804
g68
asg456
(lp1805
g71
asg458
(lp1806
g399
astRp1807
sg582
g1
(g2
g3
(dp1808
g584
(lp1809
g11
astRp1810
stRp1811
sS'DB01815'
p1812
g1
(g2
g3
(dp1813
S'P0A872'
p1814
g1
(g2
g3
(dp1815
S'3.20.20.70'
p1816
(lp1817
g11
astRp1818
stRp1819
sS' DB05125'
p1820
g1
(g2
g3
(dp1821
g159
g1
(g2
g3
(dp1822
g161
(lp1823
g11
astRp1824
stRp1825
sS'DB02764'
p1826
g1
(g2
g3
(dp1827
S'P52270'
p1828
g1
(g2
g3
(dp1829
S'3.20.20.70'
p1830
(lp1831
g11
astRp1832
stRp1833
sS' DB03937'
p1834
g1
(g2
g3
(dp1835
g1797
g1
(g2
g3
(dp1836
g1799
(lp1837
g11
astRp1838
sg317
g1
(g2
g3
(dp1839
g319
(lp1840
g11
astRp1841
stRp1842
sS' DB03936'
p1843
g1
(g2
g3
(dp1844
g582
g1
(g2
g3
(dp1845
g584
(lp1846
g11
astRp1847
stRp1848
sS'DB02164'
p1849
g1
(g2
g3
(dp1850
g128
g1
(g2
g3
(dp1851
g130
(lp1852
g11
astRp1853
stRp1854
sS' DB00623'
p1855
g1
(g2
g3
(dp1856
g241
g1
(g2
g3
(dp1857
g243
(lp1858
g245
astRp1859
stRp1860
sS' DB07559'
p1861
g1
(g2
g3
(dp1862
g159
g1
(g2
g3
(dp1863
g161
(lp1864
g11
astRp1865
stRp1866
sS'DB02482'
p1867
g1
(g2
g3
(dp1868
S'P31949'
p1869
g1
(g2
g3
(dp1870
S'PF00036'
p1871
(lp1872
g245
astRp1873
stRp1874
sS' DB08039'
p1875
g1
(g2
g3
(dp1876
g241
g1
(g2
g3
(dp1877
g243
(lp1878
g245
astRp1879
stRp1880
sS' DB03379'
p1881
g1
(g2
g3
(dp1882
g76
g1
(g2
g3
(dp1883
g78
(lp1884
g11
astRp1885
stRp1886
sS' DB00747'
p1887
g1
(g2
g3
(dp1888
S'P14410'
p1889
g1
(g2
g3
(dp1890
S'3.20.20.70'
p1891
(lp1892
g11
astRp1893
stRp1894
sS' DB02254'
p1895
g1
(g2
g3
(dp1896
g344
g1
(g2
g3
(dp1897
g346
(lp1898
g11
astRp1899
stRp1900
sS' DB02251'
p1901
g1
(g2
g3
(dp1902
g563
g1
(g2
g3
(dp1903
g565
(lp1904
g68
asg567
(lp1905
g71
astRp1906
stRp1907
sS'DB03940'
p1908
g1
(g2
g3
(dp1909
S'P16115'
p1910
g1
(g2
g3
(dp1911
S'PF00056'
p1912
(lp1913
g479
astRp1914
stRp1915
sS' DB03376'
p1916
g1
(g2
g3
(dp1917
g1002
g1
(g2
g3
(dp1918
g1004
(lp1919
g123
astRp1920
stRp1921
sS'DB08689'
p1922
g1
(g2
g3
(dp1923
S'P0AEG4'
p1924
g1
(g2
g3
(dp1925
S'3.40.30.10'
p1926
(lp1927
g59
astRp1928
stRp1929
sS' DB02490'
p1930
g1
(g2
g3
(dp1931
g1230
g1
(g2
g3
(dp1932
g1232
(lp1933
g1234
asg1235
(lp1934
g1237
asg1238
(lp1935
g1240
astRp1936
stRp1937
sS' DB03775'
p1938
g1
(g2
g3
(dp1939
S'P12996'
p1940
g1
(g2
g3
(dp1941
S'3.20.20.70'
p1942
(lp1943
g11
asS'PF04055'
p1944
(lp1945
S'C4PZQ3'
p1946
astRp1947
stRp1948
sS' DB01897'
p1949
g1
(g2
g3
(dp1950
g624
g1
(g2
g3
(dp1951
g626
(lp1952
g59
asg628
(lp1953
g120
asg630
(lp1954
g123
asg632
(lp1955
g146
astRp1956
stRp1957
sS' DB02992'
p1958
g1
(g2
g3
(dp1959
g317
g1
(g2
g3
(dp1960
g319
(lp1961
g11
astRp1962
stRp1963
sS' DB03499'
p1964
g1
(g2
g3
(dp1965
g1062
g1
(g2
g3
(dp1966
g1064
(lp1967
g11
astRp1968
stRp1969
sS' DB04566'
p1970
g1
(g2
g3
(dp1971
g97
g1
(g2
g3
(dp1972
g99
(lp1973
g41
ag42
asg101
(lp1974
g45
ag46
asg103
(lp1975
g49
ag50
astRp1976
sg958
g1
(g2
g3
(dp1977
g960
(lp1978
g41
ag42
asg962
(lp1979
g45
ag46
asg964
(lp1980
g49
ag50
astRp1981
sg37
g1
(g2
g3
(dp1982
g39
(lp1983
g41
ag42
asg43
(lp1984
g45
ag46
asg47
(lp1985
g49
ag50
astRp1986
stRp1987
sS' DB03554'
p1988
g1
(g2
g3
(dp1989
g333
g1
(g2
g3
(dp1990
g335
(lp1991
g11
astRp1992
stRp1993
sS'DB00119'
p1994
g1
(g2
g3
(dp1995
g352
g1
(g2
g3
(dp1996
g354
(lp1997
g11
astRp1998
stRp1999
sS' DB04560'
p2000
g1
(g2
g3
(dp2001
g912
g1
(g2
g3
(dp2002
g914
(lp2003
g11
astRp2004
sg701
g1
(g2
g3
(dp2005
g703
(lp2006
g11
astRp2007
stRp2008
sS' DB07951'
p2009
g1
(g2
g3
(dp2010
g84
g1
(g2
g3
(dp2011
g86
(lp2012
g11
astRp2013
stRp2014
sS' DB07953'
p2015
g1
(g2
g3
(dp2016
g84
g1
(g2
g3
(dp2017
g86
(lp2018
g11
astRp2019
stRp2020
sS'DB00284'
p2021
g1
(g2
g3
(dp2022
g1889
g1
(g2
g3
(dp2023
g1891
(lp2024
g11
astRp2025
sg740
g1
(g2
g3
(dp2026
g742
(lp2027
g11
astRp2028
sg795
g1
(g2
g3
(dp2029
g797
(lp2030
g11
astRp2031
stRp2032
sS' DB08240'
p2033
g1
(g2
g3
(dp2034
g1048
g1
(g2
g3
(dp2035
g1050
(lp2036
g11
astRp2037
stRp2038
sS'DB04510'
p2039
g1
(g2
g3
(dp2040
S'P36204'
p2041
g1
(g2
g3
(dp2042
S'3.20.20.70'
p2043
(lp2044
g11
astRp2045
stRp2046
sS' DB07890'
p2047
g1
(g2
g3
(dp2048
g84
g1
(g2
g3
(dp2049
g86
(lp2050
g11
astRp2051
stRp2052
sS'DB02303'
p2053
g1
(g2
g3
(dp2054
g333
g1
(g2
g3
(dp2055
g335
(lp2056
g11
astRp2057
stRp2058
sS' DB07894'
p2059
g1
(g2
g3
(dp2060
g84
g1
(g2
g3
(dp2061
g86
(lp2062
g11
astRp2063
stRp2064
sS' DB08249'
p2065
g1
(g2
g3
(dp2066
g159
g1
(g2
g3
(dp2067
g161
(lp2068
g11
astRp2069
stRp2070
sS'DB04447'
p2071
g1
(g2
g3
(dp2072
S'P65389'
p2073
g1
(g2
g3
(dp2074
S'3.20.20.70'
p2075
(lp2076
g11
asS'PF04055'
p2077
(lp2078
g1946
astRp2079
stRp2080
sS'DB03543'
p2081
g1
(g2
g3
(dp2082
S'Q56320'
p2083
g1
(g2
g3
(dp2084
S'3.20.20.70'
p2085
(lp2086
g11
astRp2087
sS'P00909'
p2088
g1
(g2
g3
(dp2089
S'3.20.20.70'
p2090
(lp2091
g11
astRp2092
stRp2093
sS'DB02580'
p2094
g1
(g2
g3
(dp2095
S'Q8ZIV7'
p2096
g1
(g2
g3
(dp2097
S'PF00709'
p2098
(lp2099
g41
ag42
asS'3.90.170.10'
p2100
(lp2101
g45
ag46
asS'3.40.440.10'
p2102
(lp2103
g49
ag50
astRp2104
sS'Q87MW5'
p2105
g1
(g2
g3
(dp2106
S'3.40.30.10'
p2107
(lp2108
g59
astRp2109
stRp2110
sS'DB03661'
p2111
g1
(g2
g3
(dp2112
S'Q5MYR6'
p2113
g1
(g2
g3
(dp2114
S'3.40.30.10'
p2115
(lp2116
g59
astRp2117
sS'Q05514'
p2118
g1
(g2
g3
(dp2119
S'3.20.20.120'
p2120
(lp2121
g68
asS'3.30.390.10'
p2122
(lp2123
g71
astRp2124
stRp2125
sS' DB01779'
p2126
g1
(g2
g3
(dp2127
g555
g1
(g2
g3
(dp2128
g557
(lp2129
g11
astRp2130
stRp2131
sS' DB00925'
p2132
g1
(g2
g3
(dp2133
g241
g1
(g2
g3
(dp2134
g243
(lp2135
g245
astRp2136
stRp2137
sS' DB02493'
p2138
g1
(g2
g3
(dp2139
g97
g1
(g2
g3
(dp2140
g99
(lp2141
g41
ag42
asg101
(lp2142
g45
ag46
asg103
(lp2143
g49
ag50
astRp2144
stRp2145
sS'DB04167'
p2146
g1
(g2
g3
(dp2147
S'Q9RYA6'
p2148
g1
(g2
g3
(dp2149
S'3.20.20.120'
p2150
(lp2151
g68
asS'3.30.390.10'
p2152
(lp2153
g71
astRp2154
stRp2155
sS' DB08637'
p2156
g1
(g2
g3
(dp2157
g186
g1
(g2
g3
(dp2158
g188
(lp2159
g59
astRp2160
stRp2161
sS'DB00161'
p2162
g1
(g2
g3
(dp2163
S'P26640'
p2164
g1
(g2
g3
(dp2165
S'PF00043'
p2166
(lp2167
g120
asS'1.20.1050.10'
p2168
(lp2169
g123
asS'PF02798'
p2170
(lp2171
g146
astRp2172
stRp2173
sS'DB00166'
p2174
g1
(g2
g3
(dp2175
S'O43766'
p2176
g1
(g2
g3
(dp2177
S'3.20.20.70'
p2178
(lp2179
g11
asS'PF04055'
p2180
(lp2181
g1946
astRp2182
stRp2183
sS' DB02496'
p2184
g1
(g2
g3
(dp2185
g784
g1
(g2
g3
(dp2186
g786
(lp2187
g11
astRp2188
stRp2189
sS' DB08880'
p2190
g1
(g2
g3
(dp2191
g159
g1
(g2
g3
(dp2192
g161
(lp2193
g11
astRp2194
stRp2195
sS' DB00850'
p2196
g1
(g2
g3
(dp2197
g241
g1
(g2
g3
(dp2198
g243
(lp2199
g245
astRp2200
stRp2201
sS' DB02633'
p2202
g1
(g2
g3
(dp2203
g202
g1
(g2
g3
(dp2204
g204
(lp2205
g59
asg206
(lp2206
g120
asg208
(lp2207
g123
asg210
(lp2208
g146
astRp2209
stRp2210
sS' DB02486'
p2211
g1
(g2
g3
(dp2212
g726
g1
(g2
g3
(dp2213
g728
(lp2214
g59
asg730
(lp2215
g120
asg732
(lp2216
g123
asg734
(lp2217
g146
astRp2218
stRp2219
sS' DB02630'
p2220
g1
(g2
g3
(dp2221
g1272
g1
(g2
g3
(dp2222
g1274
(lp2223
g11
astRp2224
stRp2225
sS' DB04825'
p2226
g1
(g2
g3
(dp2227
g241
g1
(g2
g3
(dp2228
g243
(lp2229
g245
astRp2230
stRp2231
sS' DB03855'
p2232
g1
(g2
g3
(dp2233
g1272
g1
(g2
g3
(dp2234
g1274
(lp2235
g11
astRp2236
stRp2237
sS'DB04347'
p2238
g1
(g2
g3
(dp2239
S'Q6GII7'
p2240
g1
(g2
g3
(dp2241
S'3.20.20.70'
p2242
(lp2243
g11
astRp2244
stRp2245
sS'DB03003'
p2246
g1
(g2
g3
(dp2247
S'P0A9D2'
p2248
g1
(g2
g3
(dp2249
S'3.40.30.10'
p2250
(lp2251
g59
asS'PF00043'
p2252
(lp2253
g120
asS'1.20.1050.10'
p2254
(lp2255
g123
astRp2256
stRp2257
sS' DB02338'
p2258
g1
(g2
g3
(dp2259
g333
g1
(g2
g3
(dp2260
g335
(lp2261
g11
astRp2262
sg55
g1
(g2
g3
(dp2263
g57
(lp2264
g59
astRp2265
stRp2266
sS' DB04027'
p2267
g1
(g2
g3
(dp2268
g1230
g1
(g2
g3
(dp2269
g1232
(lp2270
g1234
asg1235
(lp2271
g1237
asg1238
(lp2272
g1240
astRp2273
stRp2274
sS' DB04034'
p2275
g1
(g2
g3
(dp2276
g1272
g1
(g2
g3
(dp2277
g1274
(lp2278
g11
astRp2279
stRp2280
sS' DB04455'
p2281
g1
(g2
g3
(dp2282
g693
g1
(g2
g3
(dp2283
g695
(lp2284
g59
astRp2285
stRp2286
sS' DB03310'
p2287
g1
(g2
g3
(dp2288
g136
g1
(g2
g3
(dp2289
g138
(lp2290
g59
asg140
(lp2291
g120
asg142
(lp2292
g123
asg144
(lp2293
g146
astRp2294
stRp2295
sS' DB04187'
p2296
g1
(g2
g3
(dp2297
g374
g1
(g2
g3
(dp2298
g376
(lp2299
g59
asg378
(lp2300
g120
asg380
(lp2301
g123
asg382
(lp2302
g146
astRp2303
stRp2304
sS' DB02701'
p2305
g1
(g2
g3
(dp2306
g679
g1
(g2
g3
(dp2307
g681
(lp2308
g479
astRp2309
stRp2310
sS' DB03651'
p2311
g1
(g2
g3
(dp2312
g532
g1
(g2
g3
(dp2313
g534
(lp2314
g11
astRp2315
stRp2316
sS'DB03247'
p2317
g1
(g2
g3
(dp2318
S'P16099'
p2319
g1
(g2
g3
(dp2320
S'3.20.20.70'
p2321
(lp2322
g11
astRp2323
sS'P55038'
p2324
g1
(g2
g3
(dp2325
S'3.20.20.70'
p2326
(lp2327
g11
astRp2328
sS'Q746I8'
p2329
g1
(g2
g3
(dp2330
S'3.20.20.70'
p2331
(lp2332
g11
astRp2333
sS'P50740'
p2334
g1
(g2
g3
(dp2335
S'3.20.20.70'
p2336
(lp2337
g11
astRp2338
sS'Q9WXV1'
p2339
g1
(g2
g3
(dp2340
S'3.20.20.70'
p2341
(lp2342
g11
astRp2343
sS'Q9NYQ3'
p2344
g1
(g2
g3
(dp2345
S'3.20.20.70'
p2346
(lp2347
g11
astRp2348
sS'Q51990'
p2349
g1
(g2
g3
(dp2350
S'3.20.20.70'
p2351
(lp2352
g11
astRp2353
sg167
g1
(g2
g3
(dp2354
g169
(lp2355
g11
astRp2356
stRp2357
sS'DB02280'
p2358
g1
(g2
g3
(dp2359
g64
g1
(g2
g3
(dp2360
g66
(lp2361
g68
asg69
(lp2362
g71
astRp2363
stRp2364
sS' DB08008'
p2365
g1
(g2
g3
(dp2366
g159
g1
(g2
g3
(dp2367
g161
(lp2368
g11
astRp2369
stRp2370
sS' DB04132'
p2371
g1
(g2
g3
(dp2372
g202
g1
(g2
g3
(dp2373
g204
(lp2374
g59
asg206
(lp2375
g120
asg208
(lp2376
g123
asg210
(lp2377
g146
astRp2378
sg715
g1
(g2
g3
(dp2379
g717
(lp2380
g59
asg719
(lp2381
g120
asg721
(lp2382
g123
asg723
(lp2383
g146
astRp2384
sg726
g1
(g2
g3
(dp2385
g728
(lp2386
g59
asg730
(lp2387
g120
asg732
(lp2388
g123
asg734
(lp2389
g146
astRp2390
sg1670
g1
(g2
g3
(dp2391
g1672
(lp2392
g59
asg1674
(lp2393
g123
asg1676
(lp2394
g146
astRp2395
stRp2396
sS' DB04137'
p2397
g1
(g2
g3
(dp2398
g958
g1
(g2
g3
(dp2399
g960
(lp2400
g41
ag42
asg962
(lp2401
g45
ag46
asg964
(lp2402
g49
ag50
astRp2403
stRp2404
sS'DB04538'
p2405
g1
(g2
g3
(dp2406
S'O66145'
p2407
g1
(g2
g3
(dp2408
S'3.20.20.120'
p2409
(lp2410
g68
asS'3.30.390.10'
p2411
(lp2412
g71
astRp2413
stRp2414
sS' DB00157'
p2415
g1
(g2
g3
(dp2416
g898
g1
(g2
g3
(dp2417
g900
(lp2418
g902
astRp2419
stRp2420
sS' DB01023'
p2421
g1
(g2
g3
(dp2422
g241
g1
(g2
g3
(dp2423
g243
(lp2424
g245
astRp2425
stRp2426
sS'DB06952'
p2427
g1
(g2
g3
(dp2428
g186
g1
(g2
g3
(dp2429
g188
(lp2430
g59
astRp2431
stRp2432
sS' DB03032'
p2433
g1
(g2
g3
(dp2434
g715
g1
(g2
g3
(dp2435
g717
(lp2436
g59
asg719
(lp2437
g120
asg721
(lp2438
g123
asg723
(lp2439
g146
astRp2440
stRp2441
sS' DB02878'
p2442
g1
(g2
g3
(dp2443
g701
g1
(g2
g3
(dp2444
g703
(lp2445
g11
astRp2446
stRp2447
sS'DB04906'
p2448
g1
(g2
g3
(dp2449
g247
g1
(g2
g3
(dp2450
g249
(lp2451
g245
astRp2452
stRp2453
sS' DB07748'
p2454
g1
(g2
g3
(dp2455
g84
g1
(g2
g3
(dp2456
g86
(lp2457
g11
astRp2458
stRp2459
sS'DB00627'
p2460
g1
(g2
g3
(dp2461
S'Q15274'
p2462
g1
(g2
g3
(dp2463
S'3.20.20.70'
p2464
(lp2465
g11
astRp2466
stRp2467
sS' DB04281'
p2468
g1
(g2
g3
(dp2469
g159
g1
(g2
g3
(dp2470
g161
(lp2471
g11
astRp2472
stRp2473
sS' DB04339'
p2474
g1
(g2
g3
(dp2475
g202
g1
(g2
g3
(dp2476
g204
(lp2477
g59
asg206
(lp2478
g120
asg208
(lp2479
g123
asg210
(lp2480
g146
astRp2481
stRp2482
sS' DB00836'
p2483
g1
(g2
g3
(dp2484
g241
g1
(g2
g3
(dp2485
g243
(lp2486
g245
astRp2487
stRp2488
sS'DB05398'
p2489
g1
(g2
g3
(dp2490
S'P21926'
p2491
g1
(g2
g3
(dp2492
S'PF00335'
p2493
(lp2494
S'Q26499'
p2495
asS'1.10.1450.10'
p2496
(lp2497
S'Q26499'
p2498
astRp2499
stRp2500
sS'DB03026'
p2501
g1
(g2
g3
(dp2502
S'P0AB71'
p2503
g1
(g2
g3
(dp2504
S'3.20.20.70'
p2505
(lp2506
g11
astRp2507
sS'P0AB74'
p2508
g1
(g2
g3
(dp2509
S'3.20.20.70'
p2510
(lp2511
g11
astRp2512
stRp2513
sS' DB00831'
p2514
g1
(g2
g3
(dp2515
g241
g1
(g2
g3
(dp2516
g243
(lp2517
g245
astRp2518
stRp2519
sS' DB03977'
p2520
g1
(g2
g3
(dp2521
g241
g1
(g2
g3
(dp2522
g243
(lp2523
g245
astRp2524
stRp2525
sS' DB04807'
p2526
g1
(g2
g3
(dp2527
S'P31434'
p2528
g1
(g2
g3
(dp2529
S'3.20.20.70'
p2530
(lp2531
g11
astRp2532
stRp2533
sS' DB02943'
p2534
g1
(g2
g3
(dp2535
g726
g1
(g2
g3
(dp2536
g728
(lp2537
g59
asg730
(lp2538
g120
asg732
(lp2539
g123
asg734
(lp2540
g146
astRp2541
stRp2542
sS'DB04087'
p2543
g1
(g2
g3
(dp2544
S'Q5SJ28'
p2545
g1
(g2
g3
(dp2546
S'3.20.20.70'
p2547
(lp2548
g11
astRp2549
sS'P0A6L0'
p2550
g1
(g2
g3
(dp2551
S'3.20.20.70'
p2552
(lp2553
g11
astRp2554
stRp2555
sS' DB03132'
p2556
g1
(g2
g3
(dp2557
g76
g1
(g2
g3
(dp2558
g78
(lp2559
g11
astRp2560
sg1828
g1
(g2
g3
(dp2561
g1830
(lp2562
g11
astRp2563
stRp2564
sS' DB04147'
p2565
g1
(g2
g3
(dp2566
g159
g1
(g2
g3
(dp2567
g161
(lp2568
g11
astRp2569
stRp2570
sS'DB03434'
p2571
g1
(g2
g3
(dp2572
g2528
g1
(g2
g3
(dp2573
g2530
(lp2574
g11
astRp2575
stRp2576
sS' DB02682'
p2577
g1
(g2
g3
(dp2578
g97
g1
(g2
g3
(dp2579
g99
(lp2580
g41
ag42
asg101
(lp2581
g45
ag46
asg103
(lp2582
g49
ag50
astRp2583
stRp2584
sS' DB05460'
p2585
g1
(g2
g3
(dp2586
g202
g1
(g2
g3
(dp2587
g204
(lp2588
g59
asg206
(lp2589
g120
asg208
(lp2590
g123
asg210
(lp2591
g146
astRp2592
stRp2593
sS' DB07615'
p2594
g1
(g2
g3
(dp2595
g624
g1
(g2
g3
(dp2596
g626
(lp2597
g59
asg628
(lp2598
g120
asg630
(lp2599
g123
asg632
(lp2600
g146
astRp2601
stRp2602
sS' DB02684'
p2603
g1
(g2
g3
(dp2604
g1002
g1
(g2
g3
(dp2605
g1004
(lp2606
g123
astRp2607
stRp2608
sS' DB07613'
p2609
g1
(g2
g3
(dp2610
g624
g1
(g2
g3
(dp2611
g626
(lp2612
g59
asg628
(lp2613
g120
asg630
(lp2614
g123
asg632
(lp2615
g146
astRp2616
stRp2617
sS' DB01915'
p2618
g1
(g2
g3
(dp2619
g202
g1
(g2
g3
(dp2620
g204
(lp2621
g59
asg206
(lp2622
g120
asg208
(lp2623
g123
asg210
(lp2624
g146
astRp2625
sg726
g1
(g2
g3
(dp2626
g728
(lp2627
g59
asg730
(lp2628
g120
asg732
(lp2629
g123
asg734
(lp2630
g146
astRp2631
stRp2632
sS' DB03237'
p2633
g1
(g2
g3
(dp2634
g768
g1
(g2
g3
(dp2635
g770
(lp2636
g68
asg772
(lp2637
g71
astRp2638
stRp2639
sS' DB07616'
p2640
g1
(g2
g3
(dp2641
g624
g1
(g2
g3
(dp2642
g626
(lp2643
g59
asg628
(lp2644
g120
asg630
(lp2645
g123
asg632
(lp2646
g146
astRp2647
stRp2648
sS' DB07614'
p2649
g1
(g2
g3
(dp2650
g624
g1
(g2
g3
(dp2651
g626
(lp2652
g59
asg628
(lp2653
g120
asg630
(lp2654
g123
asg632
(lp2655
g146
astRp2656
stRp2657
sS' DB07745'
p2658
g1
(g2
g3
(dp2659
g84
g1
(g2
g3
(dp2660
g86
(lp2661
g11
astRp2662
stRp2663
sS' DB04521'
p2664
g1
(g2
g3
(dp2665
g1428
g1
(g2
g3
(dp2666
g1430
(lp2667
g59
asg1432
(lp2668
g120
asg1434
(lp2669
g123
asg1436
(lp2670
g146
astRp2671
stRp2672
sS' DB07952'
p2673
g1
(g2
g3
(dp2674
g84
g1
(g2
g3
(dp2675
g86
(lp2676
g11
astRp2677
stRp2678
sS' DB03135'
p2679
g1
(g2
g3
(dp2680
g76
g1
(g2
g3
(dp2681
g78
(lp2682
g11
astRp2683
stRp2684
sS' DB04528'
p2685
g1
(g2
g3
(dp2686
g532
g1
(g2
g3
(dp2687
g534
(lp2688
g11
astRp2689
stRp2690
sS' DB02951'
p2691
g1
(g2
g3
(dp2692
g555
g1
(g2
g3
(dp2693
g557
(lp2694
g11
astRp2695
stRp2696
sS' DB03745'
p2697
g1
(g2
g3
(dp2698
g317
g1
(g2
g3
(dp2699
g319
(lp2700
g11
astRp2701
stRp2702
sS' DB02508'
p2703
g1
(g2
g3
(dp2704
g532
g1
(g2
g3
(dp2705
g534
(lp2706
g11
astRp2707
stRp2708
sS' DB07917'
p2709
g1
(g2
g3
(dp2710
g624
g1
(g2
g3
(dp2711
g626
(lp2712
g59
asg628
(lp2713
g120
asg630
(lp2714
g123
asg632
(lp2715
g146
astRp2716
stRp2717
sS'DB00157'
p2718
g1
(g2
g3
(dp2719
S'Q9BYZ2'
p2720
g1
(g2
g3
(dp2721
S'PF00056'
p2722
(lp2723
g479
astRp2724
sS'P19404'
p2725
g1
(g2
g3
(dp2726
S'3.40.30.10'
p2727
(lp2728
g59
astRp2729
sg475
g1
(g2
g3
(dp2730
g477
(lp2731
g479
astRp2732
sg1741
g1
(g2
g3
(dp2733
g1743
(lp2734
g479
astRp2735
sg679
g1
(g2
g3
(dp2736
g681
(lp2737
g479
astRp2738
sS'P07864'
p2739
g1
(g2
g3
(dp2740
S'PF00056'
p2741
(lp2742
g479
astRp2743
sS'Q6ZMR3'
p2744
g1
(g2
g3
(dp2745
S'PF00056'
p2746
(lp2747
g479
astRp2748
sS'O43678'
p2749
g1
(g2
g3
(dp2750
S'3.40.30.10'
p2751
(lp2752
g59
astRp2753
sg1098
g1
(g2
g3
(dp2754
g1100
(lp2755
g479
astRp2756
stRp2757
sS' DB06864'
p2758
g1
(g2
g3
(dp2759
g216
g1
(g2
g3
(dp2760
g218
(lp2761
g68
asg220
(lp2762
g71
astRp2763
stRp2764
sS' DB04781'
p2765
g1
(g2
g3
(dp2766
g701
g1
(g2
g3
(dp2767
g703
(lp2768
g11
astRp2769
stRp2770
sS' DB00172'
p2771
g1
(g2
g3
(dp2772
g1002
g1
(g2
g3
(dp2773
g1004
(lp2774
g123
astRp2775
stRp2776
sS' DB07561'
p2777
g1
(g2
g3
(dp2778
g159
g1
(g2
g3
(dp2779
g161
(lp2780
g11
astRp2781
stRp2782
sS' DB03314'
p2783
g1
(g2
g3
(dp2784
g374
g1
(g2
g3
(dp2785
g376
(lp2786
g59
asg378
(lp2787
g120
asg380
(lp2788
g123
asg382
(lp2789
g146
astRp2790
sg76
g1
(g2
g3
(dp2791
g78
(lp2792
g11
astRp2793
stRp2794
sS' DB07443'
p2795
g1
(g2
g3
(dp2796
g159
g1
(g2
g3
(dp2797
g161
(lp2798
g11
astRp2799
stRp2800
sS'DB02512'
p2801
g1
(g2
g3
(dp2802
g1048
g1
(g2
g3
(dp2803
g1050
(lp2804
g11
astRp2805
sg979
g1
(g2
g3
(dp2806
g981
(lp2807
g11
astRp2808
stRp2809
sS' DB03586'
p2810
g1
(g2
g3
(dp2811
g2528
g1
(g2
g3
(dp2812
g2530
(lp2813
g11
astRp2814
stRp2815
sS' DB02954'
p2816
g1
(g2
g3
(dp2817
g97
g1
(g2
g3
(dp2818
g99
(lp2819
g41
ag42
asg101
(lp2820
g45
ag46
asg103
(lp2821
g49
ag50
astRp2822
stRp2823
sS' DB04640'
p2824
g1
(g2
g3
(dp2825
g1093
g1
(g2
g3
(dp2826
g1095
(lp2827
g479
astRp2828
stRp2829
sS' DB04641'
p2830
g1
(g2
g3
(dp2831
g1093
g1
(g2
g3
(dp2832
g1095
(lp2833
g479
astRp2834
stRp2835
sS' DB04315'
p2836
g1
(g2
g3
(dp2837
S'Q9U8D3'
p2838
g1
(g2
g3
(dp2839
S'PF00709'
p2840
(lp2841
g41
ag42
asS'3.90.170.10'
p2842
(lp2843
g45
ag46
asS'3.40.440.10'
p2844
(lp2845
g49
ag50
astRp2846
sg97
g1
(g2
g3
(dp2847
g99
(lp2848
g41
ag42
asg101
(lp2849
g45
ag46
asg103
(lp2850
g49
ag50
astRp2851
sg958
g1
(g2
g3
(dp2852
g960
(lp2853
g41
ag42
asg962
(lp2854
g45
ag46
asg964
(lp2855
g49
ag50
astRp2856
stRp2857
sS' DB02260'
p2858
g1
(g2
g3
(dp2859
g701
g1
(g2
g3
(dp2860
g703
(lp2861
g11
astRp2862
stRp2863
sS' DB02262'
p2864
g1
(g2
g3
(dp2865
g844
g1
(g2
g3
(dp2866
g846
(lp2867
g11
astRp2868
sg159
g1
(g2
g3
(dp2869
g161
(lp2870
g11
astRp2871
stRp2872
sS'DB00336'
p2873
g1
(g2
g3
(dp2874
S'P61889'
p2875
g1
(g2
g3
(dp2876
S'PF00056'
p2877
(lp2878
g479
astRp2879
stRp2880
sS' DB02613'
p2881
g1
(g2
g3
(dp2882
g159
g1
(g2
g3
(dp2883
g161
(lp2884
g11
astRp2885
stRp2886
sS' DB07732'
p2887
g1
(g2
g3
(dp2888
g84
g1
(g2
g3
(dp2889
g86
(lp2890
g11
astRp2891
stRp2892
sS' DB03603'
p2893
g1
(g2
g3
(dp2894
g768
g1
(g2
g3
(dp2895
g770
(lp2896
g68
asg772
(lp2897
g71
astRp2898
stRp2899
sS'DB02109'
p2900
g1
(g2
g3
(dp2901
g2838
g1
(g2
g3
(dp2902
g2840
(lp2903
g41
ag42
asg2842
(lp2904
g45
ag46
asg2844
(lp2905
g49
ag50
astRp2906
sg97
g1
(g2
g3
(dp2907
g99
(lp2908
g41
ag42
asg101
(lp2909
g45
ag46
asg103
(lp2910
g49
ag50
astRp2911
stRp2912
sS' DB02060'
p2913
g1
(g2
g3
(dp2914
g532
g1
(g2
g3
(dp2915
g534
(lp2916
g11
astRp2917
stRp2918
sS' DB04862'
p2919
g1
(g2
g3
(dp2920
g1170
g1
(g2
g3
(dp2921
g1172
(lp2922
g11
astRp2923
stRp2924
sS' DB03814'
p2925
g1
(g2
g3
(dp2926
g202
g1
(g2
g3
(dp2927
g204
(lp2928
g59
asg206
(lp2929
g120
asg208
(lp2930
g123
asg210
(lp2931
g146
astRp2932
sg167
g1
(g2
g3
(dp2933
g169
(lp2934
g11
astRp2935
sg2528
g1
(g2
g3
(dp2936
g2530
(lp2937
g11
astRp2938
stRp2939
sS' DB03608'
p2940
g1
(g2
g3
(dp2941
g809
g1
(g2
g3
(dp2942
g811
(lp2943
g59
astRp2944
stRp2945
sS' DB01373'
p2946
g1
(g2
g3
(dp2947
g241
g1
(g2
g3
(dp2948
g243
(lp2949
g245
astRp2950
stRp2951
sS'DB01655'
p2952
g1
(g2
g3
(dp2953
g1272
g1
(g2
g3
(dp2954
g1274
(lp2955
g11
astRp2956
stRp2957
sS'DB02370'
p2958
g1
(g2
g3
(dp2959
S'Q9X1K9'
p2960
g1
(g2
g3
(dp2961
S'3.20.20.70'
p2962
(lp2963
g11
astRp2964
stRp2965
sS' DB08695'
p2966
g1
(g2
g3
(dp2967
g624
g1
(g2
g3
(dp2968
g626
(lp2969
g59
asg628
(lp2970
g120
asg630
(lp2971
g123
asg632
(lp2972
g146
astRp2973
stRp2974
sS' DB00608'
p2975
g1
(g2
g3
(dp2976
g1456
g1
(g2
g3
(dp2977
g1458
(lp2978
g59
asg1460
(lp2979
g120
asg1462
(lp2980
g123
asg1464
(lp2981
g146
astRp2982
stRp2983
sS' DB04143'
p2984
g1
(g2
g3
(dp2985
g84
g1
(g2
g3
(dp2986
g86
(lp2987
g11
astRp2988
stRp2989
sS'DB03615'
p2990
g1
(g2
g3
(dp2991
S'P07237'
p2992
g1
(g2
g3
(dp2993
S'3.40.30.10'
p2994
(lp2995
g59
astRp2996
stRp2997
sS' DB01834'
p2998
g1
(g2
g3
(dp2999
g374
g1
(g2
g3
(dp3000
g376
(lp3001
g59
asg378
(lp3002
g120
asg380
(lp3003
g123
asg382
(lp3004
g146
astRp3005
sg202
g1
(g2
g3
(dp3006
g204
(lp3007
g59
asg206
(lp3008
g120
asg208
(lp3009
g123
asg210
(lp3010
g146
astRp3011
stRp3012
sS' DB02746'
p3013
g1
(g2
g3
(dp3014
g24
g1
(g2
g3
(dp3015
g26
(lp3016
g11
astRp3017
stRp3018
sS' DB01429'
p3019
g1
(g2
g3
(dp3020
g241
g1
(g2
g3
(dp3021
g243
(lp3022
g245
astRp3023
stRp3024
sS'DB03754'
p3025
g1
(g2
g3
(dp3026
g1940
g1
(g2
g3
(dp3027
g1942
(lp3028
g11
asg1944
(lp3029
g1946
astRp3030
stRp3031
sS' DB04418'
p3032
g1
(g2
g3
(dp3033
g958
g1
(g2
g3
(dp3034
g960
(lp3035
g41
ag42
asg962
(lp3036
g45
ag46
asg964
(lp3037
g49
ag50
astRp3038
stRp3039
sS' DB03048'
p3040
g1
(g2
g3
(dp3041
g333
g1
(g2
g3
(dp3042
g335
(lp3043
g11
astRp3044
stRp3045
sS' DB03698'
p3046
g1
(g2
g3
(dp3047
g470
g1
(g2
g3
(dp3048
g472
(lp3049
g11
astRp3050
stRp3051
sS' DB03162'
p3052
g1
(g2
g3
(dp3053
g1093
g1
(g2
g3
(dp3054
g1095
(lp3055
g479
astRp3056
stRp3057
sS'DB03382'
p3058
g1
(g2
g3
(dp3059
S'P66952'
p3060
g1
(g2
g3
(dp3061
S'3.40.30.10'
p3062
(lp3063
g59
astRp3064
stRp3065
sS' DB03516'
p3066
g1
(g2
g3
(dp3067
g333
g1
(g2
g3
(dp3068
g335
(lp3069
g11
astRp3070
stRp3071
sS' DB08169'
p3072
g1
(g2
g3
(dp3073
g159
g1
(g2
g3
(dp3074
g161
(lp3075
g11
astRp3076
stRp3077
sS' DB03510'
p3078
g1
(g2
g3
(dp3079
g2838
g1
(g2
g3
(dp3080
g2840
(lp3081
g41
ag42
asg2842
(lp3082
g45
ag46
asg2844
(lp3083
g49
ag50
astRp3084
sg958
g1
(g2
g3
(dp3085
g960
(lp3086
g41
ag42
asg962
(lp3087
g45
ag46
asg964
(lp3088
g49
ag50
astRp3089
stRp3090
sS' DB02068'
p3091
g1
(g2
g3
(dp3092
g701
g1
(g2
g3
(dp3093
g703
(lp3094
g11
astRp3095
stRp3096
stRp3097
.