(dp1
S'Q4JEY0'
p2
(lp3
S'CHEMBL990'
p4
aS'CHEMBL626'
p5
aS'CHEMBL822'
p6
asS'P68363'
p7
(lp8
S'CHEMBL107'
p9
asS'P21802'
p10
(lp11
S'CHEMBL1946170'
p12
asS'P18825'
p13
(lp14
S'CHEMBL844'
p15
aS'CHEMBL647'
p16
aS'CHEMBL420'
p17
aS'CHEMBL459'
p18
aS'CHEMBL134'
p19
aS'CHEMBL677'
p20
aS'CHEMBL1201233'
p21
aS'CHEMBL654'
p22
aS'CHEMBL862'
p23
aS'CHEMBL778'
p24
aS'CHEMBL1079'
p25
aS'CHEMBL429'
p26
aS'CHEMBL1201262'
p27
aS'CHEMBL1437'
p28
aS'CHEMBL1201234'
p29
aS'CHEMBL1546'
p30
aS'CHEMBL679'
p31
aS'CHEMBL1266'
p32
aS'CHEMBL753'
p33
aS'CHEMBL762'
p34
aS'CHEMBL761'
p35
aS'CHEMBL770'
p36
aS'CHEMBL597'
p37
asS'Q9UM73'
p38
(lp39
S'CHEMBL601719'
p40
asS'P02918'
p41
(lp42
S'CHEMBL158'
p43
asS'P14324'
p44
(lp45
S'CHEMBL870'
p46
aS'CHEMBL923'
p47
aS'CHEMBL924'
p48
aS'CHEMBL834'
p49
aS'CHEMBL997'
p50
asS'Q14654'
p51
(lp52
S'CHEMBL181'
p53
aS'CHEMBL472'
p54
aS'CHEMBL1272'
p55
aS'CHEMBL498'
p56
aS'CHEMBL1481'
p57
aS'CHEMBL1589'
p58
aS'CHEMBL1073'
p59
aS'CHEMBL782'
p60
aS'CHEMBL783'
p61
aS'CHEMBL817'
p62
asS'Q01959'
p63
(lp64
S'CHEMBL1201222'
p65
aS'CHEMBL1744'
p66
aS'CHEMBL1373'
p67
aS'CHEMBL1201192'
p68
aS'CHEMBL1201208'
p69
aS'CHEMBL405'
p70
aS'CHEMBL894'
p71
aS'CHEMBL796'
p72
aS'CHEMBL827'
p73
aS'CHEMBL612'
p74
aS'CHEMBL1194666'
p75
asS'O95180'
p76
(lp77
S'CHEMBL695'
p78
aS'CHEMBL1100'
p79
aS'CHEMBL696'
p80
aS'CHEMBL797'
p81
aS'CHEMBL697'
p82
asS'O95263'
p83
(lp84
S'CHEMBL1493'
p85
asS'Q13882'
p86
(lp87
S'CHEMBL24828'
p88
asS'Q9UHC9'
p89
(lp90
S'CHEMBL1138'
p91
asS'P48039'
p92
(lp93
S'CHEMBL1218'
p94
asS'P03372'
p95
(lp96
S'CHEMBL1201467'
p97
aS'CHEMBL1200598'
p98
aS'CHEMBL1655'
p99
aS'CHEMBL1201466'
p100
aS'CHEMBL2105395'
p101
aS'CHEMBL46740'
p102
aS'CHEMBL1018'
p103
aS'CHEMBL411'
p104
aS'CHEMBL954'
p105
aS'CHEMBL83'
p106
asS'Q9UBS5'
p107
(lp108
S'CHEMBL701'
p109
aS'CHEMBL1342'
p110
asS'Q15303'
p111
(lp112
S'CHEMBL1173655'
p113
asS'P29317'
p114
(lp115
S'CHEMBL1421'
p116
asS'Q86DI9'
p117
(lp118
S'CHEMBL2096637'
p119
asS'Q14524'
p120
(lp121
S'CHEMBL652'
p122
aS'CHEMBL1404'
p123
aS'CHEMBL1086'
p124
asS'Q8JXU8'
p125
(lp126
S'CHEMBL1259059'
p127
asS'P11229'
p128
(lp129
S'CHEMBL168815'
p130
aS'CHEMBL1201069'
p131
aS'CHEMBL86715'
p132
aS'CHEMBL1201325'
p133
aS'CHEMBL1206'
p134
aS'CHEMBL620'
p135
aS'CHEMBL1495'
p136
aS'CHEMBL1201342'
p137
aS'CHEMBL1123'
p138
aS'CHEMBL524004'
p139
aS'CHEMBL1201227'
p140
aS'CHEMBL1201232'
p141
aS'CHEMBL1201286'
p142
aS'CHEMBL1201203'
p143
aS'CHEMBL1186610'
p144
aS'CHEMBL1101'
p145
aS'CHEMBL1201268'
p146
aS'CHEMBL1201354'
p147
aS'CHEMBL936'
p148
aS'CHEMBL1490'
p149
aS'CHEMBL1201335'
p150
aS'CHEMBL1201340'
p151
aS'CHEMBL517712'
p152
aS'CHEMBL1180725'
p153
asS'P42685'
p154
(lp155
S'CHEMBL1946170'
p156
asS'P00374'
p157
(lp158
S'CHEMBL1201258'
p159
asS'P16233'
p160
(lp161
S'CHEMBL175247'
p162
asS'Q99720'
p163
(lp164
S'CHEMBL560'
p165
asS'P03468'
p166
(lp167
S'CHEMBL1229'
p168
aS'CHEMBL222813'
p169
asS'P63656'
p170
(lp171
S'CHEMBL376488'
p172
asS'O14649'
p173
(lp174
S'CHEMBL931'
p175
aS'CHEMBL1257'
p176
aS'CHEMBL1256'
p177
aS'CHEMBL1754'
p178
aS'CHEMBL1200694'
p179
aS'CHEMBL1200733'
p180
asS'P55017'
p181
(lp182
S'CHEMBL435'
p183
aS'CHEMBL1587'
p184
aS'CHEMBL842'
p185
aS'CHEMBL1577'
p186
aS'CHEMBL1054'
p187
aS'CHEMBL878'
p188
aS'CHEMBL406'
p189
aS'CHEMBL61593'
p190
aS'CHEMBL1684'
p191
aS'CHEMBL1055'
p192
aS'CHEMBL1532'
p193
aS'CHEMBL1763'
p194
aS'CHEMBL1201039'
p195
asS'P28702'
p196
(lp197
S'CHEMBL1023'
p198
asS'P08588'
p199
(lp200
S'CHEMBL839'
p201
aS'CHEMBL723'
p202
aS'CHEMBL434'
p203
aS'CHEMBL184412'
p204
aS'CHEMBL631'
p205
aS'CHEMBL649'
p206
aS'CHEMBL59'
p207
aS'CHEMBL1201237'
p208
aS'CHEMBL13'
p209
aS'CHEMBL423'
p210
aS'CHEMBL499'
p211
aS'CHEMBL546'
p212
aS'CHEMBL24'
p213
aS'CHEMBL27'
p214
aS'CHEMBL642'
p215
aS'CHEMBL1290'
p216
aS'CHEMBL1201274'
p217
aS'CHEMBL500'
p218
aS'CHEMBL645'
p219
aS'CHEMBL434394'
p220
aS'CHEMBL768'
p221
aS'CHEMBL1291'
p222
aS'CHEMBL926'
p223
aS'CHEMBL471'
p224
asS'P13945'
p225
(lp226
S'CHEMBL2095212'
p227
asS'P28221'
p228
(lp229
S'CHEMBL905'
p230
aS'CHEMBL1185'
p231
aS'CHEMBL128'
p232
aS'CHEMBL1278'
p233
aS'CHEMBL1510'
p234
aS'CHEMBL1279'
p235
aS'CHEMBL1505'
p236
asS'Q8TCC7'
p237
(lp238
S'CHEMBL897'
p239
asS'P08581'
p240
(lp241
S'CHEMBL2105717'
p242
aS'CHEMBL601719'
p243
asS'P10721'
p244
(lp245
S'CHEMBL1946170'
p246
aS'CHEMBL941'
p247
aS'CHEMBL477772'
p248
aS'CHEMBL1421'
p249
aS'CHEMBL535'
p250
aS'CHEMBL1336'
p251
asS'Q95US7'
p252
(lp253
S'CHEMBL976'
p254
asS'E1FVX6'
p255
(lp256
S'CHEMBL1200842'
p257
aS'CHEMBL684'
p258
asS'P08172'
p259
(lp260
S'CHEMBL1201764'
p261
aS'CHEMBL1482'
p262
aS'CHEMBL1201344'
p263
aS'CHEMBL1346'
p264
aS'CHEMBL1231'
p265
aS'CHEMBL1382'
p266
aS'CHEMBL517712'
p267
aS'CHEMBL1734'
p268
aS'CHEMBL1180725'
p269
asS'P22303'
p270
(lp271
S'CHEMBL95'
p272
aS'CHEMBL636'
p273
aS'CHEMBL1201349'
p274
aS'CHEMBL1420'
p275
aS'CHEMBL278020'
p276
aS'CHEMBL1201229'
p277
aS'CHEMBL1115'
p278
aS'CHEMBL1104'
p279
aS'CHEMBL1652'
p280
aS'CHEMBL502'
p281
aS'CHEMBL1025'
p282
aS'CHEMBL1201341'
p283
asS'H9U2W0'
p284
(lp285
S'CHEMBL15891'
p286
asS'P00390'
p287
(lp288
S'CHEMBL1372'
p289
aS'CHEMBL513'
p290
asS'Q07869'
p291
(lp292
S'CHEMBL565'
p293
aS'CHEMBL672'
p294
aS'CHEMBL981'
p295
aS'CHEMBL457'
p296
asS'P23458'
p297
(lp298
S'CHEMBL221959'
p299
aS'CHEMBL1789941'
p300
asS'E0VCW8'
p301
(lp302
S'CHEMBL1201131'
p303
asS'O96760'
p304
(lp305
S'CHEMBL1454'
p306
asS'Q9Y5Y9'
p307
(lp308
S'CHEMBL1086'
p309
asS'P00797'
p310
(lp311
S'CHEMBL1639'
p312
asS'P27487'
p313
(lp314
S'CHEMBL385517'
p315
aS'CHEMBL1422'
p316
aS'CHEMBL376359'
p317
asS'P66420'
p318
(lp319
S'CHEMBL126'
p320
asS'P40238'
p321
(lp322
S'CHEMBL461101'
p323
asS'Q9H244'
p324
(lp325
S'CHEMBL833'
p326
aS'CHEMBL1771'
p327
aS'CHEMBL398435'
p328
aS'CHEMBL1201772'
p329
asS'P16184'
p330
(lp331
S'CHEMBL119'
p332
asS'Q06187'
p333
(lp334
S'CHEMBL1873475'
p335
asS'Q13639'
p336
(lp337
S'CHEMBL76370'
p338
aS'CHEMBL1729'
p339
aS'CHEMBL86'
p340
asS'Q5EP76'
p341
(lp342
S'CHEMBL826'
p343
asS'Q8NER1'
p344
(lp345
S'CHEMBL112'
p346
aS'CHEMBL294199'
p347
asS'P0A5Y6'
p348
(lp349
S'CHEMBL1441'
p350
aS'CHEMBL64'
p351
asS'Q9NYK1'
p352
(lp353
S'CHEMBL1535'
p354
aS'CHEMBL1282'
p355
asS'P07098'
p356
(lp357
S'CHEMBL175247'
p358
asS'P25103'
p359
(lp360
S'CHEMBL1199324'
p361
aS'CHEMBL1471'
p362
asS'P25100'
p363
(lp364
S'CHEMBL611'
p365
aS'CHEMBL2'
p366
aS'CHEMBL723'
p367
aS'CHEMBL1201212'
p368
aS'CHEMBL707'
p369
aS'CHEMBL709'
p370
aS'CHEMBL1201319'
p371
aS'CHEMBL1215'
p372
aS'CHEMBL524'
p373
aS'CHEMBL836'
p374
aS'CHEMBL644'
p375
asS'Q2VKV7'
p376
(lp377
S'CHEMBL1525'
p378
asS'Q14145'
p379
(lp380
S'CHEMBL2107333'
p381
asS'P35354'
p382
(lp383
S'CHEMBL599'
p384
aS'CHEMBL118'
p385
aS'CHEMBL1316'
p386
aS'CHEMBL122'
p387
aS'CHEMBL865'
p388
aS'CHEMBL1070'
p389
aS'CHEMBL622'
p390
asS'P07237'
p391
(lp392
S'CHEMBL354541'
p393
asS'P37231'
p394
(lp395
S'CHEMBL408'
p396
aS'CHEMBL595'
p397
aS'CHEMBL704'
p398
aS'CHEMBL425'
p399
aS'CHEMBL1201346'
p400
aS'CHEMBL121'
p401
asS'P07550'
p402
(lp403
S'CHEMBL631'
p404
aS'CHEMBL649'
p405
aS'CHEMBL1363'
p406
aS'CHEMBL776'
p407
aS'CHEMBL1201295'
p408
aS'CHEMBL500'
p409
aS'CHEMBL1094966'
p410
aS'CHEMBL434394'
p411
aS'CHEMBL1201213'
p412
aS'CHEMBL1290'
p413
aS'CHEMBL27'
p414
aS'CHEMBL714'
p415
aS'CHEMBL785'
p416
aS'CHEMBL1201237'
p417
aS'CHEMBL1201273'
p418
aS'CHEMBL471'
p419
aS'CHEMBL1760'
p420
aS'CHEMBL1256786'
p421
aS'CHEMBL1263'
p422
aS'CHEMBL1291'
p423
aS'CHEMBL499'
p424
aS'CHEMBL546'
p425
aS'CHEMBL768'
p426
aS'CHEMBL1095777'
p427
aS'CHEMBL1002'
p428
aS'CHEMBL926'
p429
aS'CHEMBL1198857'
p430
asS'Q72547'
p431
(lp432
S'CHEMBL1380'
p433
aS'CHEMBL1460'
p434
aS'CHEMBL57'
p435
aS'CHEMBL308954'
p436
aS'CHEMBL223228'
p437
aS'CHEMBL593'
p438
aS'CHEMBL175691'
p439
asS'P30518'
p440
(lp441
S'CHEMBL1755'
p442
aS'CHEMBL344159'
p443
asS'Q15759'
p444
(lp445
S'CHEMBL1946170'
p446
asS'P06821'
p447
(lp448
S'CHEMBL660'
p449
asS'P0ABQ4'
p450
(lp451
S'CHEMBL22'
p452
asS'P27338'
p453
(lp454
S'CHEMBL887'
p455
aS'CHEMBL972'
p456
asS'P51787'
p457
(lp458
S'CHEMBL41355'
p459
asS'P25021'
p460
(lp461
S'CHEMBL653'
p462
aS'CHEMBL770'
p463
aS'CHEMBL1201264'
p464
aS'CHEMBL1790041'
p465
aS'CHEMBL1201323'
p466
asS'P46098'
p467
(lp468
S'CHEMBL2368925'
p469
aS'CHEMBL289469'
p470
aS'CHEMBL1110'
p471
aS'CHEMBL86'
p472
aS'CHEMBL2104993'
p473
aS'CHEMBL1189679'
p474
aS'CHEMBL46'
p475
asS'P35968'
p476
(lp477
S'CHEMBL2105717'
p478
aS'CHEMBL477772'
p479
aS'CHEMBL1336'
p480
aS'CHEMBL1946170'
p481
aS'CHEMBL535'
p482
aS'CHEMBL24828'
p483
aS'CHEMBL1289926'
p484
asS'P57789'
p485
(lp486
S'CHEMBL931'
p487
aS'CHEMBL1200694'
p488
aS'CHEMBL1200733'
p489
aS'CHEMBL1257'
p490
aS'CHEMBL1256'
p491
asS'P10275'
p492
(lp493
S'CHEMBL1082407'
p494
aS'CHEMBL806'
p495
aS'CHEMBL409'
p496
aS'CHEMBL1274'
p497
asS'P35372'
p498
(lp499
S'CHEMBL607'
p500
aS'CHEMBL1237044'
p501
aS'CHEMBL658'
p502
aS'CHEMBL592'
p503
aS'CHEMBL270190'
p504
aS'CHEMBL1213351'
p505
aS'CHEMBL651'
p506
aS'CHEMBL1254682'
p507
aS'CHEMBL1201321'
p508
aS'CHEMBL1201347'
p509
aS'CHEMBL1201294'
p510
aS'CHEMBL841'
p511
aS'CHEMBL33986'
p512
aS'CHEMBL1685'
p513
aS'CHEMBL1201776'
p514
aS'CHEMBL596'
p515
aS'CHEMBL1005'
p516
aS'CHEMBL1514'
p517
aS'CHEMBL634'
p518
asS'P31645'
p519
(lp520
S'CHEMBL41'
p521
aS'CHEMBL621'
p522
aS'CHEMBL99946'
p523
aS'CHEMBL809'
p524
aS'CHEMBL439849'
p525
aS'CHEMBL445'
p526
aS'CHEMBL1113'
p527
aS'CHEMBL415'
p528
aS'CHEMBL1118'
p529
aS'CHEMBL1201269'
p530
aS'CHEMBL623'
p531
aS'CHEMBL668'
p532
aS'CHEMBL2104993'
p533
aS'CHEMBL1508'
p534
aS'CHEMBL490'
p535
aS'CHEMBL549'
p536
aS'CHEMBL629'
p537
aS'CHEMBL637'
p538
aS'CHEMBL11'
p539
aS'CHEMBL814'
p540
aS'CHEMBL259209'
p541
aS'CHEMBL1175'
p542
asS'Q99250'
p543
(lp544
S'CHEMBL108'
p545
aS'CHEMBL1762'
p546
aS'CHEMBL1200443'
p547
aS'CHEMBL698'
p548
aS'CHEMBL1201242'
p549
aS'CHEMBL640'
p550
aS'CHEMBL1194'
p551
aS'CHEMBL1196'
p552
aS'CHEMBL1197'
p553
aS'CHEMBL750'
p554
aS'CHEMBL856'
p555
aS'CHEMBL517'
p556
aS'CHEMBL1242'
p557
aS'CHEMBL1077896'
p558
aS'CHEMBL1179047'
p559
aS'CHEMBL918'
p560
aS'CHEMBL631'
p561
aS'CHEMBL1087'
p562
aS'CHEMBL900'
p563
aS'CHEMBL58323'
p564
aS'CHEMBL1201217'
p565
aS'CHEMBL1201336'
p566
aS'CHEMBL1075'
p567
aS'CHEMBL1201754'
p568
aS'CHEMBL79'
p569
aS'CHEMBL87992'
p570
aS'CHEMBL744'
p571
aS'CHEMBL16'
p572
aS'CHEMBL1093'
p573
aS'CHEMBL1200'
p574
aS'CHEMBL558'
p575
aS'CHEMBL569'
p576
aS'CHEMBL1068'
p577
aS'CHEMBL1095'
p578
aS'CHEMBL184412'
p579
aS'CHEMBL741'
p580
aS'CHEMBL861'
p581
aS'CHEMBL1195'
p582
aS'CHEMBL492'
p583
asS'Q7Z2W7'
p584
(lp585
S'CHEMBL256087'
p586
asS'Q69091'
p587
(lp588
S'CHEMBL1200453'
p589
asS'P25101'
p590
(lp591
S'CHEMBL1111'
p592
aS'CHEMBL957'
p593
aS'CHEMBL2103873'
p594
asS'Q9NPC2'
p595
(lp596
S'CHEMBL1200694'
p597
aS'CHEMBL1256'
p598
aS'CHEMBL1754'
p599
aS'CHEMBL1200733'
p600
aS'CHEMBL931'
p601
aS'CHEMBL1257'
p602
asS'P03886'
p603
(lp604
S'CHEMBL1431'
p605
asS'P66065'
p606
(lp607
S'CHEMBL614'
p608
asS'P0AFI2'
p609
(lp610
S'CHEMBL1201197'
p611
aS'CHEMBL32'
p612
aS'CHEMBL428'
p613
aS'CHEMBL9'
p614
aS'CHEMBL1201760'
p615
aS'CHEMBL850'
p616
asS'P25787'
p617
(lp618
S'CHEMBL325041'
p619
asS'Q02127'
p620
(lp621
S'CHEMBL960'
p622
aS'CHEMBL973'
p623
asS'P32754'
p624
(lp625
S'CHEMBL1337'
p626
asS'Q13621'
p627
(lp628
S'CHEMBL35'
p629
aS'CHEMBL456'
p630
aS'CHEMBL1148'
p631
aS'CHEMBL1072'
p632
asS'P48058'
p633
(lp634
S'CHEMBL1214124'
p635
asS'Q13370'
p636
(lp637
S'CHEMBL760'
p638
asS'P30939'
p639
(lp640
S'CHEMBL1510'
p641
aS'CHEMBL1505'
p642
asS'Q92769'
p643
(lp644
S'CHEMBL98'
p645
asS'P15056'
p646
(lp647
S'CHEMBL1946170'
p648
aS'CHEMBL1229517'
p649
aS'CHEMBL2028663'
p650
aS'CHEMBL1336'
p651
asS'P51170'
p652
(lp653
S'CHEMBL945'
p654
asS'P63231'
p655
(lp656
S'CHEMBL959'
p657
asS'O95477'
p658
(lp659
S'CHEMBL608'
p660
asS'P23975'
p661
(lp662
S'CHEMBL1201201'
p663
aS'CHEMBL1419'
p664
aS'CHEMBL781'
p665
aS'CHEMBL623'
p666
aS'CHEMBL629'
p667
aS'CHEMBL21731'
p668
aS'CHEMBL1744'
p669
aS'CHEMBL641'
p670
aS'CHEMBL11'
p671
aS'CHEMBL1628227'
p672
aS'CHEMBL900'
p673
aS'CHEMBL1574'
p674
aS'CHEMBL1199080'
p675
aS'CHEMBL1113'
p676
aS'CHEMBL1194666'
p677
aS'CHEMBL259209'
p678
aS'CHEMBL445'
p679
aS'CHEMBL1037'
p680
aS'CHEMBL1201222'
p681
aS'CHEMBL405'
p682
aS'CHEMBL827'
p683
aS'CHEMBL894'
p684
aS'CHEMBL72'
p685
aS'CHEMBL99946'
p686
aS'CHEMBL612'
p687
aS'CHEMBL637'
p688
aS'CHEMBL644'
p689
aS'CHEMBL668'
p690
aS'CHEMBL796'
p691
aS'CHEMBL1118'
p692
aS'CHEMBL1201260'
p693
aS'CHEMBL1201358'
p694
aS'CHEMBL1201776'
p695
aS'CHEMBL765'
p696
aS'CHEMBL1175'
p697
aS'CHEMBL1201208'
p698
asS'E0W492'
p699
(lp700
S'CHEMBL15891'
p701
asS'P21817'
p702
(lp703
S'CHEMBL1201288'
p704
asS'P66446'
p705
(lp706
S'CHEMBL409542'
p707
asS'P32297'
p708
(lp709
S'CHEMBL1201329'
p710
aS'CHEMBL267936'
p711
aS'CHEMBL1271'
p712
asS'P41180'
p713
(lp714
S'CHEMBL1201284'
p715
asS'A3EZI9'
p716
(lp717
S'CHEMBL218394'
p718
asS'P10826'
p719
(lp720
S'CHEMBL1265'
p721
asS'Q02768'
p722
(lp723
S'CHEMBL1450'
p724
asS'O43570'
p725
(lp726
S'CHEMBL17'
p727
aS'CHEMBL20'
p728
asS'P35367'
p729
(lp730
S'CHEMBL1492'
p731
aS'CHEMBL1201210'
p732
aS'CHEMBL643'
p733
aS'CHEMBL1201191'
p734
aS'CHEMBL770'
p735
aS'CHEMBL914'
p736
aS'CHEMBL594'
p737
aS'CHEMBL1626'
p738
aS'CHEMBL516'
p739
aS'CHEMBL657'
p740
aS'CHEMBL90'
p741
aS'CHEMBL864'
p742
aS'CHEMBL900'
p743
aS'CHEMBL639'
p744
aS'CHEMBL946'
p745
aS'CHEMBL811'
p746
aS'CHEMBL1305'
p747
aS'CHEMBL998'
p748
aS'CHEMBL1106'
p749
aS'CHEMBL1172'
p750
aS'CHEMBL1193'
p751
aS'CHEMBL534'
p752
aS'CHEMBL1200959'
p753
aS'CHEMBL648'
p754
aS'CHEMBL1201245'
p755
aS'CHEMBL1201287'
p756
aS'CHEMBL1201353'
p757
aS'CHEMBL829'
p758
aS'CHEMBL1201747'
p759
aS'CHEMBL1201758'
p760
aS'CHEMBL1615438'
p761
aS'CHEMBL1224'
p762
aS'CHEMBL1241'
p763
aS'CHEMBL855'
p764
aS'CHEMBL1189432'
p765
aS'CHEMBL1000'
p766
aS'CHEMBL896'
p767
aS'CHEMBL1623'
p768
aS'CHEMBL1004'
p769
aS'CHEMBL1201271'
p770
aS'CHEMBL511'
p771
aS'CHEMBL644'
p772
asS'Q02763'
p773
(lp774
S'CHEMBL24828'
p775
aS'CHEMBL1946170'
p776
asS'Q99835'
p777
(lp778
S'CHEMBL473417'
p779
asS'P72525'
p780
(lp781
S'CHEMBL430'
p782
aS'CHEMBL31'
p783
aS'CHEMBL33'
p784
aS'CHEMBL583'
p785
asS'P00734'
p786
(lp787
S'CHEMBL1166'
p788
aS'CHEMBL539697'
p789
asS'Q72874'
p790
(lp791
S'CHEMBL114'
p792
aS'CHEMBL115'
p793
aS'CHEMBL116'
p794
aS'CHEMBL163'
p795
aS'CHEMBL584'
p796
aS'CHEMBL729'
p797
aS'CHEMBL222559'
p798
aS'CHEMBL1664'
p799
aS'CHEMBL1163'
p800
asS'Q06203'
p801
(lp802
S'CHEMBL1542'
p803
aS'CHEMBL1425'
p804
asS'P51681'
p805
(lp806
S'CHEMBL1201187'
p807
asS'P09917'
p808
(lp809
S'CHEMBL421'
p810
aS'CHEMBL425'
p811
aS'CHEMBL93'
p812
aS'CHEMBL1201346'
p813
aS'CHEMBL509'
p814
aS'CHEMBL704'
p815
asS'P0AC13'
p816
(lp817
S'CHEMBL455'
p818
aS'CHEMBL1191'
p819
aS'CHEMBL1525826'
p820
aS'CHEMBL443'
p821
aS'CHEMBL437'
p822
aS'CHEMBL453'
p823
aS'CHEMBL1200359'
p824
aS'CHEMBL419'
p825
aS'CHEMBL21'
p826
aS'CHEMBL438'
p827
aS'CHEMBL446'
p828
aS'CHEMBL1109'
p829
aS'CHEMBL439'
p830
aS'CHEMBL1200910'
p831
aS'CHEMBL700'
p832
asS'P28223'
p833
(lp834
S'CHEMBL460'
p835
aS'CHEMBL479'
p836
aS'CHEMBL85'
p837
aS'CHEMBL669'
p838
aS'CHEMBL1088'
p839
aS'CHEMBL1108'
p840
aS'CHEMBL14376'
p841
aS'CHEMBL623'
p842
aS'CHEMBL422'
p843
aS'CHEMBL716'
p844
aS'CHEMBL908'
p845
aS'CHEMBL1201'
p846
aS'CHEMBL1201756'
p847
aS'CHEMBL654'
p848
aS'CHEMBL708'
p849
aS'CHEMBL715'
p850
aS'CHEMBL1201328'
p851
aS'CHEMBL54'
p852
aS'CHEMBL1423'
p853
aS'CHEMBL644'
p854
aS'CHEMBL1621'
p855
aS'CHEMBL71'
p856
aS'CHEMBL1237021'
p857
aS'CHEMBL1112'
p858
aS'CHEMBL564'
p859
aS'CHEMBL621'
p860
aS'CHEMBL831'
p861
aS'CHEMBL1200986'
p862
aS'CHEMBL42'
p863
asS'P07202'
p864
(lp865
S'CHEMBL1515'
p866
asS'P16444'
p867
(lp868
S'CHEMBL766'
p869
asS'Q4U2R8'
p870
(lp871
S'CHEMBL897'
p872
asS'P08908'
p873
(lp874
S'CHEMBL439849'
p875
aS'CHEMBL1112'
p876
aS'CHEMBL49'
p877
aS'CHEMBL2104993'
p878
asS'P35499'
p879
(lp880
S'CHEMBL1404'
p881
aS'CHEMBL1201193'
p882
aS'CHEMBL1098'
p883
asS'Q968X7'
p884
(lp885
S'CHEMBL1401'
p886
asS'P04626'
p887
(lp888
S'CHEMBL1173655'
p889
aS'CHEMBL554'
p890
asS'P43681'
p891
(lp892
S'CHEMBL1396'
p893
asS'O15379'
p894
(lp895
S'CHEMBL98'
p896
asS'P21397'
p897
(lp898
S'CHEMBL313833'
p899
aS'CHEMBL673'
p900
aS'CHEMBL1089'
p901
aS'CHEMBL1201168'
p902
asS'P12268'
p903
(lp904
S'CHEMBL727'
p905
aS'CHEMBL1456'
p906
aS'CHEMBL866'
p907
asS'Q9UBN7'
p908
(lp909
S'CHEMBL98'
p910
asS'Q92731'
p911
(lp912
S'CHEMBL1200761'
p913
aS'CHEMBL81'
p914
asS'P28222'
p915
(lp916
S'CHEMBL1185'
p917
aS'CHEMBL1505'
p918
aS'CHEMBL1279'
p919
aS'CHEMBL1510'
p920
aS'CHEMBL128'
p921
aS'CHEMBL905'
p922
aS'CHEMBL1278'
p923
asS'O15554'
p924
(lp925
S'CHEMBL1371'
p926
asS'P08631'
p927
(lp928
S'CHEMBL288441'
p929
asS'P10827'
p930
(lp931
S'CHEMBL1544'
p932
aS'CHEMBL1624'
p933
aS'CHEMBL559'
p934
asS'P80404'
p935
(lp936
S'CHEMBL89598'
p937
asS'P10613'
p938
(lp939
S'CHEMBL91'
p940
aS'CHEMBL638'
p941
aS'CHEMBL1262'
p942
aS'CHEMBL104'
p943
aS'CHEMBL808'
p944
aS'CHEMBL1200438'
p945
aS'CHEMBL2105689'
p946
aS'CHEMBL295698'
p947
aS'CHEMBL22587'
p948
aS'CHEMBL1201196'
p949
aS'CHEMBL1221'
p950
aS'CHEMBL1397'
p951
aS'CHEMBL1295'
p952
aS'CHEMBL1306'
p953
aS'CHEMBL106'
p954
asS'P07947'
p955
(lp956
S'CHEMBL1421'
p957
asS'Q02750'
p958
(lp959
S'CHEMBL2103875'
p960
asS'P21964'
p961
(lp962
S'CHEMBL1324'
p963
aS'CHEMBL953'
p964
asS'Q16832'
p965
(lp966
S'CHEMBL1946170'
p967
asS'P04035'
p968
(lp969
S'CHEMBL1201753'
p970
aS'CHEMBL1496'
p971
aS'CHEMBL2220442'
p972
aS'CHEMBL1477'
p973
aS'CHEMBL1487'
p974
asS'Q9BQB6'
p975
(lp976
S'CHEMBL16694'
p977
aS'CHEMBL711'
p978
aS'CHEMBL43154'
p979
aS'CHEMBL1464'
p980
asS'P48371'
p981
(lp982
S'CHEMBL826'
p983
asS'Q08881'
p984
(lp985
S'CHEMBL477772'
p986
asS'P07948'
p987
(lp988
S'CHEMBL288441'
p989
asS'P07949'
p990
(lp991
S'CHEMBL1336'
p992
aS'CHEMBL535'
p993
aS'CHEMBL1946170'
p994
aS'CHEMBL24828'
p995
asS'P00533'
p996
(lp997
S'CHEMBL24828'
p998
aS'CHEMBL939'
p999
aS'CHEMBL553'
p1000
aS'CHEMBL554'
p1001
aS'CHEMBL1173655'
p1002
asS'P72524'
p1003
(lp1004
S'CHEMBL33'
p1005
aS'CHEMBL430'
p1006
aS'CHEMBL31'
p1007
aS'CHEMBL583'
p1008
asS'Q9Y271'
p1009
(lp1010
S'CHEMBL603'
p1011
aS'CHEMBL787'
p1012
asS'P07333'
p1013
(lp1014
S'CHEMBL477772'
p1015
aS'CHEMBL535'
p1016
asS'P05091'
p1017
(lp1018
S'CHEMBL964'
p1019
asS'P29218'
p1020
(lp1021
S'CHEMBL1200826'
p1022
aS'CHEMBL1201170'
p1023
asS'P0C0X1'
p1024
(lp1025
S'CHEMBL1570'
p1026
aS'CHEMBL1043'
p1027
asS'P38435'
p1028
(lp1029
S'CHEMBL712'
p1030
asS'P21728'
p1031
(lp1032
S'CHEMBL588'
p1033
asS'P07101'
p1034
(lp1035
S'CHEMBL1200862'
p1036
asS'P13569'
p1037
(lp1038
S'CHEMBL2010601'
p1039
asS'P14416'
p1040
(lp1041
S'CHEMBL708'
p1042
aS'CHEMBL1201328'
p1043
aS'CHEMBL301265'
p1044
aS'CHEMBL589'
p1045
aS'CHEMBL71'
p1046
aS'CHEMBL85'
p1047
aS'CHEMBL564'
p1048
aS'CHEMBL831'
p1049
aS'CHEMBL715'
p1050
aS'CHEMBL716'
p1051
aS'CHEMBL1200986'
p1052
aS'CHEMBL54'
p1053
aS'CHEMBL479'
p1054
aS'CHEMBL1108'
p1055
aS'CHEMBL1764'
p1056
aS'CHEMBL1303'
p1057
aS'CHEMBL1237021'
p1058
aS'CHEMBL422'
p1059
aS'CHEMBL42'
p1060
aS'CHEMBL1378'
p1061
aS'CHEMBL1201756'
p1062
aS'CHEMBL1201'
p1063
aS'CHEMBL1200951'
p1064
aS'CHEMBL728'
p1065
aS'CHEMBL1088'
p1066
aS'CHEMBL1621'
p1067
aS'CHEMBL1200854'
p1068
aS'CHEMBL726'
p1069
aS'CHEMBL14376'
p1070
aS'CHEMBL1112'
p1071
aS'CHEMBL570'
p1072
aS'CHEMBL1085'
p1073
aS'CHEMBL644'
p1074
aS'CHEMBL908'
p1075
aS'CHEMBL1201250'
p1076
aS'CHEMBL460'
p1077
aS'CHEMBL86'
p1078
aS'CHEMBL567'
p1079
asS'Q7L0J3'
p1080
(lp1081
S'CHEMBL1286'
p1082
asS'Q01668'
p1083
(lp1084
S'CHEMBL1480'
p1085
aS'CHEMBL1484'
p1086
aS'CHEMBL1491'
p1087
aS'CHEMBL23'
p1088
aS'CHEMBL1648'
p1089
aS'CHEMBL1726'
p1090
aS'CHEMBL193'
p1091
aS'CHEMBL6966'
p1092
aS'CHEMBL184412'
p1093
aS'CHEMBL1428'
p1094
aS'CHEMBL1237132'
p1095
asS'P11388'
p1096
(lp1097
S'CHEMBL58'
p1098
asS'F1L4P8'
p1099
(lp1100
S'CHEMBL1483'
p1101
aS'CHEMBL685'
p1102
aS'CHEMBL625'
p1103
asS'Q05586'
p1104
(lp1105
S'CHEMBL660'
p1106
aS'CHEMBL807'
p1107
aS'CHEMBL900'
p1108
aS'CHEMBL742'
p1109
aS'CHEMBL1094'
p1110
aS'CHEMBL1201293'
p1111
asS'P08235'
p1112
(lp1113
S'CHEMBL1480'
p1114
aS'CHEMBL1428'
p1115
asS'P18507'
p1116
(lp1117
S'CHEMBL646'
p1118
aS'CHEMBL655'
p1119
aS'CHEMBL1200472'
p1120
aS'CHEMBL407'
p1121
aS'CHEMBL451'
p1122
aS'CHEMBL454'
p1123
aS'CHEMBL967'
p1124
aS'CHEMBL968'
p1125
aS'CHEMBL1200733'
p1126
aS'CHEMBL526'
p1127
aS'CHEMBL1257'
p1128
aS'CHEMBL970'
p1129
aS'CHEMBL568'
p1130
aS'CHEMBL12'
p1131
aS'CHEMBL447'
p1132
aS'CHEMBL1522'
p1133
aS'CHEMBL580'
p1134
aS'CHEMBL931'
p1135
aS'CHEMBL1201317'
p1136
aS'CHEMBL440'
p1137
aS'CHEMBL441'
p1138
aS'CHEMBL448'
p1139
aS'CHEMBL450'
p1140
aS'CHEMBL856'
p1141
aS'CHEMBL1256'
p1142
aS'CHEMBL7413'
p1143
aS'CHEMBL1102'
p1144
aS'CHEMBL1341'
p1145
aS'CHEMBL979'
p1146
aS'CHEMBL70418'
p1147
aS'CHEMBL1201293'
p1148
aS'CHEMBL661'
p1149
aS'CHEMBL681'
p1150
aS'CHEMBL969'
p1151
aS'CHEMBL1200694'
p1152
aS'CHEMBL1213252'
p1153
aS'CHEMBL1200790'
p1154
aS'CHEMBL1200802'
p1155
aS'CHEMBL449'
p1156
aS'CHEMBL452'
p1157
aS'CHEMBL1201169'
p1158
aS'CHEMBL591'
p1159
asS'P18505'
p1160
(lp1161
S'CHEMBL911'
p1162
aS'CHEMBL1521'
p1163
asS'Q00975'
p1164
(lp1165
S'CHEMBL1286'
p1166
asS'P0A560'
p1167
(lp1168
S'CHEMBL44884'
p1169
asS'P16389'
p1170
(lp1171
S'CHEMBL821'
p1172
aS'CHEMBL184412'
p1173
aS'CHEMBL284348'
p1174
asS'P35348'
p1175
(lp1176
S'CHEMBL24778'
p1177
aS'CHEMBL1201216'
p1178
asS'P22102'
p1179
(lp1180
S'CHEMBL1201258'
p1181
asS'C4PKZ2'
p1182
(lp1183
S'CHEMBL625'
p1184
aS'CHEMBL685'
p1185
aS'CHEMBL1483'
p1186
asS'O75762'
p1187
(lp1188
S'CHEMBL256087'
p1189
asS'P00813'
p1190
(lp1191
S'CHEMBL1580'
p1192
asS'O95069'
p1193
(lp1194
S'CHEMBL931'
p1195
aS'CHEMBL1256'
p1196
aS'CHEMBL1257'
p1197
aS'CHEMBL1200694'
p1198
aS'CHEMBL1200733'
p1199
asS'P36888'
p1200
(lp1201
S'CHEMBL1336'
p1202
aS'CHEMBL535'
p1203
asS'P23219'
p1204
(lp1205
S'CHEMBL15770'
p1206
aS'CHEMBL956'
p1207
aS'CHEMBL1071'
p1208
aS'CHEMBL139'
p1209
aS'CHEMBL704'
p1210
aS'CHEMBL421'
p1211
aS'CHEMBL509'
p1212
aS'CHEMBL521'
p1213
aS'CHEMBL1297'
p1214
aS'CHEMBL527'
p1215
aS'CHEMBL1169'
p1216
aS'CHEMBL1021'
p1217
aS'CHEMBL1077'
p1218
aS'CHEMBL1120'
p1219
aS'CHEMBL1228'
p1220
aS'CHEMBL1201346'
p1221
aS'CHEMBL6'
p1222
aS'CHEMBL425'
p1223
aS'CHEMBL101'
p1224
aS'CHEMBL154'
p1225
aS'CHEMBL1020'
p1226
aS'CHEMBL898'
p1227
aS'CHEMBL25'
p1228
aS'CHEMBL469'
p1229
aS'CHEMBL563'
p1230
aS'CHEMBL112'
p1231
aS'CHEMBL571'
p1232
aS'CHEMBL686'
p1233
asS'P37288'
p1234
(lp1235
S'CHEMBL1755'
p1236
asS'P47989'
p1237
(lp1238
S'CHEMBL1164729'
p1239
aS'CHEMBL1467'
p1240
asS'P00918'
p1241
(lp1242
S'CHEMBL17'
p1243
aS'CHEMBL20'
p1244
aS'CHEMBL19'
p1245
aS'CHEMBL218490'
p1246
aS'CHEMBL220491'
p1247
asS'P22748'
p1248
(lp1249
S'CHEMBL20'
p1250
aS'CHEMBL17'
p1251
aS'CHEMBL19'
p1252
asS'P00325'
p1253
(lp1254
S'CHEMBL1308'
p1255
asS'P11274'
p1256
(lp1257
S'CHEMBL1171837'
p1258
asS'P07451'
p1259
(lp1260
S'CHEMBL18'
p1261
asS'P20648'
p1262
(lp1263
S'CHEMBL1201320'
p1264
aS'CHEMBL1502'
p1265
aS'CHEMBL1201863'
p1266
aS'CHEMBL1503'
p1267
aS'CHEMBL1219'
p1268
aS'CHEMBL480'
p1269
asS'Q2G113'
p1270
(lp1271
S'CHEMBL409542'
p1272
asS'O60674'
p1273
(lp1274
S'CHEMBL1789941'
p1275
asS'O00519'
p1276
(lp1277
S'CHEMBL112'
p1278
asS'P00915'
p1279
(lp1280
S'CHEMBL20'
p1281
aS'CHEMBL17'
p1282
aS'CHEMBL19'
p1283
aS'CHEMBL1201117'
p1284
asS'P12821'
p1285
(lp1286
S'CHEMBL1560'
p1287
aS'CHEMBL1581'
p1288
aS'CHEMBL1592'
p1289
aS'CHEMBL431'
p1290
aS'CHEMBL1165'
p1291
aS'CHEMBL577'
p1292
aS'CHEMBL3039598'
p1293
aS'CHEMBL838'
p1294
aS'CHEMBL1168'
p1295
aS'CHEMBL1519'
p1296
aS'CHEMBL578'
p1297
aS'CHEMBL1237'
p1298
asS'P04049'
p1299
(lp1300
S'CHEMBL1946170'
p1301
aS'CHEMBL1336'
p1302
asS'P49327'
p1303
(lp1304
S'CHEMBL175247'
p1305
asS'P95114'
p1306
(lp1307
S'CHEMBL771'
p1308
asS'P00750'
p1309
(lp1310
S'CHEMBL1046'
p1311
asS'Q04844'
p1312
(lp1313
S'CHEMBL1190'
p1314
aS'CHEMBL1360'
p1315
aS'CHEMBL1182833'
p1316
aS'CHEMBL1237123'
p1317
aS'CHEMBL360055'
p1318
aS'CHEMBL1201248'
p1319
aS'CHEMBL703'
p1320
asS'P30556'
p1321
(lp1322
S'CHEMBL813'
p1323
aS'CHEMBL191'
p1324
aS'CHEMBL1017'
p1325
aS'CHEMBL1513'
p1326
aS'CHEMBL1200692'
p1327
aS'CHEMBL1069'
p1328
aS'CHEMBL2028661'
p1329
aS'CHEMBL1014'
p1330
asS'P0A4X2'
p1331
(lp1332
S'CHEMBL771'
p1333
asS'P35462'
p1334
(lp1335
S'CHEMBL1009'
p1336
aS'CHEMBL908'
p1337
asS'P43166'
p1338
(lp1339
S'CHEMBL19'
p1340
asS'P36507'
p1341
(lp1342
S'CHEMBL2103875'
p1343
asS'Q14432'
p1344
(lp1345
S'CHEMBL799'
p1346
aS'CHEMBL189'
p1347
aS'CHEMBL12856'
p1348
asS'P30531'
p1349
(lp1350
S'CHEMBL1027'
p1351
asS'P11926'
p1352
(lp1353
S'CHEMBL830'
p1354
asS'Q9NSA0'
p1355
(lp1356
S'CHEMBL897'
p1357
asS'P51649'
p1358
(lp1359
S'CHEMBL109'
p1360
asS'P05108'
p1361
(lp1362
S'CHEMBL488'
p1363
aS'CHEMBL1670'
p1364
asS'Q08493'
p1365
(lp1366
S'CHEMBL1493'
p1367
aS'CHEMBL193240'
p1368
aS'CHEMBL1096'
p1369
asS'P95029'
p1370
(lp1371
S'CHEMBL614'
p1372
asS'O60706'
p1373
(lp1374
S'CHEMBL802'
p1375
aS'CHEMBL1159'
p1376
asS'P14679'
p1377
(lp1378
S'CHEMBL544'
p1379
aS'CHEMBL1388'
p1380
aS'CHEMBL1200522'
p1381
asS'Q15413'
p1382
(lp1383
S'CHEMBL1201288'
p1384
asS'P31327'
p1385
(lp1386
S'CHEMBL1201780'
p1387
asS'P22607'
p1388
(lp1389
S'CHEMBL477772'
p1390
asS'P15538'
p1391
(lp1392
S'CHEMBL1670'
p1393
asS'P20711'
p1394
(lp1395
S'CHEMBL1201236'
p1396
asS'P54764'
p1397
(lp1398
S'CHEMBL24828'
p1399
asS'Q13936'
p1400
(lp1401
S'CHEMBL940'
p1402
aS'CHEMBL1059'
p1403
aS'CHEMBL1628502'
p1404
aS'CHEMBL1008'
p1405
asS'Q13946'
p1406
(lp1407
S'CHEMBL1493'
p1408
asS'P00519'
p1409
(lp1410
S'CHEMBL1171837'
p1411
aS'CHEMBL255863'
p1412
aS'CHEMBL288441'
p1413
aS'CHEMBL1421'
p1414
aS'CHEMBL1946170'
p1415
aS'CHEMBL941'
p1416
aS'CHEMBL1171837'
p1417
asS'O76074'
p1418
(lp1419
S'CHEMBL932'
p1420
aS'CHEMBL779'
p1421
aS'CHEMBL192'
p1422
aS'CHEMBL1520'
p1423
aS'CHEMBL1963681'
p1424
asS'P04818'
p1425
(lp1426
S'CHEMBL1201258'
p1427
asS'Q12809'
p1428
(lp1429
S'CHEMBL184412'
p1430
aS'CHEMBL633'
p1431
aS'CHEMBL473'
p1432
aS'CHEMBL533'
p1433
aS'CHEMBL471'
p1434
asS'P04293'
p1435
(lp1436
S'CHEMBL880'
p1437
aS'CHEMBL666'
p1438
asS'Q02108'
p1439
(lp1440
S'CHEMBL2097081'
p1441
aS'CHEMBL1200689'
p1442
aS'CHEMBL730'
p1443
aS'CHEMBL2107834'
p1444
asS'Q13547'
p1445
(lp1446
S'CHEMBL98'
p1447
asS'P00747'
p1448
(lp1449
S'CHEMBL877'
p1450
aS'CHEMBL1046'
p1451
asS'P0AES6'
p1452
(lp1453
S'CHEMBL9'
p1454
aS'CHEMBL32'
p1455
aS'CHEMBL8'
p1456
aS'CHEMBL1208'
p1457
aS'CHEMBL1201197'
p1458
aS'CHEMBL4'
p1459
aS'CHEMBL428'
p1460
aS'CHEMBL850'
p1461
aS'CHEMBL1201760'
p1462
aS'CHEMBL561'
p1463
aS'CHEMBL5'
p1464
asS'P13631'
p1465
(lp1466
S'CHEMBL1657'
p1467
aS'CHEMBL1265'
p1468
asS'P05106'
p1469
(lp1470
S'CHEMBL916'
p1471
asS'P06239'
p1472
(lp1473
S'CHEMBL1421'
p1474
aS'CHEMBL477772'
p1475
asS'P00742'
p1476
(lp1477
S'CHEMBL198362'
p1478
aS'CHEMBL231779'
p1479
asS'P48167'
p1480
(lp1481
S'CHEMBL931'
p1482
aS'CHEMBL1256'
p1483
aS'CHEMBL1341'
p1484
aS'CHEMBL1200733'
p1485
aS'CHEMBL1200694'
p1486
aS'CHEMBL1257'
p1487
asS'P11362'
p1488
(lp1489
S'CHEMBL477772'
p1490
aS'CHEMBL1946170'
p1491
asS'P41145'
p1492
(lp1493
S'CHEMBL1254682'
p1494
aS'CHEMBL33986'
p1495
aS'CHEMBL1201347'
p1496
aS'CHEMBL1685'
p1497
asS'P28335'
p1498
(lp1499
S'CHEMBL360328'
p1500
aS'CHEMBL669'
p1501
aS'CHEMBL716'
p1502
aS'CHEMBL85'
p1503
aS'CHEMBL644'
p1504
aS'CHEMBL715'
p1505
aS'CHEMBL1201328'
p1506
aS'CHEMBL479'
p1507
aS'CHEMBL1201342'
p1508
aS'CHEMBL422'
p1509
aS'CHEMBL831'
p1510
aS'CHEMBL908'
p1511
aS'CHEMBL621'
p1512
aS'CHEMBL623'
p1513
aS'CHEMBL654'
p1514
aS'CHEMBL708'
p1515
asS'Q7Z418'
p1516
(lp1517
S'CHEMBL931'
p1518
aS'CHEMBL1256'
p1519
aS'CHEMBL1257'
p1520
aS'CHEMBL1200694'
p1521
aS'CHEMBL1200733'
p1522
asS'Q7ZJM1'
p1523
(lp1524
S'CHEMBL1229211'
p1525
aS'CHEMBL204656'
p1526
aS'CHEMBL254316'
p1527
asS'P0A7J3'
p1528
(lp1529
S'CHEMBL1506'
p1530
aS'CHEMBL130'
p1531
aS'CHEMBL1201281'
p1532
asS'P09619'
p1533
(lp1534
S'CHEMBL1946170'
p1535
aS'CHEMBL477772'
p1536
aS'CHEMBL535'
p1537
aS'CHEMBL1336'
p1538
aS'CHEMBL941'
p1539
aS'CHEMBL1421'
p1540
asS'Q05940'
p1541
(lp1542
S'CHEMBL612'
p1543
aS'CHEMBL1201222'
p1544
aS'CHEMBL117785'
p1545
aS'CHEMBL1201358'
p1546
asS'P12931'
p1547
(lp1548
S'CHEMBL24828'
p1549
aS'CHEMBL288441'
p1550
asS'P0AEK4'
p1551
(lp1552
S'CHEMBL496'
p1553
aS'CHEMBL849'
p1554
asS'P31350'
p1555
(lp1556
S'CHEMBL467'
p1557
asS'P21917'
p1558
(lp1559
S'CHEMBL1423'
p1560
aS'CHEMBL1113'
p1561
asS'Q25704'
p1562
(lp1563
S'CHEMBL1201056'
p1564
aS'CHEMBL1539'
p1565
asS'P03474'
p1566
(lp1567
S'CHEMBL222813'
p1568
aS'CHEMBL1229'
p1569
asS'Q99808'
p1570
(lp1571
S'CHEMBL932'
p1572
asS'Q96S37'
p1573
(lp1574
S'CHEMBL832'
p1575
asS'Q03283'
p1576
(lp1577
S'CHEMBL734'
p1578
asS'Q9NR96'
p1579
(lp1580
S'CHEMBL1535'
p1581
asS'P13922'
p1582
(lp1583
S'CHEMBL1377'
p1584
aS'CHEMBL747'
p1585
aS'CHEMBL36'
p1586
asS'Q24982'
p1587
(lp1588
S'CHEMBL1401'
p1589
asS'Q15842'
p1590
(lp1591
S'CHEMBL181'
p1592
asS'P49841'
p1593
(lp1594
S'CHEMBL1200826'
p1595
aS'CHEMBL1201170'
p1596
asS'P20309'
p1597
(lp1598
S'CHEMBL1201232'
p1599
aS'CHEMBL1201764'
p1600
aS'CHEMBL1201335'
p1601
aS'CHEMBL1201338'
p1602
aS'CHEMBL1201344'
p1603
aS'CHEMBL524004'
p1604
aS'CHEMBL1201268'
p1605
aS'CHEMBL517712'
p1606
aS'CHEMBL1180725'
p1607
aS'CHEMBL1186610'
p1608
aS'CHEMBL1194325'
p1609
aS'CHEMBL1201354'
p1610
aS'CHEMBL1187833'
p1611
aS'CHEMBL620'
p1612
aS'CHEMBL1201325'
p1613
aS'CHEMBL1734'
p1614
aS'CHEMBL550'
p1615
aS'CHEMBL1231'
p1616
aS'CHEMBL168815'
p1617
aS'CHEMBL1382'
p1618
aS'CHEMBL1482'
p1619
aS'CHEMBL1182657'
p1620
aS'CHEMBL1201286'
p1621
aS'CHEMBL667'
p1622
aS'CHEMBL965'
p1623
aS'CHEMBL978'
p1624
aS'CHEMBL1123'
p1625
aS'CHEMBL1346'
p1626
aS'CHEMBL1201340'
p1627
aS'CHEMBL1495'
p1628
aS'CHEMBL1615433'
p1629
aS'CHEMBL1200604'
p1630
asS'Q962H3'
p1631
(lp1632
S'CHEMBL976'
p1633
asS'P08684'
p1634
(lp1635
S'CHEMBL2095208'
p1636
asS'A2PZ98'
p1637
(lp1638
S'CHEMBL1200468'
p1639
asS'P11511'
p1640
(lp1641
S'CHEMBL1444'
p1642
aS'CHEMBL488'
p1643
aS'CHEMBL1399'
p1644
aS'CHEMBL1571'
p1645
as.