(dp1
S'PF01280'
p2
(lp3
S'G4LVM3'
p4
aS'C7TY97'
p5
asS'PF14318'
p6
(lp7
sS'PF09298'
p8
(lp9
sS'PB020830'
p10
(lp11
sS'PF01288'
p12
(lp13
sS'PF09292'
p14
(lp15
sS'PF09291'
p16
(lp17
sS'PF09294'
p18
(lp19
sS'PF01111'
p20
(lp21
S'Q5BSH4'
p22
aS'G4VHW3'
p23
asS'PF01112'
p24
(lp25
S'Q5DEJ8'
p26
aS'G4V9Q9'
p27
asS'PF01113'
p28
(lp29
sS'PF01114'
p30
(lp31
sS'PB000564'
p32
(lp33
sS'PF01116'
p34
(lp35
sS'PF01118'
p36
(lp37
S'G4M1C4'
p38
asS'PF01119'
p39
(lp40
S'G4V9Y8'
p41
asS'PF11791'
p42
(lp43
sS'PF11794'
p44
(lp45
sS'PF09349'
p46
(lp47
sS'PF02709'
p48
(lp49
S'Q5D9C1'
p50
aS'G4VRQ9'
p51
asS'PF01738'
p52
(lp53
sS'PF01739'
p54
(lp55
sS'PF09127'
p56
(lp57
S'G4M023'
p58
asS'PF03441'
p59
(lp60
S'G4V887'
p61
asS'PF09122'
p62
(lp63
sS'PF01731'
p64
(lp65
sS'PB023821'
p66
(lp67
sS'PF01733'
p68
(lp69
S'G4LUK2'
p70
aS'Q5DE61'
p71
asS'PF01734'
p72
(lp73
S'Q5C3J6'
p74
aS'G4M003'
p75
asS'PF01735'
p76
(lp77
sS'PF13659'
p78
(lp79
S'G4VIS8'
p80
asS'PF00733'
p81
(lp82
S'G4VQC9'
p83
asS'PF00884'
p84
(lp85
sS'PF00731'
p86
(lp87
sS'PF00730'
p88
(lp89
S'G4V5S0'
p90
aS'Q5BZ67'
p91
asS'PF00881'
p92
(lp93
sS'PF00883'
p94
(lp95
S'Q5BZC8'
p96
aS'D6BNU4'
p97
asS'PF00882'
p98
(lp99
sS'PF13499'
p100
(lp101
S'A5A6F6'
p102
aS'G4LUD9'
p103
aS'C7TYD4'
p104
asS'PB004309'
p105
(lp106
sS'PF08501'
p107
(lp108
sS'PF08502'
p109
(lp110
sS'PF05544'
p111
(lp112
sS'PF01609'
p113
(lp114
sS'PB019455'
p115
(lp116
sS'PF01607'
p117
(lp118
sS'PF01602'
p119
(lp120
S'G4VMT3'
p121
aS'Q5BVY0'
p122
asS'PF01603'
p123
(lp124
S'Q5DF25'
p125
aS'G4LUX9'
p126
asS'PB015729'
p127
(lp128
sS'PF01425'
p129
(lp130
S'G4LYL3'
p131
aS'Q5BZ72'
p132
asS'PF01426'
p133
(lp134
S'G4M0T8'
p135
aS'Q5C2H0'
p136
asS'PF01421'
p137
(lp138
S'C4QGD8'
p139
asS'PF01423'
p140
(lp141
S'C1M0J1'
p142
aS'Q5BS47'
p143
asS'PF10276'
p144
(lp145
S'G4VRJ2'
p146
aS'Q5DC02'
p147
asS'PB000174'
p148
(lp149
sS'PF12838'
p150
(lp151
S'Q5DHM4'
p152
aS'G4VRD8'
p153
asS'PF12833'
p154
(lp155
sS'PF08725'
p156
(lp157
S'E7BBC0'
p158
aS'Q5C0L6'
p159
asS'PF08727'
p160
(lp161
sS'PF01565'
p162
(lp163
sS'PF04095'
p164
(lp165
S'Q5C0I2'
p166
aS'G4VE80'
p167
asS'PF00089'
p168
(lp169
S'G8XRZ2'
p170
aS'C4QUA1'
p171
aS'Q8MUV5'
p172
asS'PF00088'
p173
(lp174
S'G4V8C4'
p175
aS'Q5BYN2'
p176
asS'PF00085'
p177
(lp178
S'B3GUT5'
p179
aS'C4QPB5'
p180
asS'PF00084'
p181
(lp182
S'C4QRP9'
p183
asS'PF00086'
p184
(lp185
S'G4V9C6'
p186
asS'PF00081'
p187
(lp188
S'G4VSQ5'
p189
aS'Q5DGW3'
p190
asS'PF00080'
p191
(lp192
S'G4M0C9'
p193
aS'Q5BWZ1'
p194
asS'PF00083'
p195
(lp196
S'Q5BWK4'
p197
aS'G4V9R8'
p198
asS'PF04099'
p199
(lp200
S'Q5DF44'
p201
aS'G4M0H2'
p202
asS'PB029690'
p203
(lp204
sS'PF00436'
p205
(lp206
sS'PB021689'
p207
(lp208
sS'PF07969'
p209
(lp210
sS'PB008012'
p211
(lp212
sS'PF07966'
p213
(lp214
S'Q8MPH4'
p215
asS'PF00645'
p216
(lp217
S'G4M0L0'
p218
aS'Q5BY75'
p219
asS'PF00644'
p220
(lp221
S'G4M0L0'
p222
aS'Q5BW72'
p223
asS'PF00643'
p224
(lp225
S'G4LUA6'
p226
asS'PF00641'
p227
(lp228
S'C7TZJ1'
p229
aS'G4LUQ0'
p230
asS'PF00640'
p231
(lp232
S'Q5BZM3'
p233
aS'G4VI23'
p234
asS'PF00067'
p235
(lp236
S'Q5D9Z5'
p237
aS'G4VF77'
p238
asS'PF00064'
p239
(lp240
sS'PF00063'
p241
(lp242
S'G4M0G5'
p243
aS'Q5C0P5'
p244
asS'PF00062'
p245
(lp246
sS'PF00061'
p247
(lp248
S'G4M130'
p249
aS'A5A6F5'
p250
aS'B5B7Q8'
p251
asS'PF00060'
p252
(lp253
S'G4V5I7'
p254
aS'Q5DFY7'
p255
asS'PF04042'
p256
(lp257
S'G4V6L8'
p258
aS'Q5C0B8'
p259
asS'PB013916'
p260
(lp261
sS'PF00069'
p262
(lp263
S'C1M0Q3'
p264
aS'B3GUQ1'
p265
aS'D2JVC2'
p266
asS'PF00068'
p267
(lp268
sS'PB012567'
p269
(lp270
sS'PF11798'
p271
(lp272
S'G4VDB0'
p273
asS'PF14370'
p274
(lp275
S'Q3KTH0'
p276
aS'G4VRG0'
p277
asS'PF04704'
p278
(lp279
sS'PB015345'
p280
(lp281
sS'PF13473'
p282
(lp283
sS'PF06964'
p284
(lp285
sS'PB054378'
p286
(lp287
sS'PF06968'
p288
(lp289
sS'PB001574'
p290
(lp291
S'Q6T6C6'
p292
asS'PB001576'
p293
(lp294
sS'PB004051'
p295
(lp296
sS'PF01568'
p297
(lp298
sS'PF00398'
p299
(lp300
S'G4LXG3'
p301
aS'Q5D8X3'
p302
asS'PF00469'
p303
(lp304
sS'PB000687'
p305
(lp306
S'G4VAL5'
p307
asS'PB019526'
p308
(lp309
sS'PF00391'
p310
(lp311
sS'PF00462'
p312
(lp313
S'Q5BS26'
p314
aS'G4M055'
p315
asS'PF00393'
p316
(lp317
S'Q5C0T5'
p318
aS'G4VCY4'
p319
asS'PF00392'
p320
(lp321
sS'PF00467'
p322
(lp323
S'G4LWB3'
p324
aS'Q5DC44'
p325
asS'PF00394'
p326
(lp327
sS'PF00465'
p328
(lp329
sS'PF00464'
p330
(lp331
S'C7TZH7'
p332
aS'G4V7S8'
p333
asS'PF02210'
p334
(lp335
S'G4M1W9'
p336
aS'Q5C0G2'
p337
asS'PB002234'
p338
(lp339
sS'PB035473'
p340
(lp341
sS'PB000350'
p342
(lp343
sS'PB024150'
p344
(lp345
sS'PB000198'
p346
(lp347
sS'PF00264'
p348
(lp349
S'G4LWK1'
p350
aS'H6QX60'
p351
asS'PF00267'
p352
(lp353
sS'PF00266'
p354
(lp355
S'G4LZ70'
p356
aS'Q5BTL9'
p357
asS'PF00262'
p358
(lp359
S'C7TZV6'
p360
aS'C4Q5I7'
p361
asS'PF06815'
p362
(lp363
sS'PB004699'
p364
(lp365
sS'PF06817'
p366
(lp367
sS'PB000194'
p368
(lp369
sS'PF00268'
p370
(lp371
S'Q5BRK1'
p372
aS'C4QCA2'
p373
asS'PB007345'
p374
(lp375
sS'PF06632'
p376
(lp377
S'G4VPG1'
p378
asS'PB062645'
p379
(lp380
sS'PF06387'
p381
(lp382
sS'PB012186'
p383
(lp384
sS'PB025564'
p385
(lp386
sS'PF08919'
p387
(lp388
S'D1H0Y8'
p389
asS'PF14791'
p390
(lp391
sS'PB002129'
p392
(lp393
S'Q5BVJ4'
p394
aS'G4V7V3'
p395
asS'PB006326'
p396
(lp397
sS'PB080428'
p398
(lp399
sS'PB000228'
p400
(lp401
sS'PF14554'
p402
(lp403
sS'PF01056'
p404
(lp405
sS'PF11924'
p406
(lp407
sS'PB004877'
p408
(lp409
sS'PF12213'
p410
(lp411
sS'PB004875'
p412
(lp413
sS'PB014038'
p414
(lp415
sS'PF13018'
p416
(lp417
sS'PF02600'
p418
(lp419
sS'PF02244'
p420
(lp421
S'C4N149'
p422
aS'C4QKW6'
p423
asS'PB003552'
p424
(lp425
sS'PF08881'
p426
(lp427
sS'PF01555'
p428
(lp429
sS'PB034716'
p430
(lp431
sS'PF08343'
p432
(lp433
sS'PB016728'
p434
(lp435
sS'PB046198'
p436
(lp437
sS'PF08436'
p438
(lp439
sS'PF11889'
p440
(lp441
sS'PF09129'
p442
(lp443
sS'PF13302'
p444
(lp445
S'G4LW68'
p446
asS'PF13306'
p447
(lp448
sS'PF03460'
p449
(lp450
sS'PF03466'
p451
(lp452
S'Q5C0H2'
p453
asS'PB011878'
p454
(lp455
sS'PB005886'
p456
(lp457
sS'PF03264'
p458
(lp459
sS'PF03261'
p460
(lp461
S'G4VHQ3'
p462
asS'PB041778'
p463
(lp464
sS'PF02391'
p465
(lp466
S'Q5D8Y9'
p467
asS'PF02645'
p468
(lp469
sS'PB080318'
p470
(lp471
sS'PF02394'
p472
(lp473
sS'PB000991'
p474
(lp475
sS'PB021863'
p476
(lp477
sS'PF02025'
p478
(lp479
sS'PF05049'
p480
(lp481
sS'PF02022'
p482
(lp483
sS'PB014807'
p484
(lp485
sS'PF05735'
p486
(lp487
sS'PF05047'
p488
(lp489
S'G4LVF9'
p490
aS'Q5BRS6'
p491
asS'PB001379'
p492
(lp493
S'G4M0E5'
p494
asS'PF02803'
p495
(lp496
S'G4VEI2'
p497
aS'Q5BSM6'
p498
asS'PF02801'
p499
(lp500
S'G4VIH2'
p501
asS'PF02800'
p502
(lp503
S'G4V5I1'
p504
aS'C7TRL0'
p505
asS'PF02807'
p506
(lp507
S'Q5C104'
p508
aS'P16641'
p509
asS'PF02806'
p510
(lp511
S'Q5BYN9'
p512
aS'G4V966'
p513
asS'PF12009'
p514
(lp515
sS'PF02809'
p516
(lp517
S'G4V670'
p518
aS'Q5BYI2'
p519
asS'PF00885'
p520
(lp521
sS'PB050054'
p522
(lp523
sS'PF07837'
p524
(lp525
sS'PF00732'
p526
(lp527
S'Q5BZ92'
p528
aS'G4VPI5'
p529
asS'PF00887'
p530
(lp531
S'Q5DAB7'
p532
aS'G4M014'
p533
asS'PB001012'
p534
(lp535
sS'PF09289'
p536
(lp537
sS'PF00886'
p538
(lp539
S'Q5DEQ7'
p540
aS'G4LV29'
p541
asS'PF09281'
p542
(lp543
sS'PF09286'
p544
(lp545
sS'PF01129'
p546
(lp547
sS'PF01128'
p548
(lp549
sS'PF04958'
p550
(lp551
sS'PF01124'
p552
(lp553
S'G4VH65'
p554
aS'Q5DAX1'
p555
asS'PF01127'
p556
(lp557
S'Q5DC80'
p558
aS'G4V7H1'
p559
asS'PF01126'
p560
(lp561
sS'PF01121'
p562
(lp563
S'Q5BS45'
p564
aS'G4VI32'
p565
asS'PF04952'
p566
(lp567
sS'PF01123'
p568
(lp569
sS'PF01122'
p570
(lp571
sS'PB002840'
p572
(lp573
sS'PF09358'
p574
(lp575
S'Q86FX4'
p576
aS'G4VT46'
p577
asS'PF02734'
p578
(lp579
sS'PF02737'
p580
(lp581
sS'PF02736'
p582
(lp583
S'C7TZG8'
p584
aS'G4M0F9'
p585
asS'PF02739'
p586
(lp587
sS'PF02738'
p588
(lp589
sS'PF05426'
p590
(lp591
sS'PF09134'
p592
(lp593
sS'PF08403'
p594
(lp595
sS'PF00808'
p596
(lp597
S'G4LY28'
p598
aS'Q5DCN4'
p599
asS'PF01238'
p600
(lp601
S'G4V5T8'
p602
aS'Q5BWD9'
p603
asS'PF13669'
p604
(lp605
sS'PB140353'
p606
(lp607
sS'PF01389'
p608
(lp609
sS'PB000429'
p610
(lp611
sS'PF00890'
p612
(lp613
S'Q5BZ39'
p614
aS'G4LY63'
p615
asS'PF00891'
p616
(lp617
sS'PF00724'
p618
(lp619
sS'PF00725'
p620
(lp621
sS'PF00726'
p622
(lp623
sS'PF00728'
p624
(lp625
S'G4VEC1'
p626
aS'Q5C0G9'
p627
asS'PF01380'
p628
(lp629
S'G4VKP9'
p630
asS'PF13465'
p631
(lp632
S'Q5C084'
p633
aS'C1M0Z0'
p634
asS'PF00899'
p635
(lp636
S'Q5BTB5'
p637
aS'G4VBY2'
p638
asS'PB022499'
p639
(lp640
sS'PF13460'
p641
(lp642
S'Q5D9P7'
p643
aS'C4QQ81'
p644
asS'PB019465'
p645
(lp646
sS'PF05550'
p647
(lp648
sS'PF07952'
p649
(lp650
sS'PF08534'
p651
(lp652
sS'PF08530'
p653
(lp654
sS'PB018112'
p655
(lp656
sS'PF08715'
p657
(lp658
sS'PF08242'
p659
(lp660
S'G4VKK8'
p661
asS'PF08717'
p662
(lp663
sS'PF08716'
p664
(lp665
sS'PF08710'
p666
(lp667
sS'PF08245'
p668
(lp669
S'G4V6Z6'
p670
asS'PF08244'
p671
(lp672
sS'PF08718'
p673
(lp674
S'Q5BS48'
p675
aS'C1M142'
p676
asS'PB000162'
p677
(lp678
S'G4LZ82'
p679
asS'PF12826'
p680
(lp681
sS'PB000169'
p682
(lp683
sS'PF01259'
p684
(lp685
sS'PF00098'
p686
(lp687
S'G4VJQ7'
p688
aS'C9W184'
p689
asS'PF00092'
p690
(lp691
S'G4VPB0'
p692
asS'PF00093'
p693
(lp694
sS'PF00090'
p695
(lp696
S'G4V8Y0'
p697
aS'Q5C4K9'
p698
asS'PF00091'
p699
(lp700
S'Q5FYA5'
p701
aS'G4VBP8'
p702
aS'Q5BW30'
p703
asS'PF00096'
p704
(lp705
S'G4VAP2'
p706
aS'Q5BT35'
p707
asS'PF00094'
p708
(lp709
sS'PF01257'
p710
(lp711
S'Q5BT40'
p712
aS'G4VK53'
p713
asS'PF01704'
p714
(lp715
S'Q5BWC4'
p716
aS'G4VDL3'
p717
asS'PF01255'
p718
(lp719
S'G4VSC1'
p720
aS'B3GUV0'
p721
asS'PF00659'
p722
(lp723
S'D2XBL6'
p724
aS'Q5DEU3'
p725
asS'PF01250'
p726
(lp727
S'G4VNA1'
p728
aS'Q5DBB1'
p729
asS'PF00654'
p730
(lp731
S'Q5BR49'
p732
aS'G4M0B7'
p733
asS'PF00656'
p734
(lp735
S'C4Q500'
p736
aS'Q5C0Y4'
p737
asS'PF00657'
p738
(lp739
S'G4LZC1'
p740
aS'Q5DCP1'
p741
asS'PF00650'
p742
(lp743
S'G4M0L2'
p744
aS'Q5BZ08'
p745
asS'PF00651'
p746
(lp747
S'Q5BTF8'
p748
aS'C1M0Q4'
p749
asS'PF07972'
p750
(lp751
sS'PF07973'
p752
(lp753
S'G4V6P2'
p754
aS'Q5C0E7'
p755
asS'PF12796'
p756
(lp757
S'C7TY05'
p758
aS'G4LZI1'
p759
asS'PF00075'
p760
(lp761
S'Q5BXL7'
p762
aS'C1M257'
p763
asS'PF00076'
p764
(lp765
S'G4LVP3'
p766
aS'A4GU99'
p767
asS'PF00077'
p768
(lp769
S'Q4QQF7'
p770
aS'Q5C201'
p771
asS'PF00070'
p772
(lp773
S'B5THG7'
p774
aS'G4V8J4'
p775
asS'PF00071'
p776
(lp777
S'C4PY91'
p778
aS'A1XBS0'
p779
asS'PF00072'
p780
(lp781
sS'PF00073'
p782
(lp783
sS'PB005913'
p784
(lp785
sS'PF00078'
p786
(lp787
S'C1M102'
p788
aS'C7C209'
p789
asS'PF00079'
p790
(lp791
S'G4LYU5'
p792
aS'B2MV81'
p793
aS'Q26502'
p794
asS'PB021096'
p795
(lp796
sS'PF12799'
p797
(lp798
S'G4VKS6'
p799
aS'Q5DGE5'
p800
asS'PF14306'
p801
(lp802
S'G4VMD4'
p803
aS'A2SUQ9'
p804
asS'PF08666'
p805
(lp806
sS'PF08669'
p807
(lp808
S'G4V9G0'
p809
asS'PF07686'
p810
(lp811
S'G4VMC5'
p812
aS'Q5BWU0'
p813
asS'PF04777'
p814
(lp815
S'Q5DC50'
p816
aS'G4M193'
p817
asS'PF04775'
p818
(lp819
sS'PF00387'
p820
(lp821
S'G4VBK4'
p822
asS'PF00384'
p823
(lp824
S'G4LUK7'
p825
aS'Q5BXF5'
p826
asS'PF00385'
p827
(lp828
S'G4M0M3'
p829
aS'Q5BTJ2'
p830
asS'PB001584'
p831
(lp832
sS'PF00383'
p833
(lp834
S'Q5BSV3'
p835
aS'G4V9Y6'
p836
asS'PF00380'
p837
(lp838
S'Q5DAT2'
p839
aS'C4QII3'
p840
asS'PF00381'
p841
(lp842
sS'PF08399'
p843
(lp844
S'G4LXH5'
p845
asS'PF13848'
p846
(lp847
S'B3W657'
p848
aS'G4VMZ6'
p849
asS'PF00388'
p850
(lp851
S'G4VBK4'
p852
asS'PF00389'
p853
(lp854
S'G4M046'
p855
asS'PF00478'
p856
(lp857
S'G4V9I5'
p858
aS'Q5C0P0'
p859
asS'PF00479'
p860
(lp861
S'Q86EP4'
p862
aS'G4VAM6'
p863
asS'PF06522'
p864
(lp865
sS'PF01542'
p866
(lp867
sS'PF00473'
p868
(lp869
sS'PF00474'
p870
(lp871
S'G4VE28'
p872
aS'Q5BW20'
p873
asS'PF01541'
p874
(lp875
S'G4VEP1'
p876
aS'Q5C3I2'
p877
asS'PF00476'
p878
(lp879
S'Q5DHX5'
p880
aS'G4V9C1'
p881
asS'PF13688'
p882
(lp883
S'G4LXI4'
p884
asS'PB024587'
p885
(lp886
sS'PF07396'
p887
(lp888
sS'PF08983'
p889
(lp890
sS'PB020239'
p891
(lp892
sS'PF04607'
p893
(lp894
sS'PF03453'
p895
(lp896
S'G4LZ84'
p897
asS'PF04602'
p898
(lp899
sS'PF02515'
p900
(lp901
sS'PF00270'
p902
(lp903
S'C7TZN6'
p904
aS'C4QLP5'
p905
asS'PF00271'
p906
(lp907
S'G4LZZ0'
p908
aS'Q5BRE0'
p909
asS'PF00276'
p910
(lp911
S'Q5DFF9'
p912
aS'G4VLH8'
p913
asS'PF00274'
p914
(lp915
S'C7U000'
p916
aS'G4VJT9'
p917
asS'PF07555'
p918
(lp919
S'G4VET1'
p920
asS'PB000182'
p921
(lp922
S'G4VA15'
p923
aS'Q5BZY4'
p924
asS'PF00278'
p925
(lp926
sS'PB020308'
p927
(lp928
sS'PB000187'
p929
(lp930
sS'PF06827'
p931
(lp932
sS'PB022819'
p933
(lp934
sS'PB007356'
p935
(lp936
sS'PF00013'
p937
(lp938
S'G4LYQ9'
p939
aS'Q5BZP7'
p940
asS'PB020121'
p941
(lp942
sS'PB012197'
p943
(lp944
sS'PB000670'
p945
(lp946
sS'PB111101'
p947
(lp948
sS'PF03071'
p949
(lp950
S'Q5BVR5'
p951
aS'G4VFZ1'
p952
asS'PF03070'
p953
(lp954
sS'PB006356'
p955
(lp956
sS'PF03074'
p957
(lp958
S'G4LVH9'
p959
aS'Q5C216'
p960
asS'PB006353'
p961
(lp962
sS'PF00498'
p963
(lp964
S'C4QMA9'
p965
aS'Q5BW43'
p966
asS'PB000239'
p967
(lp968
sS'PF14522'
p969
(lp970
sS'PF14520'
p971
(lp972
S'Q5BVG3'
p973
aS'G4V6K0'
p974
asS'PF11918'
p975
(lp976
sS'PB105453'
p977
(lp978
sS'PF11587'
p979
(lp980
sS'PF02258'
p981
(lp982
sS'PF02259'
p983
(lp984
S'G4VCG1'
p985
asS'PF12254'
p986
(lp987
S'G4LX42'
p988
asS'PF02253'
p989
(lp990
sS'PF02256'
p991
(lp992
sS'PF02254'
p993
(lp994
S'G4V7I3'
p995
asS'PF12497'
p996
(lp997
sS'PB093864'
p998
(lp999
sS'PF03678'
p1000
(lp1001
sS'PF01497'
p1002
(lp1003
sS'PB335468'
p1004
(lp1005
sS'PB016278'
p1006
(lp1007
sS'PB017585'
p1008
(lp1009
sS'PB013277'
p1010
(lp1011
sS'PB031591'
p1012
(lp1013
sS'PB053466'
p1014
(lp1015
sS'PB041343'
p1016
(lp1017
sS'PF00082'
p1018
(lp1019
S'G4VKQ9'
p1020
asS'PB024420'
p1021
(lp1022
sS'PB016185'
p1023
(lp1024
sS'PF03494'
p1025
(lp1026
sS'PF03493'
p1027
(lp1028
S'C4QJB8'
p1029
asS'PF03491'
p1030
(lp1031
sS'PF14963'
p1032
(lp1033
sS'PF03709'
p1034
(lp1035
sS'PF03259'
p1036
(lp1037
S'G4VD69'
p1038
aS'Q5BS32'
p1039
asS'PF03705'
p1040
(lp1041
sS'PF00931'
p1042
(lp1043
S'G4VQU2'
p1044
asS'PF00253'
p1045
(lp1046
S'G4V8K8'
p1047
aS'Q5BTL1'
p1048
asS'PF03922'
p1049
(lp1050
sS'PF03921'
p1051
(lp1052
sS'PF00930'
p1053
(lp1054
S'G4VMP5'
p1055
asS'PF00734'
p1056
(lp1057
sS'PF07968'
p1058
(lp1059
sS'PF00933'
p1060
(lp1061
S'G4VRX3'
p1062
asS'PB101646'
p1063
(lp1064
sS'PF02776'
p1065
(lp1066
S'G4LZK6'
p1067
asS'PF14896'
p1068
(lp1069
sS'PB021686'
p1070
(lp1071
sS'PF02036'
p1072
(lp1073
sS'PB018063'
p1074
(lp1075
sS'PF13202'
p1076
(lp1077
S'G4V609'
p1078
aS'Q5BT96'
p1079
asS'PF02038'
p1080
(lp1081
sS'PF01817'
p1082
(lp1083
sS'PF05378'
p1084
(lp1085
sS'PF02811'
p1086
(lp1087
sS'PF02812'
p1088
(lp1089
S'Q5C192'
p1090
aS'G4LYZ1'
p1091
asS'PF02813'
p1092
(lp1093
sS'PF02815'
p1094
(lp1095
S'B3GUY9'
p1096
aS'G4M201'
p1097
asS'PB016696'
p1098
(lp1099
sS'PF13527'
p1100
(lp1101
sS'PF00255'
p1102
(lp1103
S'Q86EQ5'
p1104
aS'G4LX59'
p1105
asS'PF05090'
p1106
(lp1107
sS'PF01001'
p1108
(lp1109
sS'PB044626'
p1110
(lp1111
sS'PB032224'
p1112
(lp1113
sS'PF13249'
p1114
(lp1115
S'G4VI00'
p1116
aS'Q5D978'
p1117
asS'PB001002'
p1118
(lp1119
sS'PF13516'
p1120
(lp1121
S'G4V6I3'
p1122
aS'C7TZ26'
p1123
asS'PF01138'
p1124
(lp1125
S'G4M1E0'
p1126
aS'Q5BWV4'
p1127
asS'PF01139'
p1128
(lp1129
S'G4VH20'
p1130
aS'Q5C6U4'
p1131
asS'PF13510'
p1132
(lp1133
S'Q5C3Z8'
p1134
aS'G4LUK8'
p1135
asS'PF01130'
p1136
(lp1137
S'G4LUS7'
p1138
aS'Q5C1Q6'
p1139
asS'PF01131'
p1140
(lp1141
S'Q5BXA8'
p1142
aS'G4VFA7'
p1143
asS'PF04940'
p1144
(lp1145
sS'PF01137'
p1146
(lp1147
S'G4VQ15'
p1148
aS'Q5BSE7'
p1149
asS'PF13519'
p1150
(lp1151
S'G4VE22'
p1152
asS'PF01135'
p1153
(lp1154
S'Q5BXT6'
p1155
aS'G4VK42'
p1156
asS'PF13177'
p1157
(lp1158
S'Q5C286'
p1159
aS'G4VIB2'
p1160
asS'PF02728'
p1161
(lp1162
sS'PF02729'
p1163
(lp1164
S'G4VEM7'
p1165
asS'PF02727'
p1166
(lp1167
sS'PF12109'
p1168
(lp1169
sS'PB335883'
p1170
(lp1171
sS'PB009762'
p1172
(lp1173
sS'PB023808'
p1174
(lp1175
sS'PF04389'
p1176
(lp1177
S'Q5DCW2'
p1178
aS'G4VD11'
p1179
asS'PF01396'
p1180
(lp1181
S'G4VM01'
p1182
asS'PF09380'
p1183
(lp1184
S'C7TXT2'
p1185
aS'G4LVJ2'
p1186
asS'PF09382'
p1187
(lp1188
sS'PF01392'
p1189
(lp1190
S'G4VJK4'
p1191
aS'Q5C338'
p1192
asS'PF00300'
p1193
(lp1194
S'B3GUV6'
p1195
aS'G4LY94'
p1196
asS'PF01390'
p1197
(lp1198
S'G4VER0'
p1199
asS'PF01391'
p1200
(lp1201
S'Q5BVR7'
p1202
aS'G4V697'
p1203
asS'PF01627'
p1204
(lp1205
sS'PF01625'
p1206
(lp1207
sS'PF00719'
p1208
(lp1209
S'Q5DE13'
p1210
aS'G4VPE8'
p1211
asS'PF00718'
p1212
(lp1213
sS'PF00869'
p1214
(lp1215
sS'PF00868'
p1216
(lp1217
sS'PF13474'
p1218
(lp1219
sS'PF00866'
p1220
(lp1221
sS'PB019473'
p1222
(lp1223
sS'PF00716'
p1224
(lp1225
sS'PF00710'
p1226
(lp1227
S'Q5DEJ2'
p1228
aS'G4VJ31'
p1229
asS'PF13472'
p1230
(lp1231
S'Q5DA50'
p1232
aS'G4V708'
p1233
asS'PF00712'
p1234
(lp1235
sS'PB022267'
p1236
(lp1237
sS'PF02179'
p1238
(lp1239
S'G4LUU3'
p1240
aS'B3W677'
p1241
asS'PF05569'
p1242
(lp1243
sS'PB011666'
p1244
(lp1245
sS'PF08526'
p1246
(lp1247
sS'PF08527'
p1248
(lp1249
sS'PF08702'
p1250
(lp1251
sS'PF01408'
p1252
(lp1253
sS'PF08705'
p1254
(lp1255
sS'PF01406'
p1256
(lp1257
S'G4VAA5'
p1258
aS'Q5C2D6'
p1259
asS'PF01404'
p1260
(lp1261
sS'PF08709'
p1262
(lp1263
S'G4LXE8'
p1264
asS'PF01403'
p1265
(lp1266
S'G4VG15'
p1267
aS'Q5C7J3'
p1268
asS'PF01400'
p1269
(lp1270
S'Q5C3I1'
p1271
aS'G4VBI2'
p1272
asS'PF01401'
p1273
(lp1274
sS'PF12810'
p1275
(lp1276
sS'PF10251'
p1277
(lp1278
sS'PB027563'
p1279
(lp1280
sS'PF09401'
p1281
(lp1282
sS'PF03099'
p1283
(lp1284
S'G4VR13'
p1285
asS'PF01712'
p1286
(lp1287
S'Q5DFQ5'
p1288
aS'G4VMF8'
p1289
asS'PF01246'
p1290
(lp1291
S'G4VJ44'
p1292
aS'B3GUS5'
p1293
asS'PF03098'
p1294
(lp1295
S'G4VLK0'
p1296
aS'Q5C3T6'
p1297
asS'PF08412'
p1298
(lp1299
S'Q5DBU8'
p1300
aS'G4LUM2'
p1301
asS'PF04545'
p1302
(lp1303
sS'PF01242'
p1304
(lp1305
S'Q5DCA1'
p1306
aS'G4M0A6'
p1307
asS'PF01715'
p1308
(lp1309
S'G4VB83'
p1310
aS'Q5BVL0'
p1311
asS'PF07941'
p1312
(lp1313
sS'PF07943'
p1314
(lp1315
sS'PF00662'
p1316
(lp1317
sS'PF01248'
p1318
(lp1319
S'Q5C2L3'
p1320
aS'G4LUJ5'
p1321
asS'PF00664'
p1322
(lp1323
S'D5LRV4'
p1324
aS'Q5C7Z1'
p1325
asS'PF08418'
p1326
(lp1327
sS'PF00666'
p1328
(lp1329
sS'PF00041'
p1330
(lp1331
S'Q5BXN3'
p1332
aS'G4LY41'
p1333
asS'PF00040'
p1334
(lp1335
sS'PF00043'
p1336
(lp1337
S'G4LXB1'
p1338
aS'Q5BQZ0'
p1339
aS'P30114'
p1340
asS'PF00042'
p1341
(lp1342
S'B3GUR1'
p1343
aS'G4LZC6'
p1344
asS'PF00045'
p1345
(lp1346
S'G4VEJ3'
p1347
asS'PF00044'
p1348
(lp1349
S'G4V5I1'
p1350
aS'C7TRN6'
p1351
asS'PF00047'
p1352
(lp1353
S'G4V7H2'
p1354
asS'PF00046'
p1355
(lp1356
S'Q5C1S8'
p1357
aS'G4LU79'
p1358
asS'PB012504'
p1359
(lp1360
sS'PF00048'
p1361
(lp1362
sS'PB005922'
p1363
(lp1364
S'Q5BRV7'
p1365
aS'G4LX11'
p1366
asS'PF05199'
p1367
(lp1368
S'Q5C038'
p1369
aS'G4VPI5'
p1370
asS'PF04768'
p1371
(lp1372
sS'PB011319'
p1373
(lp1374
sS'PB029304'
p1375
(lp1376
sS'PB015364'
p1377
(lp1378
sS'PF08676'
p1379
(lp1380
S'G4LWS7'
p1381
asS'PB014740'
p1382
(lp1383
sS'PF08674'
p1384
(lp1385
sS'PF07476'
p1386
(lp1387
sS'PF00856'
p1388
(lp1389
S'G4LVC9'
p1390
aS'Q5BS94'
p1391
asS'PF00441'
p1392
(lp1393
S'Q5BYZ5'
p1394
aS'G4VCG4'
p1395
asS'PF00440'
p1396
(lp1397
sS'PB001595'
p1398
(lp1399
sS'PF13855'
p1400
(lp1401
S'G4VG51'
p1402
aS'Q3KZ54'
p1403
asS'PF08384'
p1404
(lp1405
sS'PF06941'
p1406
(lp1407
sS'PF00449'
p1408
(lp1409
sS'PF00448'
p1410
(lp1411
S'G4VDN9'
p1412
aS'C7TXS6'
p1413
asS'PF07703'
p1414
(lp1415
S'G4VNG4'
p1416
asS'PF07702'
p1417
(lp1418
sS'PF07701'
p1419
(lp1420
S'G4LU97'
p1421
asS'PF07700'
p1422
(lp1423
S'G4LU97'
p1424
asS'PF07707'
p1425
(lp1426
S'Q5BS16'
p1427
aS'G4LUY1'
p1428
asS'PF07706'
p1429
(lp1430
sS'PB014274'
p1431
(lp1432
sS'PB004056'
p1433
(lp1434
sS'PB021334'
p1435
(lp1436
sS'PB002213'
p1437
(lp1438
sS'PF10411'
p1439
(lp1440
sS'PB010859'
p1441
(lp1442
sS'PB006903'
p1443
(lp1444
sS'PF04619'
p1445
(lp1446
sS'PB035904'
p1447
(lp1448
sS'PF06832'
p1449
(lp1450
sS'PF06831'
p1451
(lp1452
sS'PF07831'
p1453
(lp1454
sS'PF07833'
p1455
(lp1456
sS'PF00011'
p1457
(lp1458
S'G4V8X3'
p1459
aS'Q5BS14'
p1460
asS'PF00289'
p1461
(lp1462
S'G4V7M2'
p1463
aS'Q5DDR2'
p1464
asS'PF00288'
p1465
(lp1466
S'G4LZ01'
p1467
aS'Q5BYG8'
p1468
asS'PF00540'
p1469
(lp1470
sS'PF00285'
p1471
(lp1472
S'G4LZD0'
p1473
aS'Q5D8S4'
p1474
asS'PF00282'
p1475
(lp1476
S'Q5BVX9'
p1477
aS'G4LVM4'
p1478
asS'PF00281'
p1479
(lp1480
S'Q5DAR3'
p1481
aS'G4VMJ4'
p1482
asS'PF00017'
p1483
(lp1484
S'G4VBP7'
p1485
aS'Q5BVT1'
p1486
asS'PF06325'
p1487
(lp1488
S'G4VGV6'
p1489
aS'Q5DFE1'
p1490
asS'PF00248'
p1491
(lp1492
S'Q5D8T1'
p1493
aS'G4LXR4'
p1494
asS'PF06617'
p1495
(lp1496
sS'PB007164'
p1497
(lp1498
sS'PB028321'
p1499
(lp1500
sS'PF00463'
p1501
(lp1502
sS'PF01175'
p1503
(lp1504
sS'PF03062'
p1505
(lp1506
S'C4PZS7'
p1507
aS'Q5BW94'
p1508
asS'PF03063'
p1509
(lp1510
sS'PF03060'
p1511
(lp1512
sS'PF03061'
p1513
(lp1514
sS'PB006014'
p1515
(lp1516
sS'PF03068'
p1517
(lp1518
sS'PF00395'
p1519
(lp1520
sS'PB024043'
p1521
(lp1522
sS'PB015415'
p1523
(lp1524
sS'PF00466'
p1525
(lp1526
S'B3GUY4'
p1527
aS'C4PZS6'
p1528
asS'PF06723'
p1529
(lp1530
sS'PF00397'
p1531
(lp1532
S'Q5BSG8'
p1533
aS'G4V956'
p1534
asS'PB026067'
p1535
(lp1536
sS'PB020206'
p1537
(lp1538
sS'PF14537'
p1539
(lp1540
sS'PB036016'
p1541
(lp1542
sS'PB003537'
p1543
(lp1544
sS'PF06052'
p1545
(lp1546
sS'PB051814'
p1547
(lp1548
sS'PB035601'
p1549
(lp1550
sS'PF00499'
p1551
(lp1552
S'Q1I0N5'
p1553
aS'Q8HIG1'
p1554
aS'A8D3F6'
p1555
asS'PB173807'
p1556
(lp1557
sS'PF00390'
p1558
(lp1559
S'G4VPZ9'
p1560
aS'Q5BX10'
p1561
asS'PB041831'
p1562
(lp1563
sS'PF10413'
p1564
(lp1565
sS'PF10412'
p1566
(lp1567
sS'PB013747'
p1568
(lp1569
sS'PF10417'
p1570
(lp1571
S'Q5DEY1'
p1572
aS'G4LXH7'
p1573
asS'PF10415'
p1574
(lp1575
S'G4LVG5'
p1576
asS'PF10414'
p1577
(lp1578
sS'PB055958'
p1579
(lp1580
sS'PB041355'
p1581
(lp1582
sS'PB013748'
p1583
(lp1584
sS'PF03807'
p1585
(lp1586
S'Q5BY94'
p1587
aS'G4V8Z5'
p1588
asS'PB046400'
p1589
(lp1590
sS'PB023307'
p1591
(lp1592
sS'PF02238'
p1593
(lp1594
sS'PF01074'
p1595
(lp1596
S'Q5BYG0'
p1597
aS'G4M0J4'
p1598
asS'PF03489'
p1599
(lp1600
S'Q5BZS8'
p1601
aS'G4VBU2'
p1602
asS'PB004980'
p1603
(lp1604
sS'PF03484'
p1605
(lp1606
S'Q5DGS2'
p1607
aS'G4LV70'
p1608
asS'PF09086'
p1609
(lp1610
sS'PF02629'
p1611
(lp1612
S'G4VI16'
p1613
aS'Q5BZ95'
p1614
asS'PF03483'
p1615
(lp1616
S'Q5DGS2'
p1617
aS'G4LV70'
p1618
asS'PF03719'
p1619
(lp1620
S'Q86ER5'
p1621
aS'G4M0S7'
p1622
asS'PF03717'
p1623
(lp1624
sS'PF03711'
p1625
(lp1626
sS'PF03712'
p1627
(lp1628
S'Q5DF63'
p1629
aS'G4VIT2'
p1630
asS'PF03241'
p1631
(lp1632
sS'PF02541'
p1633
(lp1634
sS'PB017334'
p1635
(lp1636
sS'PF03931'
p1637
(lp1638
S'G4VL24'
p1639
aS'Q5BS80'
p1640
asS'PF07478'
p1641
(lp1642
sS'PF03939'
p1643
(lp1644
S'B3GUS3'
p1645
aS'G4V6P4'
p1646
asS'PF14888'
p1647
(lp1648
sS'PF14889'
p1649
(lp1650
sS'PF01694'
p1651
(lp1652
S'G4LWH6'
p1653
aS'Q5BZH1'
p1654
asS'PF10525'
p1655
(lp1656
S'G4VRE6'
p1657
asS'PF02545'
p1658
(lp1659
S'G4VSQ0'
p1660
aS'Q3MJU9'
p1661
asS'PB055829'
p1662
(lp1663
sS'PB1'
p1664
(lp1665
S'Q5BRP2'
p1666
aS'G4VS52'
p1667
asS'PB002669'
p1668
(lp1669
S'G4LXH8'
p1670
asS'PF02281'
p1671
(lp1672
sS'PF08840'
p1673
(lp1674
sS'PF02283'
p1675
(lp1676
sS'PF02285'
p1677
(lp1678
sS'PF02828'
p1679
(lp1680
S'Q5BY56'
p1681
aS'C4QTS1'
p1682
asS'PF02538'
p1683
(lp1684
sS'PF02824'
p1685
(lp1686
S'G4V6P3'
p1687
aS'Q5BXD7'
p1688
asS'PF12062'
p1689
(lp1690
S'G4VEB3'
p1691
asS'PF02826'
p1692
(lp1693
S'G4VI07'
p1694
asS'PF02820'
p1695
(lp1696
S'Q5D9R9'
p1697
aS'G4VGJ6'
p1698
asS'PF02823'
p1699
(lp1700
S'Q3KTI0'
p1701
aS'C4QJA1'
p1702
asS'PF05089'
p1703
(lp1704
sS'PB032216'
p1705
(lp1706
sS'PB030760'
p1707
(lp1708
sS'PB398188'
p1709
(lp1710
sS'PF13504'
p1711
(lp1712
S'G4LZA1'
p1713
asS'PF13505'
p1714
(lp1715
sS'PF13506'
p1716
(lp1717
S'G4VJB9'
p1718
aS'Q5BZI3'
p1719
asS'PF13507'
p1720
(lp1721
sS'PF13500'
p1722
(lp1723
sS'PF00912'
p1724
(lp1725
sS'PF00910'
p1726
(lp1727
sS'PF10633'
p1728
(lp1729
sS'PF04970'
p1730
(lp1731
sS'PF05409'
p1732
(lp1733
sS'PF13508'
p1734
(lp1735
sS'PB018041'
p1736
(lp1737
sS'PF05392'
p1738
(lp1739
sS'PF00583'
p1740
(lp1741
S'Q5C0U1'
p1742
aS'G4V884'
p1743
asS'PB002861'
p1744
(lp1745
sS'PB035331'
p1746
(lp1747
sS'PF02750'
p1748
(lp1749
S'G4VIG8'
p1750
asS'PF02755'
p1751
(lp1752
S'G4LUR4'
p1753
asS'PF01409'
p1754
(lp1755
S'C4QNZ5'
p1756
aS'Q5DAZ9'
p1757
asS'PF00586'
p1758
(lp1759
S'B3GUX9'
p1760
asS'PB009809'
p1761
(lp1762
sS'PF08041'
p1763
(lp1764
sS'PF09396'
p1765
(lp1766
sS'PB001103'
p1767
(lp1768
S'G4VKM0'
p1769
asS'PF01653'
p1770
(lp1771
sS'PF01652'
p1772
(lp1773
S'G4VCF5'
p1774
aS'Q5DGB4'
p1775
asS'PF00708'
p1776
(lp1777
S'Q5DFQ8'
p1778
asS'PF10744'
p1779
(lp1780
S'G4V7K4'
p1781
asS'PF00878'
p1782
(lp1783
sS'PF01656'
p1784
(lp1785
sS'PF00702'
p1786
(lp1787
S'Q5C7Z8'
p1788
aS'Q26545'
p1789
asS'PF00875'
p1790
(lp1791
S'Q5BVY3'
p1792
aS'G4LVC5'
p1793
asS'PF00876'
p1794
(lp1795
S'C1M280'
p1796
aS'Q3KZ46'
p1797
asS'PF01658'
p1798
(lp1799
sS'PB060534'
p1800
(lp1801
sS'PF00871'
p1802
(lp1803
sS'PF00704'
p1804
(lp1805
S'G4VC11'
p1806
aS'Q5BZA4'
p1807
asS'PF00873'
p1808
(lp1809
sS'PF01094'
p1810
(lp1811
S'Q5C7X4'
p1812
aS'E2IFW0'
p1813
asS'PF05578'
p1814
(lp1815
sS'PF01099'
p1816
(lp1817
sS'PB004447'
p1818
(lp1819
S'G4VJ87'
p1820
asS'PF01479'
p1821
(lp1822
S'G4V917'
p1823
aS'Q5C773'
p1824
asS'PF12803'
p1825
(lp1826
sS'PF01473'
p1827
(lp1828
sS'PF08264'
p1829
(lp1830
S'Q5C105'
p1831
aS'G4LVH7'
p1832
asS'PF08267'
p1833
(lp1834
sS'PF01477'
p1835
(lp1836
S'G4V9T7'
p1837
aS'Q5C6I2'
p1838
asS'PF04116'
p1839
(lp1840
sS'PF01474'
p1841
(lp1842
sS'PF10249'
p1843
(lp1844
S'G4VK46'
p1845
aS'Q5DFU2'
p1846
asS'PB035841'
p1847
(lp1848
sS'PF08063'
p1849
(lp1850
S'G4M0L0'
p1851
asS'PB001633'
p1852
(lp1853
S'G4VHR1'
p1854
asS'PF00676'
p1855
(lp1856
S'G4VT40'
p1857
aS'Q5C0P6'
p1858
asS'PB004223'
p1859
(lp1860
sS'PF00675'
p1861
(lp1862
S'Q5C2R5'
p1863
aS'C4Q011'
p1864
asS'PF00672'
p1865
(lp1866
sS'PF00673'
p1867
(lp1868
S'Q5DAR3'
p1869
aS'G4VMJ4'
p1870
asS'PF00670'
p1871
(lp1872
S'G4LX02'
p1873
aS'C7TYU5'
p1874
asS'PF07951'
p1875
(lp1876
sS'PF00679'
p1877
(lp1878
S'G4LVU7'
p1879
aS'Q5DD28'
p1880
asS'PF01270'
p1881
(lp1882
sS'PF01273'
p1883
(lp1884
sS'PF08466'
p1885
(lp1886
sS'PF01276'
p1887
(lp1888
sS'PF01279'
p1889
(lp1890
sS'PB038968'
p1891
(lp1892
sS'PB026688'
p1893
(lp1894
sS'PB044497'
p1895
(lp1896
sS'PF05889'
p1897
(lp1898
S'G4VL61'
p1899
asS'PF01506'
p1900
(lp1901
sS'PB008731'
p1902
(lp1903
sS'PF00058'
p1904
(lp1905
sS'PF00059'
p1906
(lp1907
S'Q5C1X6'
p1908
aS'G4M0W9'
p1909
asS'PF00056'
p1910
(lp1911
S'C7TZT8'
p1912
aS'P37227'
p1913
asS'PF00057'
p1914
(lp1915
S'Q5BXY9'
p1916
aS'G4VEU3'
p1917
asS'PF00054'
p1918
(lp1919
S'G4VG21'
p1920
asS'PF04029'
p1921
(lp1922
sS'PF00051'
p1923
(lp1924
S'G4VK82'
p1925
asS'PB014775'
p1926
(lp1927
sS'PF11404'
p1928
(lp1929
sS'PB014770'
p1930
(lp1931
sS'PF02452'
p1932
(lp1933
sS'PF00452'
p1934
(lp1935
S'G4V9D2'
p1936
aS'Q5BWX6'
p1937
asS'PF00450'
p1938
(lp1939
S'G4VHZ1'
p1940
aS'Q5DB18'
p1941
asS'PF13594'
p1942
(lp1943
S'G4V5P8'
p1944
aS'Q5BYH0'
p1945
asS'PF07484'
p1946
(lp1947
sS'PB050811'
p1948
(lp1949
sS'PF00454'
p1950
(lp1951
S'Q5C1Z3'
p1952
aS'G4VGN6'
p1953
asS'PF07488'
p1954
(lp1955
sS'PB005108'
p1956
(lp1957
sS'PF00458'
p1958
(lp1959
S'Q5C3S2'
p1960
aS'G4VFP9'
p1961
asS'PF00459'
p1962
(lp1963
S'Q5C0C1'
p1964
aS'G4LW64'
p1965
asS'PF07710'
p1966
(lp1967
sS'PF07711'
p1968
(lp1969
sS'PF07714'
p1970
(lp1971
S'G4LXX3'
p1972
aS'Q3MJT9'
p1973
asS'PF07715'
p1974
(lp1975
sS'PB029796'
p1976
(lp1977
sS'PB022698'
p1978
(lp1979
sS'PB002264'
p1980
(lp1981
sS'PF06445'
p1982
(lp1983
sS'PF06444'
p1984
(lp1985
sS'PF04622'
p1986
(lp1987
sS'PF08444'
p1988
(lp1989
sS'PB036230'
p1990
(lp1991
sS'PF08446'
p1992
(lp1993
sS'PB133292'
p1994
(lp1995
sS'PF08282'
p1996
(lp1997
sS'PF12662'
p1998
(lp1999
S'G4V7D5'
p2000
asS'PF00298'
p2001
(lp2002
S'G4V9G5'
p2003
aS'Q5DDS8'
p2004
asS'PB001430'
p2005
(lp2006
sS'PB004151'
p2007
(lp2008
sS'PF00296'
p2009
(lp2010
sS'PF00297'
p2011
(lp2012
S'Q5DGM0'
p2013
aS'C4QKQ4'
p2014
asS'PF00290'
p2015
(lp2016
sS'PF00291'
p2017
(lp2018
S'Q5BWI3'
p2019
aS'G4LWZ5'
p2020
asS'PF00293'
p2021
(lp2022
S'Q5C0D7'
p2023
aS'G4LZC2'
p2024
asS'PB006480'
p2025
(lp2026
sS'PF00039'
p2027
(lp2028
sS'PF07225'
p2029
(lp2030
S'G4VPS8'
p2031
aS'Q5BS18'
p2032
asS'PF07221'
p2033
(lp2034
sS'PB006377'
p2035
(lp2036
sS'PF14812'
p2037
(lp2038
sS'PF12694'
p2039
(lp2040
sS'PF04151'
p2041
(lp2042
sS'PF00032'
p2043
(lp2044
S'Q1I0P2'
p2045
aS'B0FNB8'
p2046
aS'Q3KU59'
p2047
asS'PB020213'
p2048
(lp2049
sS'PF02284'
p2050
(lp2051
S'Q5DBT0'
p2052
aS'G4LWP3'
p2053
asS'PF00034'
p2054
(lp2055
S'Q86EU4'
p2056
aS'Q15EU2'
p2057
asS'PB006395'
p2058
(lp2059
sS'PF11975'
p2060
(lp2061
sS'PB027972'
p2062
(lp2063
sS'PF02121'
p2064
(lp2065
S'G4LZU4'
p2066
aS'Q5C0B2'
p2067
asS'PB025887'
p2068
(lp2069
sS'PF02827'
p2070
(lp2071
sS'PF03129'
p2072
(lp2073
S'Q5BSM0'
p2074
aS'G4V6P1'
p2075
asS'PF12474'
p2076
(lp2077
sS'PF03123'
p2078
(lp2079
sS'PF03120'
p2080
(lp2081
sS'PB017022'
p2082
(lp2083
sS'PF00994'
p2084
(lp2085
S'C7TXS2'
p2086
aS'G4V7G7'
p2087
asS'PF02127'
p2088
(lp2089
S'G4LVY7'
p2090
aS'Q5BSL4'
p2091
asS'PB096033'
p2092
(lp2093
sS'PB001923'
p2094
(lp2095
sS'PF14792'
p2096
(lp2097
sS'PB024441'
p2098
(lp2099
sS'PB003615'
p2100
(lp2101
S'G4LWQ2'
p2102
asS'PF02932'
p2103
(lp2104
S'A6QL44'
p2105
aS'G4VGC1'
p2106
aS'C7TYG3'
p2107
asS'PF02637'
p2108
(lp2109
S'G4LWC3'
p2110
asS'PF13193'
p2111
(lp2112
S'G4VI74'
p2113
aS'Q5BS93'
p2114
asS'PF13192'
p2115
(lp2116
sS'PB016322'
p2117
(lp2118
sS'PF03721'
p2119
(lp2120
S'G4VFD1'
p2121
aS'Q5C0W3'
p2122
asS'PF03720'
p2123
(lp2124
S'G4VFD1'
p2125
asS'PF03725'
p2126
(lp2127
S'Q5DA97'
p2128
aS'G4VDF0'
p2129
asS'PF03727'
p2130
(lp2131
S'G4VIV9'
p2132
aS'Q5DEN8'
p2133
asS'PF03900'
p2134
(lp2135
S'G4VRL5'
p2136
asS'PF00690'
p2137
(lp2138
S'G4M1H5'
p2139
aS'Q5D8T0'
p2140
asS'PB010445'
p2141
(lp2142
sS'PF03906'
p2143
(lp2144
sS'PB045043'
p2145
(lp2146
sS'PF05761'
p2147
(lp2148
S'G4V7G9'
p2149
aS'C7TZH5'
p2150
asS'PF10531'
p2151
(lp2152
S'Q5DGE8'
p2153
aS'G4VMP3'
p2154
asS'PB013485'
p2155
(lp2156
S'G4V6G7'
p2157
aS'Q5C103'
p2158
asS'PB036225'
p2159
(lp2160
sS'PB002677'
p2161
(lp2162
sS'PF12052'
p2163
(lp2164
sS'PB004886'
p2165
(lp2166
sS'PB004884'
p2167
(lp2168
sS'PF02838'
p2169
(lp2170
sS'PF02839'
p2171
(lp2172
sS'PF02529'
p2173
(lp2174
sS'PF02832'
p2175
(lp2176
sS'PF02525'
p2177
(lp2178
sS'PF02836'
p2179
(lp2180
S'G4VID6'
p2181
asS'PF02837'
p2182
(lp2183
S'Q5C3D3'
p2184
aS'G4VID6'
p2185
asS'PF03349'
p2186
(lp2187
sS'PF11598'
p2188
(lp2189
sS'PF09258'
p2190
(lp2191
S'G4V9E0'
p2192
aS'Q5C0P8'
p2193
asS'PB032208'
p2194
(lp2195
sS'PF11590'
p2196
(lp2197
sS'PF09251'
p2198
(lp2199
sS'PF04960'
p2200
(lp2201
S'G4VKT6'
p2202
asS'PF04961'
p2203
(lp2204
sS'PB055724'
p2205
(lp2206
sS'PF00693'
p2207
(lp2208
sS'PF04969'
p2209
(lp2210
S'G4LW12'
p2211
aS'Q5C767'
p2212
asS'PF00905'
p2213
(lp2214
sS'PF13532'
p2215
(lp2216
S'Q5D9B4'
p2217
aS'G4LWW8'
p2218
asS'PF13534'
p2219
(lp2220
S'Q5MB10'
p2221
aS'G4V5U3'
p2222
asS'PF13537'
p2223
(lp2224
sS'PF00903'
p2225
(lp2226
S'Q86F38'
p2227
aS'G4VJ60'
p2228
asS'PF00908'
p2229
(lp2230
sS'PF00909'
p2231
(lp2232
sS'PF02749'
p2233
(lp2234
S'Q5DCL6'
p2235
asS'PF12122'
p2236
(lp2237
sS'PF12124'
p2238
(lp2239
sS'PF05368'
p2240
(lp2241
sS'PF02740'
p2242
(lp2243
sS'PF01451'
p2244
(lp2245
sS'PF05365'
p2246
(lp2247
sS'PF02743'
p2248
(lp2249
S'G4VE22'
p2250
asS'PF02744'
p2251
(lp2252
S'G4VT24'
p2253
asS'PF02746'
p2254
(lp2255
sS'PF01322'
p2256
(lp2257
sS'PF05187'
p2258
(lp2259
sS'PF05184'
p2260
(lp2261
S'B6ZBP3'
p2262
aS'Q5DGL3'
p2263
asS'PF05189'
p2264
(lp2265
S'Q5BWD6'
p2266
aS'G4VP84'
p2267
asS'PF01417'
p2268
(lp2269
S'Q5C2A9'
p2270
aS'G4LVB4'
p2271
asS'PF07732'
p2272
(lp2273
sS'PF13452'
p2274
(lp2275
sS'PF13450'
p2276
(lp2277
S'G4VTC3'
p2278
aS'Q5DD49'
p2279
asS'PF05406'
p2280
(lp2281
S'G4M0L0'
p2282
aS'Q5C0T7'
p2283
asS'PF00849'
p2284
(lp2285
S'G4VDM0'
p2286
aS'Q3KZ50'
p2287
asS'PF00848'
p2288
(lp2289
sS'PF01642'
p2290
(lp2291
sS'PF01645'
p2292
(lp2293
S'G4VS94'
p2294
asS'PF01648'
p2295
(lp2296
S'G4VF78'
p2297
asS'PF07736'
p2298
(lp2299
sS'PF00842'
p2300
(lp2301
sS'PB060527'
p2302
(lp2303
sS'PB019412'
p2304
(lp2305
sS'PB019410'
p2306
(lp2307
sS'PF01082'
p2308
(lp2309
S'G4VCA0'
p2310
aS'Q5DF63'
p2311
asS'PF13906'
p2312
(lp2313
S'G4VAD5'
p2314
aS'Q5BS75'
p2315
asS'PF06134'
p2316
(lp2317
sS'PF09099'
p2318
(lp2319
sS'PF01087'
p2320
(lp2321
S'G4VT24'
p2322
asS'PF01084'
p2323
(lp2324
S'Q5C271'
p2325
aS'G4V6L4'
p2326
asS'PB002492'
p2327
(lp2328
sS'PB015832'
p2329
(lp2330
sS'PF01468'
p2331
(lp2332
sS'PB050481'
p2333
(lp2334
sS'PF08279'
p2335
(lp2336
sS'PF08272'
p2337
(lp2338
sS'PF04101'
p2339
(lp2340
S'Q5DG98'
p2341
aS'G4VC87'
p2342
asS'PF01462'
p2343
(lp2344
S'G4LVT7'
p2345
asS'PF01464'
p2346
(lp2347
sS'PB009902'
p2348
(lp2349
sS'PF01467'
p2350
(lp2351
S'G4VF56'
p2352
aS'Q5BY03'
p2353
asS'PF00593'
p2354
(lp2355
sS'PF00591'
p2356
(lp2357
sS'PF00590'
p2358
(lp2359
S'G4VPC1'
p2360
asS'PF00596'
p2361
(lp2362
S'Q5C1G7'
p2363
aS'G4V776'
p2364
asS'PF00595'
p2365
(lp2366
S'Q5BTM1'
p2367
aS'G4LWY5'
p2368
asS'PF00594'
p2369
(lp2370
sS'PF00599'
p2371
(lp2372
sS'PF08070'
p2373
(lp2374
sS'PF11577'
p2375
(lp2376
sS'PF00602'
p2377
(lp2378
sS'PB004237'
p2379
(lp2380
sS'PB157172'
p2381
(lp2382
sS'PF00607'
p2383
(lp2384
sS'PF07925'
p2385
(lp2386
sS'PF11570'
p2387
(lp2388
sS'PF00609'
p2389
(lp2390
S'G4LUV8'
p2391
asS'PF00608'
p2392
(lp2393
sS'PF08473'
p2394
(lp2395
sS'PF01268'
p2396
(lp2397
sS'PF00242'
p2398
(lp2399
sS'PF01266'
p2400
(lp2401
S'C7TY75'
p2402
aS'G4LWL6'
p2403
asS'PF04563'
p2404
(lp2405
S'G4VEG3'
p2406
asS'PF04560'
p2407
(lp2408
S'Q5D921'
p2409
aS'G4VEG3'
p2410
asS'PF04561'
p2411
(lp2412
S'G4VQP1'
p2413
asS'PB018256'
p2414
(lp2415
sS'PF01263'
p2416
(lp2417
sS'PF04565'
p2418
(lp2419
S'G4VEG3'
p2420
asS'PF01515'
p2421
(lp2422
sS'PF00029'
p2423
(lp2424
sS'PF00028'
p2425
(lp2426
S'Q5BYH6'
p2427
aS'G4M253'
p2428
asS'PF01510'
p2429
(lp2430
sS'PF01512'
p2431
(lp2432
S'Q5DGE8'
p2433
aS'G4VMP3'
p2434
asS'PF00023'
p2435
(lp2436
S'Q5BRJ1'
p2437
aS'G4VE81'
p2438
asS'PB012839'
p2439
(lp2440
sS'PF00021'
p2441
(lp2442
sS'PF00020'
p2443
(lp2444
S'Q5BVZ1'
p2445
aS'D2IGB9'
p2446
asS'PF00027'
p2447
(lp2448
S'Q3MJS0'
p2449
aS'C4Q351'
p2450
asS'PF00026'
p2451
(lp2452
S'B3W660'
p2453
aS'B0L5P6'
p2454
asS'PF00025'
p2455
(lp2456
S'B2MV83'
p2457
aS'G4LVZ0'
p2458
asS'PF06464'
p2459
(lp2460
sS'PB003050'
p2461
(lp2462
sS'PB000086'
p2463
(lp2464
sS'PF12900'
p2465
(lp2466
sS'PF02668'
p2467
(lp2468
sS'PB021429'
p2469
(lp2470
sS'PB026346'
p2471
(lp2472
sS'PF02059'
p2473
(lp2474
sS'PF01833'
p2475
(lp2476
S'Q5C2K5'
p2477
aS'G4VGE5'
p2478
asS'PF00118'
p2479
(lp2480
S'G4LWI2'
p2481
aS'B3GUU3'
p2482
asS'PF00117'
p2483
(lp2484
S'Q5C708'
p2485
aS'G4M0Y0'
p2486
asS'PF00116'
p2487
(lp2488
S'Q9MEU5'
p2489
aS'G9B0Z9'
p2490
aS'Q9MD49'
p2491
asS'PF00115'
p2492
(lp2493
S'C5I6T0'
p2494
aS'B2D0Q6'
p2495
aS'B0FNB5'
p2496
asS'PF00114'
p2497
(lp2498
sS'PF00113'
p2499
(lp2500
S'G4VQ58'
p2501
aS'P33676'
p2502
asS'PF00112'
p2503
(lp2504
S'B3W652'
p2505
aS'G4LUV1'
p2506
asS'PF00111'
p2507
(lp2508
S'Q5DAG9'
p2509
aS'G4LZ25'
p2510
asS'PB009125'
p2511
(lp2512
sS'PF00337'
p2513
(lp2514
S'Q5C6L1'
p2515
asS'PF00336'
p2516
(lp2517
sS'PF00335'
p2518
(lp2519
S'C4Q3U8'
p2520
aS'A5JP10'
p2521
aS'Q26499'
p2522
asS'PF00334'
p2523
(lp2524
S'B3GUP5'
p2525
aS'G4LY79'
p2526
asS'PF00333'
p2527
(lp2528
S'Q86ER5'
p2529
aS'G4M0S7'
p2530
asS'PF06459'
p2531
(lp2532
S'G4LXE8'
p2533
asS'PF00331'
p2534
(lp2535
sS'PF00330'
p2536
(lp2537
S'G4VMI0'
p2538
aS'Q5BXP5'
p2539
asS'PF06455'
p2540
(lp2541
sS'PB066702'
p2542
(lp2543
sS'PF06452'
p2544
(lp2545
sS'PF00338'
p2546
(lp2547
S'O17454'
p2548
aS'B3W655'
p2549
asS'PF03496'
p2550
(lp2551
sS'PB012238'
p2552
(lp2553
sS'PB000398'
p2554
(lp2555
sS'PB020353'
p2556
(lp2557
sS'PF07859'
p2558
(lp2559
S'G4LVU3'
p2560
asS'PB001428'
p2561
(lp2562
sS'PB036962'
p2563
(lp2564
sS'PF08545'
p2565
(lp2566
sS'PF13927'
p2567
(lp2568
S'G4VHK7'
p2569
aS'B5B7R3'
p2570
asS'PB006492'
p2571
(lp2572
sS'PF06907'
p2573
(lp2574
sS'PF08540'
p2575
(lp2576
S'G4LWY6'
p2577
asS'PB062609'
p2578
(lp2579
sS'PF03002'
p2580
(lp2581
sS'PF00514'
p2582
(lp2583
S'Q5BR97'
p2584
aS'G4LY37'
p2585
asS'PB085123'
p2586
(lp2587
sS'PB012304'
p2588
(lp2589
sS'PF14513'
p2590
(lp2591
sS'PB014352'
p2592
(lp2593
sS'PB000069'
p2594
(lp2595
sS'PF13764'
p2596
(lp2597
S'G4V702'
p2598
aS'Q5BW95'
p2599
asS'PF01549'
p2600
(lp2601
S'G4VBI2'
p2602
asS'PF11969'
p2603
(lp2604
S'Q5DGH0'
p2605
aS'G4VBL9'
p2606
asS'PB020000'
p2607
(lp2608
sS'PF06079'
p2609
(lp2610
sS'PF02219'
p2611
(lp2612
sS'PF03648'
p2613
(lp2614
sS'PF12464'
p2615
(lp2616
sS'PF12465'
p2617
(lp2618
S'Q5DEZ9'
p2619
aS'G4VSW3'
p2620
asS'PF03137'
p2621
(lp2622
S'G4VAF3'
p2623
asS'PF03131'
p2624
(lp2625
S'B3GUW6'
p2626
aS'G4LWZ6'
p2627
asS'PB006703'
p2628
(lp2629
sS'PF14604'
p2630
(lp2631
S'G4VJC2'
p2632
aS'Q5C288'
p2633
asS'PF14602'
p2634
(lp2635
S'G4V9T4'
p2636
aS'Q5DCG0'
p2637
asS'PF10436'
p2638
(lp2639
S'Q5BXW9'
p2640
aS'G4V9U6'
p2641
asS'PF10431'
p2642
(lp2643
S'G4VEI7'
p2644
asS'PF10430'
p2645
(lp2646
sS'PF00709'
p2647
(lp2648
S'C4QCD2'
p2649
aS'Q5D8V5'
p2650
asS'PF02199'
p2651
(lp2652
S'Q5D981'
p2653
aS'G4LVS4'
p2654
asS'PF02197'
p2655
(lp2656
S'Q5DHK8'
p2657
aS'G4LUC8'
p2658
asS'PF02196'
p2659
(lp2660
S'G4VG61'
p2661
asS'PF02190'
p2662
(lp2663
S'G4VN42'
p2664
aS'Q5C1R9'
p2665
asS'PB003606'
p2666
(lp2667
sS'PF13188'
p2668
(lp2669
sS'PF03737'
p2670
(lp2671
sS'PB005431'
p2672
(lp2673
sS'PF02359'
p2674
(lp2675
S'G4M0P6'
p2676
aS'Q5BZ78'
p2677
asS'PF08918'
p2678
(lp2679
sS'PF08917'
p2680
(lp2681
sS'PF08916'
p2682
(lp2683
sS'PF02607'
p2684
(lp2685
sS'PF13183'
p2686
(lp2687
sS'PF02353'
p2688
(lp2689
sS'PF08912'
p2690
(lp2691
sS'PF02350'
p2692
(lp2693
sS'PF00874'
p2694
(lp2695
sS'PB000625'
p2696
(lp2697
sS'PB026325'
p2698
(lp2699
sS'PF00703'
p2700
(lp2701
S'G4VID6'
p2702
asS'PF03223'
p2703
(lp2704
S'Q5C182'
p2705
aS'G4M047'
p2706
asS'PF13442'
p2707
(lp2708
sS'PF03919'
p2709
(lp2710
S'G4LUD1'
p2711
asS'PF03917'
p2712
(lp2713
S'Q5D8T9'
p2714
aS'G4VNT7'
p2715
asS'PF10509'
p2716
(lp2717
S'G4VRV4'
p2718
aS'Q5BYG8'
p2719
asS'PF05772'
p2720
(lp2721
sS'PB037349'
p2722
(lp2723
sS'PF10502'
p2724
(lp2725
S'Q3KTF9'
p2726
asS'PB013492'
p2727
(lp2728
sS'PB004891'
p2729
(lp2730
S'G4VRR0'
p2731
asS'PF12047'
p2732
(lp2733
sS'PB002641'
p2734
(lp2735
sS'PB004899'
p2736
(lp2737
sS'PF02518'
p2738
(lp2739
S'G4V9U6'
p2740
aS'Q5BS88'
p2741
asS'PF08829'
p2742
(lp2743
sS'PF03351'
p2744
(lp2745
S'Q5C0N9'
p2746
asS'PF03352'
p2747
(lp2748
sS'PF02511'
p2749
(lp2750
sS'PB016530'
p2751
(lp2752
sS'PF03358'
p2753
(lp2754
sS'PF08826'
p2755
(lp2756
sS'PB013017'
p2757
(lp2758
sS'PB017778'
p2759
(lp2760
sS'PF09719'
p2761
(lp2762
sS'PF09244'
p2763
(lp2764
sS'PF09240'
p2765
(lp2766
sS'PF09241'
p2767
(lp2768
sS'PB013270'
p2769
(lp2770
sS'PF10613'
p2771
(lp2772
sS'PB013278'
p2773
(lp2774
sS'PF02775'
p2775
(lp2776
S'Q5C320'
p2777
asS'PF02774'
p2778
(lp2779
sS'PF02777'
p2780
(lp2781
S'Q5DCH6'
p2782
aS'G4VSQ5'
p2783
asS'PB023103'
p2784
(lp2785
sS'PF02771'
p2786
(lp2787
S'G4VCG4'
p2788
asS'PF02770'
p2789
(lp2790
sS'PF02773'
p2791
(lp2792
S'Q5DD04'
p2793
aS'G4VLI2'
p2794
asS'PF02772'
p2795
(lp2796
S'Q5DD04'
p2797
aS'G4VLI2'
p2798
asS'PF00939'
p2799
(lp2800
S'Q5BVH8'
p2801
aS'G4VTS9'
p2802
asS'PF05173'
p2803
(lp2804
sS'PF08815'
p2805
(lp2806
sS'PF02779'
p2807
(lp2808
S'Q5BSL1'
p2809
aS'G4V9A5'
p2810
asS'PB002801'
p2811
(lp2812
sS'PF13520'
p2813
(lp2814
S'G4LVW6'
p2815
aS'C7TYX2'
p2816
asS'PF05175'
p2817
(lp2818
S'C4QC82'
p2819
asS'PF02177'
p2820
(lp2821
S'G4LY13'
p2822
aS'Q5DBI0'
p2823
asS'PF02174'
p2824
(lp2825
S'G4LZ85'
p2826
aS'Q5BX80'
p2827
asS'PF02173'
p2828
(lp2829
sS'PF02172'
p2830
(lp2831
S'G4VEQ5'
p2832
asS'PB035316'
p2833
(lp2834
sS'PB032474'
p2835
(lp2836
sS'PF05372'
p2837
(lp2838
sS'PF12131'
p2839
(lp2840
sS'PF05195'
p2841
(lp2842
S'G4VET0'
p2843
aS'Q5D954'
p2844
asS'PF01189'
p2845
(lp2846
S'G4LZF7'
p2847
aS'C7TXW0'
p2848
asS'PF01188'
p2849
(lp2850
sS'PF05191'
p2851
(lp2852
S'Q5DDI4'
p2853
aS'G4M079'
p2854
asS'PF05193'
p2855
(lp2856
S'Q5DD24'
p2857
aS'G4LV68'
p2858
asS'PF01182'
p2859
(lp2860
S'G4LUQ5'
p2861
aS'Q5DCA2'
p2862
asS'PF01180'
p2863
(lp2864
S'Q5BVT7'
p2865
aS'G4VFD7'
p2866
asS'PF01187'
p2867
(lp2868
sS'PF04354'
p2869
(lp2870
sS'PB001122'
p2871
(lp2872
S'G4VCP8'
p2873
aS'Q5BZI6'
p2874
asS'PF00857'
p2875
(lp2876
S'Q5BSG1'
p2877
aS'G4LYG9'
p2878
asS'PB001126'
p2879
(lp2880
S'G4LXE8'
p2881
asS'PF13426'
p2882
(lp2883
S'G4VT54'
p2884
asS'PF00850'
p2885
(lp2886
S'A5H658'
p2887
aS'Q5C2D1'
p2888
asS'PB090291'
p2889
(lp2890
sS'PB022185'
p2891
(lp2892
sS'PF00858'
p2893
(lp2894
S'Q5BW11'
p2895
aS'G4LUW7'
p2896
asS'PB022180'
p2897
(lp2898
sS'PB000467'
p2899
(lp2900
S'G4LXE8'
p2901
asS'PB019427'
p2902
(lp2903
sS'PF01674'
p2904
(lp2905
sS'PF01676'
p2906
(lp2907
sS'PF01670'
p2908
(lp2909
sS'PF09089'
p2910
(lp2911
sS'PF03033'
p2912
(lp2913
sS'PF00682'
p2914
(lp2915
S'G4V7Q4'
p2916
asS'PF01077'
p2917
(lp2918
sS'PB017171'
p2919
(lp2920
sS'PF01073'
p2921
(lp2922
sS'PF01471'
p2923
(lp2924
S'Q5C129'
p2925
asS'PF01071'
p2926
(lp2927
sS'PF01070'
p2928
(lp2929
sS'PB029530'
p2930
(lp2931
sS'PF01693'
p2932
(lp2933
S'C4QPU4'
p2934
asS'PF00686'
p2935
(lp2936
S'Q5BWQ3'
p2937
aS'G4VT89'
p2938
asS'PF05995'
p2939
(lp2940
S'Q9U8F1'
p2941
aS'G4VMS5'
p2942
asS'PF01699'
p2943
(lp2944
S'Q5DB32'
p2945
aS'G4VDQ9'
p2946
asS'PB025392'
p2947
(lp2948
sS'PF00581'
p2949
(lp2950
S'G4LWD8'
p2951
aS'Q5DC45'
p2952
asS'PF09067'
p2953
(lp2954
sS'PB000729'
p2955
(lp2956
S'Q5D9C9'
p2957
asS'PF00587'
p2958
(lp2959
S'G4V5K7'
p2960
aS'Q5C055'
p2961
asS'PF00588'
p2962
(lp2963
S'O17455'
p2964
aS'Q5DH58'
p2965
asS'PF08040'
p2966
(lp2967
sS'PF04262'
p2968
(lp2969
sS'PF11564'
p2970
(lp2971
sS'PF07931'
p2972
(lp2973
sS'PF14046'
p2974
(lp2975
sS'PF00613'
p2976
(lp2977
S'Q5BYQ1'
p2978
aS'G4LXS4'
p2979
asS'PF00614'
p2980
(lp2981
S'G4V7U9'
p2982
asS'PF00615'
p2983
(lp2984
S'G4V7M9'
p2985
aS'Q5BSJ8'
p2986
asS'PF13738'
p2987
(lp2988
sS'PF00619'
p2989
(lp2990
S'Q5BX06'
p2991
aS'G4LYL7'
p2992
asS'PF13735'
p2993
(lp2994
sS'PF13734'
p2995
(lp2996
sS'PF13733'
p2997
(lp2998
S'G4V5Y6'
p2999
aS'Q5C136'
p3000
asS'PB044466'
p3001
(lp3002
sS'PF01212'
p3003
(lp3004
sS'PF08447'
p3005
(lp3006
S'G4VTB4'
p3007
asS'PF01210'
p3008
(lp3009
S'C4Q5J8'
p3010
aS'Q5C0H1'
p3011
asS'PF08441'
p3012
(lp3013
S'C4PYZ0'
p3014
asS'PF01215'
p3015
(lp3016
S'Q5DAF2'
p3017
aS'G4VST4'
p3018
asS'PF08442'
p3019
(lp3020
S'Q5BXZ4'
p3021
aS'G4LX99'
p3022
asS'PF00038'
p3023
(lp3024
S'Q3KZ84'
p3025
aS'G4LVZ3'
p3026
asS'PB012822'
p3027
(lp3028
sS'PB012821'
p3029
(lp3030
sS'PF01522'
p3031
(lp3032
sS'PB094197'
p3033
(lp3034
sS'PF00030'
p3035
(lp3036
sS'PB015842'
p3037
(lp3038
sS'PF00033'
p3039
(lp3040
sS'PF08629'
p3041
(lp3042
sS'PF00036'
p3043
(lp3044
S'P13566'
p3045
aS'Q5DFN5'
p3046
asS'PF00037'
p3047
(lp3048
S'G4LXI8'
p3049
aS'Q5C0Q9'
p3050
asS'PB014791'
p3051
(lp3052
sS'PB051528'
p3053
(lp3054
sS'PB029628'
p3055
(lp3056
sS'PB007600'
p3057
(lp3058
sS'PB004552'
p3059
(lp3060
sS'PF01327'
p3061
(lp3062
sS'PF01326'
p3063
(lp3064
sS'PF04137'
p3065
(lp3066
S'G4V613'
p3067
aS'Q5C3Q3'
p3068
asS'PF01324'
p3069
(lp3070
sS'PF00108'
p3071
(lp3072
S'Q5C0R7'
p3073
aS'G4VEI2'
p3074
asS'PF00109'
p3075
(lp3076
S'G4VIH2'
p3077
aS'Q5C2A3'
p3078
asS'PF00104'
p3079
(lp3080
S'Q5C0D4'
p3081
aS'G4VSW8'
p3082
asS'PF00105'
p3083
(lp3084
S'Q5BWT5'
p3085
aS'G4VD34'
p3086
asS'PF00106'
p3087
(lp3088
S'B3GV02'
p3089
aS'G4LVT4'
p3090
asS'PF00107'
p3091
(lp3092
S'G4VEY4'
p3093
asS'PF01459'
p3094
(lp3095
S'G4M1U7'
p3096
aS'C7TZJ6'
p3097
asS'PF07737'
p3098
(lp3099
sS'PF00102'
p3100
(lp3101
S'C7TXS1'
p3102
aS'G4VF06'
p3103
asS'PF00324'
p3104
(lp3105
S'C4QIX8'
p3106
asS'PF00325'
p3107
(lp3108
sS'PF00326'
p3109
(lp3110
S'G4VI69'
p3111
aS'Q5DEP6'
p3112
asS'PB008887'
p3113
(lp3114
sS'PF00322'
p3115
(lp3116
sS'PF00677'
p3117
(lp3118
sS'PF06460'
p3119
(lp3120
sS'PF06463'
p3121
(lp3122
S'G4VCX3'
p3123
asS'PF00328'
p3124
(lp3125
S'Q5BW52'
p3126
aS'C4Q1Q3'
p3127
asS'PF00329'
p3128
(lp3129
S'C4QLY5'
p3130
aS'Q86EL0'
p3131
asS'PF06466'
p3132
(lp3133
S'G4VJB3'
p3134
aS'Q5C0R9'
p3135
asS'PF00246'
p3136
(lp3137
S'G4LZF2'
p3138
aS'Q5BS02'
p3139
asS'PB035481'
p3140
(lp3141
sS'PB008396'
p3142
(lp3143
sS'PB024104'
p3144
(lp3145
sS'PF07953'
p3146
(lp3147
sS'PF08273'
p3148
(lp3149
sS'PB059837'
p3150
(lp3151
sS'PB034337'
p3152
(lp3153
sS'PF12605'
p3154
(lp3155
sS'PF13954'
p3156
(lp3157
sS'PF13953'
p3158
(lp3159
sS'PF13950'
p3160
(lp3161
S'Q5D9E1'
p3162
aS'G4VEM1'
p3163
asS'PF07840'
p3164
(lp3165
sS'PB021568'
p3166
(lp3167
sS'PF06512'
p3168
(lp3169
sS'PB085969'
p3170
(lp3171
sS'PF06888'
p3172
(lp3173
sS'PF08992'
p3174
(lp3175
sS'PB046230'
p3176
(lp3177
sS'PB066605'
p3178
(lp3179
sS'PF03034'
p3180
(lp3181
S'G4V9W8'
p3182
aS'Q5D9T7'
p3183
asS'PB052086'
p3184
(lp3185
sS'PF03031'
p3186
(lp3187
S'G4LXS7'
p3188
aS'C7TXX3'
p3189
asS'PB012313'
p3190
(lp3191
S'G4VA91'
p3192
asS'PB012644'
p3193
(lp3194
sS'PB038809'
p3195
(lp3196
sS'PF01379'
p3197
(lp3198
S'G4VRL5'
p3199
aS'B2MV86'
p3200
asS'PB024078'
p3201
(lp3202
sS'PB000273'
p3203
(lp3204
sS'PB000079'
p3205
(lp3206
S'C4Q4D4'
p3207
asS'PB012791'
p3208
(lp3209
sS'PB000070'
p3210
(lp3211
sS'PF04051'
p3212
(lp3213
S'Q5BXP6'
p3214
aS'G4V9C2'
p3215
asS'PF01274'
p3216
(lp3217
sS'PF00948'
p3218
(lp3219
sS'PB020018'
p3220
(lp3221
S'Q5C506'
p3222
asS'PF00341'
p3223
(lp3224
sS'PF02026'
p3225
(lp3226
S'G4LXE8'
p3227
asS'PB027912'
p3228
(lp3229
sS'PB042438'
p3230
(lp3231
sS'PF02789'
p3232
(lp3233
sS'PB025623'
p3234
(lp3235
sS'PF01373'
p3236
(lp3237
sS'PB012009'
p3238
(lp3239
sS'PF03102'
p3240
(lp3241
sS'PF03104'
p3242
(lp3243
S'G4LX42'
p3244
asS'PF01376'
p3245
(lp3246
sS'PF02785'
p3247
(lp3248
S'G4V7M2'
p3249
aS'Q5C2D4'
p3250
asS'PB010881'
p3251
(lp3252
sS'PF14670'
p3253
(lp3254
S'G4VQ02'
p3255
aS'Q5C5F4'
p3256
asS'PF02786'
p3257
(lp3258
S'G4V7M2'
p3259
aS'Q5BYR3'
p3260
asS'PF03524'
p3261
(lp3262
sS'PF05328'
p3263
(lp3264
S'C7TZ33'
p3265
aS'G4V6D5'
p3266
asS'PF11825'
p3267
(lp3268
sS'PF00196'
p3269
(lp3270
sS'PF10423'
p3271
(lp3272
sS'PF10420'
p3273
(lp3274
sS'PF10421'
p3275
(lp3276
sS'PF12168'
p3277
(lp3278
sS'PF02189'
p3279
(lp3280
sS'PB024466'
p3281
(lp3282
sS'PF02782'
p3283
(lp3284
S'G4VCJ6'
p3285
asS'PF02180'
p3286
(lp3287
sS'PF00947'
p3288
(lp3289
sS'PF02185'
p3290
(lp3291
S'G4V7X6'
p3292
asS'PF01851'
p3293
(lp3294
S'C4QMW7'
p3295
asS'PF03742'
p3296
(lp3297
sS'PF01853'
p3298
(lp3299
S'Q5BW07'
p3300
aS'G4LXT0'
p3301
asS'PF01852'
p3302
(lp3303
S'C4Q6H2'
p3304
aS'Q5DEY0'
p3305
asS'PF01855'
p3306
(lp3307
sS'PF01501'
p3308
(lp3309
S'Q5C3E1'
p3310
aS'G4LZN3'
p3311
asS'PF02344'
p3312
(lp3313
sS'PF02613'
p3314
(lp3315
sS'PF02347'
p3316
(lp3317
S'G4VRJ6'
p3318
asS'PF02615'
p3319
(lp3320
S'G4V698'
p3321
aS'C7TY16'
p3322
asS'PF14707'
p3323
(lp3324
sS'PF14706'
p3325
(lp3326
sS'PF06026'
p3327
(lp3328
S'Q5DFM4'
p3329
aS'G4LWP8'
p3330
asS'PF11956'
p3331
(lp3332
sS'PF03413'
p3333
(lp3334
sS'PF03588'
p3335
(lp3336
sS'PF02983'
p3337
(lp3338
sS'PF10514'
p3339
(lp3340
sS'PF10515'
p3341
(lp3342
S'Q5DGI0'
p3343
asS'PF03411'
p3344
(lp3345
sS'PF02984'
p3346
(lp3347
S'C7TZT4'
p3348
aS'G4V5F9'
p3349
asS'PF02985'
p3350
(lp3351
S'G4LVD1'
p3352
aS'C7TXT7'
p3353
asS'PF13492'
p3354
(lp3355
S'G4VIQ4'
p3356
asS'PF03960'
p3357
(lp3358
sS'PF03967'
p3359
(lp3360
sS'PF14850'
p3361
(lp3362
sS'PB117659'
p3363
(lp3364
sS'PF00050'
p3365
(lp3366
sS'PB016498'
p3367
(lp3368
sS'PB023068'
p3369
(lp3370
sS'PB003701'
p3371
(lp3372
sS'PB016356'
p3373
(lp3374
sS'PF13085'
p3375
(lp3376
S'Q5MB10'
p3377
aS'G4V5U2'
p3378
asS'PF13088'
p3379
(lp3380
sS'PF03360'
p3381
(lp3382
S'Q5DCK4'
p3383
aS'G4V7E4'
p3384
asS'PB024865'
p3385
(lp3386
S'G4V5Z4'
p3387
asS'PF12369'
p3388
(lp3389
sS'PF08831'
p3390
(lp3391
sS'PF08832'
p3392
(lp3393
sS'PF08833'
p3394
(lp3395
S'G4V6H5'
p3396
asS'PF09279'
p3397
(lp3398
S'G4VBK4'
p3399
asS'PB010268'
p3400
(lp3401
sS'PB010265'
p3402
(lp3403
sS'PF09272'
p3404
(lp3405
sS'PF10600'
p3406
(lp3407
S'Q5DHX6'
p3408
asS'PF10606'
p3409
(lp3410
sS'PF10607'
p3411
(lp3412
S'Q5BVN9'
p3413
aS'G4V5G9'
p3414
asS'PF10608'
p3415
(lp3416
sS'PB060612'
p3417
(lp3418
sS'PF02763'
p3419
(lp3420
sS'PF05649'
p3421
(lp3422
S'C7TXX5'
p3423
aS'G4VCU9'
p3424
asS'PF02767'
p3425
(lp3426
sS'PF02764'
p3427
(lp3428
sS'PF00929'
p3429
(lp3430
S'G4LY06'
p3431
aS'Q5BXI2'
p3432
asS'PF00927'
p3433
(lp3434
sS'PF02768'
p3435
(lp3436
sS'PF02769'
p3437
(lp3438
S'B3GUX9'
p3439
asS'PB067082'
p3440
(lp3441
sS'PF00923'
p3442
(lp3443
S'Q5DEG0'
p3444
aS'G4LZK0'
p3445
asS'PF00265'
p3446
(lp3447
sS'PF02166'
p3448
(lp3449
sS'PB003817'
p3450
(lp3451
sS'PF02161'
p3452
(lp3453
sS'PF12140'
p3454
(lp3455
S'Q5BRV0'
p3456
aS'G4VGJ6'
p3457
asS'PF05347'
p3458
(lp3459
S'Q5DD89'
p3460
aS'G4LWS5'
p3461
asS'PF01192'
p3462
(lp3463
S'G4V787'
p3464
aS'Q5D946'
p3465
asS'PF01193'
p3466
(lp3467
S'G4LUY0'
p3468
asS'PF13432'
p3469
(lp3470
S'G4M0C0'
p3471
asS'PF13433'
p3472
(lp3473
sS'PF00827'
p3474
(lp3475
S'G4LYP0'
p3476
aS'B3GUU2'
p3477
asS'PF00456'
p3478
(lp3479
S'G4V9A5'
p3480
aS'Q5C313'
p3481
asS'PF00457'
p3482
(lp3483
sS'PF05524'
p3484
(lp3485
sS'PB005388'
p3486
(lp3487
sS'PF01663'
p3488
(lp3489
S'B2D1S3'
p3490
aS'Q5BVW7'
p3491
asS'PB018430'
p3492
(lp3493
sS'PF01661'
p3494
(lp3495
S'G4V946'
p3496
aS'Q5DCZ3'
p3497
asS'PF04814'
p3498
(lp3499
sS'PF13419'
p3500
(lp3501
S'Q5DGK0'
p3502
aS'G4VJE6'
p3503
asS'PF01068'
p3504
(lp3505
S'G4LYZ4'
p3506
aS'Q5C1W9'
p3507
asS'PF01064'
p3508
(lp3509
S'G4VCJ8'
p3510
asS'PF04812'
p3511
(lp3512
sS'PB010795'
p3513
(lp3514
sS'PF01067'
p3515
(lp3516
S'G4LXK2'
p3517
aS'A5A6F7'
p3518
aS'O45033'
p3519
asS'PF01061'
p3520
(lp3521
S'Q5BY69'
p3522
aS'G4VAE5'
p3523
asS'PF01063'
p3524
(lp3525
sS'PB029506'
p3526
(lp3527
sS'PF01686'
p3528
(lp3529
sS'PF01687'
p3530
(lp3531
S'G4M0L1'
p3532
aS'Q5BXG8'
p3533
asS'PB050734'
p3534
(lp3535
sS'PB014412'
p3536
(lp3537
sS'PB178904'
p3538
(lp3539
sS'PB001622'
p3540
(lp3541
S'G4LX30'
p3542
aS'Q5C415'
p3543
asS'PB008527'
p3544
(lp3545
sS'PF11555'
p3546
(lp3547
sS'PF00628'
p3548
(lp3549
S'G4V761'
p3550
aS'Q5BVH6'
p3551
asS'PF00625'
p3552
(lp3553
S'A8WCK5'
p3554
aS'G4V6E8'
p3555
asS'PF00801'
p3556
(lp3557
S'G4VTA6'
p3558
asS'PF00626'
p3559
(lp3560
S'Q5BW92'
p3561
aS'G4LUY9'
p3562
asS'PF13720'
p3563
(lp3564
sS'PF00620'
p3565
(lp3566
S'Q5BZL0'
p3567
aS'C1LZZ3'
p3568
asS'PF00623'
p3569
(lp3570
S'G4VH38'
p3571
asS'PF00622'
p3572
(lp3573
S'G4LZ14'
p3574
aS'Q5BXS8'
p3575
asS'PF01208'
p3576
(lp3577
S'G4VSS2'
p3578
aS'Q5C2L8'
p3579
asS'PF09182'
p3580
(lp3581
sS'PF04345'
p3582
(lp3583
sS'PF05239'
p3584
(lp3585
sS'PB005097'
p3586
(lp3587
sS'PF01202'
p3588
(lp3589
S'G4VGN2'
p3590
asS'PB018505'
p3591
(lp3592
sS'PF08454'
p3593
(lp3594
S'G4LXE8'
p3595
aS'Q5C2C3'
p3596
asS'PF01207'
p3597
(lp3598
S'Q5BXB9'
p3599
aS'C4QMR1'
p3600
asS'PF07690'
p3601
(lp3602
S'Q5BRU8'
p3603
aS'G4LUV3'
p3604
asS'PF01538'
p3605
(lp3606
sS'PF01539'
p3607
(lp3608
sS'PF01536'
p3609
(lp3610
sS'PF01537'
p3611
(lp3612
sS'PF01534'
p3613
(lp3614
S'G4LUU9'
p3615
aS'Q5C2E0'
p3616
asS'PF04055'
p3617
(lp3618
S'C4PZQ3'
p3619
aS'Q5BZA1'
p3620
asS'PF01532'
p3621
(lp3622
S'Q3MJW4'
p3623
aS'G4VG81'
p3624
asS'PF01530'
p3625
(lp3626
S'G4VQW7'
p3627
asS'PF13897'
p3628
(lp3629
S'Q5DEX4'
p3630
aS'G4M014'
p3631
asS'PF13894'
p3632
(lp3633
S'C7TQQ5'
p3634
aS'G4VE16'
p3635
asS'PF13895'
p3636
(lp3637
S'G4LXJ8'
p3638
aS'Q5BS71'
p3639
asS'PF13892'
p3640
(lp3641
S'G4LXF9'
p3642
asS'PF07719'
p3643
(lp3644
S'C4Q5L0'
p3645
aS'C7TYY0'
p3646
asS'PF01042'
p3647
(lp3648
S'G4VND5'
p3649
asS'PF12925'
p3650
(lp3651
S'G4LY13'
p3652
aS'Q5C135'
p3653
asS'PB020971'
p3654
(lp3655
sS'PF13899'
p3656
(lp3657
S'G4VTI9'
p3658
asS'PF00489'
p3659
(lp3660
sS'PB000664'
p3661
(lp3662
S'G4LVG3'
p3663
asS'PF13903'
p3664
(lp3665
S'Q5DCP0'
p3666
aS'G4LV82'
p3667
asS'PB007942'
p3668
(lp3669
sS'PF00480'
p3670
(lp3671
sS'PF00483'
p3672
(lp3673
S'Q5BXH6'
p3674
aS'G4LYI3'
p3675
asS'PB001716'
p3676
(lp3677
S'G4LXE8'
p3678
asS'PF00485'
p3679
(lp3680
S'G4LVN9'
p3681
aS'Q5BVL3'
p3682
asS'PF00487'
p3683
(lp3684
S'Q5DI16'
p3685
aS'G4VMQ4'
p3686
asS'PB019636'
p3687
(lp3688
sS'PF01443'
p3689
(lp3690
sS'PB005894'
p3691
(lp3692
sS'PF02260'
p3693
(lp3694
S'G4VCG1'
p3695
asS'PF01447'
p3696
(lp3697
sS'PF01333'
p3698
(lp3699
sS'PF00130'
p3700
(lp3701
S'G4VS77'
p3702
aS'Q5C3X7'
p3703
asS'PF00133'
p3704
(lp3705
S'G4LVH7'
p3706
aS'C7TZQ6'
p3707
asS'PF00132'
p3708
(lp3709
S'Q5DGG7'
p3710
aS'G4VNG9'
p3711
asS'PF00135'
p3712
(lp3713
S'Q86GL8'
p3714
aS'Q5C0Z4'
p3715
aS'G4LUT1'
p3716
asS'PB019518'
p3717
(lp3718
sS'PF00137'
p3719
(lp3720
S'G4V5T1'
p3721
aS'B5B7Q4'
p3722
asS'PF00136'
p3723
(lp3724
S'Q5BZ17'
p3725
aS'G4LX42'
p3726
asS'PB020484'
p3727
(lp3728
sS'PF00310'
p3729
(lp3730
S'G4VS93'
p3731
asS'PF00312'
p3732
(lp3733
S'G4VJD7'
p3734
aS'Q5D9B3'
p3735
asS'PF07477'
p3736
(lp3737
sS'PF00316'
p3738
(lp3739
S'G4VML1'
p3740
aS'Q5DFJ0'
p3741
asS'PF07479'
p3742
(lp3743
S'C4Q5J8'
p3744
aS'C7TZA1'
p3745
asS'PF00318'
p3746
(lp3747
S'G4VAS0'
p3748
aS'Q5DFQ7'
p3749
asS'PB012256'
p3750
(lp3751
sS'PB020489'
p3752
(lp3753
sS'PB012252'
p3754
(lp3755
sS'PF01120'
p3756
(lp3757
S'Q86FH9'
p3758
aS'G4LY49'
p3759
asS'PF04650'
p3760
(lp3761
sS'PF08127'
p3762
(lp3763
S'Q5BTD7'
p3764
aS'G4V5C2'
p3765
asS'PF08124'
p3766
(lp3767
sS'PF08122'
p3768
(lp3769
S'Q5BQW1'
p3770
aS'G4VBY8'
p3771
asS'PF00224'
p3772
(lp3773
S'G4VAH9'
p3774
aS'Q5C2V0'
p3775
asS'PB021289'
p3776
(lp3777
sS'PB021288'
p3778
(lp3779
sS'PB062445'
p3780
(lp3781
sS'PB029825'
p3782
(lp3783
sS'PF14288'
p3784
(lp3785
sS'PF02733'
p3786
(lp3787
sS'PF00005'
p3788
(lp3789
S'G4M278'
p3790
aS'Q5BQQ6'
p3791
asS'PB001400'
p3792
(lp3793
sS'PF00554'
p3794
(lp3795
sS'PF00553'
p3796
(lp3797
sS'PB020575'
p3798
(lp3799
sS'PF00551'
p3800
(lp3801
S'Q5BZJ0'
p3802
aS'G4LX97'
p3803
asS'PF00002'
p3804
(lp3805
S'C4QU58'
p3806
asS'PF00009'
p3807
(lp3808
S'C7TZL4'
p3809
aS'G4V5S7'
p3810
asS'PF00008'
p3811
(lp3812
S'Q5C1F4'
p3813
aS'G4V5E1'
p3814
asS'PB020399'
p3815
(lp3816
sS'PB043648'
p3817
(lp3818
sS'PF03740'
p3819
(lp3820
sS'PF02348'
p3821
(lp3822
sS'PB012675'
p3823
(lp3824
sS'PF03024'
p3825
(lp3826
S'Q5DDB9'
p3827
asS'PF03210'
p3828
(lp3829
sS'PF05034'
p3830
(lp3831
sS'PB045338'
p3832
(lp3833
sS'PF12706'
p3834
(lp3835
S'Q5BYT0'
p3836
aS'G4V6P9'
p3837
asS'PF12708'
p3838
(lp3839
sS'PF10385'
p3840
(lp3841
sS'PB024669'
p3842
(lp3843
sS'PB000046'
p3844
(lp3845
sS'PF06478'
p3846
(lp3847
sS'PF06479'
p3848
(lp3849
S'G4VLR4'
p3850
asS'PF06094'
p3851
(lp3852
sS'PF01323'
p3853
(lp3854
sS'PF03118'
p3855
(lp3856
sS'PF03119'
p3857
(lp3858
sS'PF13185'
p3859
(lp3860
sS'PB016220'
p3861
(lp3862
sS'PB023447'
p3863
(lp3864
sS'PF09992'
p3865
(lp3866
sS'PB014027'
p3867
(lp3868
sS'PB006057'
p3869
(lp3870
sS'PF11838'
p3871
(lp3872
S'G4V856'
p3873
aS'Q5C0I3'
p3874
asS'PB040250'
p3875
(lp3876
sS'PF13187'
p3877
(lp3878
sS'PB035799'
p3879
(lp3880
sS'PB002726'
p3881
(lp3882
sS'PF02373'
p3883
(lp3884
S'G4V5L1'
p3885
aS'Q5DGD8'
p3886
asS'PF01842'
p3887
(lp3888
sS'PF02374'
p3889
(lp3890
S'G4V6J4'
p3891
aS'Q5BZ44'
p3892
asS'PF01841'
p3893
(lp3894
S'Q5C3X5'
p3895
aS'G4VI28'
p3896
asS'PF14714'
p3897
(lp3898
sS'PF11940'
p3899
(lp3900
sS'PF11941'
p3901
(lp3902
sS'PF14710'
p3903
(lp3904
sS'PF14711'
p3905
(lp3906
sS'PF14718'
p3907
(lp3908
sS'PF10562'
p3909
(lp3910
sS'PB014703'
p3911
(lp3912
sS'PF10565'
p3913
(lp3914
sS'PF02978'
p3915
(lp3916
S'Q5BW89'
p3917
aS'G4VKV4'
p3918
asS'PF14845'
p3919
(lp3920
S'G4VEC1'
p3921
aS'Q5C4F9'
p3922
asS'PF10569'
p3923
(lp3924
S'Q5C2N1'
p3925
aS'G4V5U5'
p3926
asS'PB001395'
p3927
(lp3928
sS'PF08714'
p3929
(lp3930
sS'PF02971'
p3931
(lp3932
sS'PF14843'
p3933
(lp3934
S'G4M1E6'
p3935
asS'PF02086'
p3936
(lp3937
sS'PF02085'
p3938
(lp3939
sS'PF02089'
p3940
(lp3941
S'Q5DBS6'
p3942
aS'G4VNU1'
p3943
asS'PB002620'
p3944
(lp3945
sS'PB011297'
p3946
(lp3947
sS'PF02570'
p3948
(lp3949
sS'PF13098'
p3950
(lp3951
sS'PF08802'
p3952
(lp3953
sS'PB024873'
p3954
(lp3955
sS'PF02578'
p3956
(lp3957
sS'PF00357'
p3958
(lp3959
sS'PF13091'
p3960
(lp3961
S'G4V7U9'
p3962
aS'Q5C3L2'
p3963
asS'PB011901'
p3964
(lp3965
sS'PB016008'
p3966
(lp3967
sS'PF00423'
p3968
(lp3969
sS'PF03372'
p3970
(lp3971
S'G4LY21'
p3972
aS'Q5BVS0'
p3973
asS'PF01388'
p3974
(lp3975
S'Q5C2V9'
p3976
aS'G4VD19'
p3977
asS'PF13833'
p3978
(lp3979
S'A5A6F7'
p3980
aS'Q3MJS5'
p3981
aS'G4VFV6'
p3982
asS'PF00722'
p3983
(lp3984
sS'PF00294'
p3985
(lp3986
S'Q5C191'
p3987
aS'G4V7G4'
p3988
asS'PF02888'
p3989
(lp3990
S'G4LXV9'
p3991
asS'PF02882'
p3992
(lp3993
S'B3GUY3'
p3994
aS'G4VBG1'
p3995
asS'PF02881'
p3996
(lp3997
S'G4VDN9'
p3998
aS'C7TXS6'
p3999
asS'PF02880'
p4000
(lp4001
S'C7TXY1'
p4002
aS'C4QPU8'
p4003
asS'PF02887'
p4004
(lp4005
S'G4VAH9'
p4006
aS'Q5D8L3'
p4007
asS'PF02886'
p4008
(lp4009
sS'PF02885'
p4010
(lp4011
sS'PF02884'
p4012
(lp4013
sS'PF00959'
p4014
(lp4015
sS'PB026412'
p4016
(lp4017
sS'PF02799'
p4018
(lp4019
S'Q5DFY0'
p4020
aS'G4LUK0'
p4021
asS'PF02798'
p4022
(lp4023
S'G4LXF8'
p4024
aS'Q5D8M1'
p4025
aS'P30114'
p4026
asS'PF02797'
p4027
(lp4028
sS'PF02793'
p4029
(lp4030
S'G4LWU3'
p4031
asS'PF13545'
p4032
(lp4033
sS'PF02790'
p4034
(lp4035
S'G9B0Z9'
p4036
asS'PF01381'
p4037
(lp4038
S'B3GUV5'
p4039
aS'G4VEG1'
p4040
asS'PF02153'
p4041
(lp4042
sS'PF02152'
p4043
(lp4044
sS'PF02155'
p4045
(lp4046
sS'PB032411'
p4047
(lp4048
sS'PF02157'
p4049
(lp4050
sS'PF02156'
p4051
(lp4052
sS'PF02159'
p4053
(lp4054
sS'PF12153'
p4055
(lp4056
sS'PF02403'
p4057
(lp4058
S'Q5C1K0'
p4059
aS'G4VIZ9'
p4060
asS'PF01383'
p4061
(lp4062
sS'PF02401'
p4063
(lp4064
sS'PF01382'
p4065
(lp4066
sS'PB044761'
p4067
(lp4068
sS'PF00836'
p4069
(lp4070
sS'PF13405'
p4071
(lp4072
S'Q5DEU2'
p4073
aS'G4M1S7'
p4074
asS'PB005155'
p4075
(lp4076
sS'PF13406'
p4077
(lp4078
sS'PB026733'
p4079
(lp4080
sS'PF00311'
p4081
(lp4082
sS'PF04800'
p4083
(lp4084
S'G4VNZ5'
p4085
aS'Q5DED6'
p4086
asS'PF01059'
p4087
(lp4088
sS'PF01058'
p4089
(lp4090
S'Q86EG3'
p4091
aS'G4V5Q1'
p4092
asS'PF09261'
p4093
(lp4094
S'Q5BZ38'
p4095
aS'G4M0J4'
p4096
asS'PF01051'
p4097
(lp4098
sS'PF00004'
p4099
(lp4100
S'Q5BQQ4'
p4101
aS'A9NI52'
p4102
asS'PF01053'
p4103
(lp4104
S'G4V6T2'
p4105
asS'PF01055'
p4106
(lp4107
S'G4M039'
p4108
aS'Q5BZG5'
p4109
asS'PF09269'
p4110
(lp4111
sS'PB023945'
p4112
(lp4113
sS'PF12849'
p4114
(lp4115
sS'PB009395'
p4116
(lp4117
sS'PF08029'
p4118
(lp4119
sS'PB015130'
p4120
(lp4121
sS'PF12847'
p4122
(lp4123
S'B5M6Z4'
p4124
asS'PB000703'
p4125
(lp4126
S'G4VK00'
p4127
aS'Q5C1P2'
p4128
asS'PF02502'
p4129
(lp4130
sS'PF09040'
p4131
(lp4132
sS'PF01234'
p4133
(lp4134
sS'PF00639'
p4135
(lp4136
S'G4VT92'
p4137
aS'Q5DFQ6'
p4138
asS'PB021616'
p4139
(lp4140
sS'PF01230'
p4141
(lp4142
S'Q5DHH9'
p4143
aS'G4VSA6'
p4144
asS'PF01233'
p4145
(lp4146
S'Q5DFY0'
p4147
aS'G4LUK0'
p4148
asS'PF00633'
p4149
(lp4150
S'Q5DGR9'
p4151
aS'G4V9V5'
p4152
asS'PF00631'
p4153
(lp4154
S'G4M241'
p4155
asS'PF01239'
p4156
(lp4157
S'G4LUP4'
p4158
aS'B5M6Z9'
p4159
asS'PF13714'
p4160
(lp4161
sS'PF01634'
p4162
(lp4163
sS'PF09193'
p4164
(lp4165
sS'PF09198'
p4166
(lp4167
sS'PF01636'
p4168
(lp4169
sS'PF05222'
p4170
(lp4171
S'G4VN23'
p4172
asS'PF05223'
p4173
(lp4174
sS'PF05221'
p4175
(lp4176
S'G4LX02'
p4177
aS'C7TYU5'
p4178
asS'PF01411'
p4179
(lp4180
S'G4VNT2'
p4181
aS'Q5DI40'
p4182
asS'PF04069'
p4183
(lp4184
sS'PB028772'
p4185
(lp4186
sS'PF07687'
p4187
(lp4188
S'C4Q2I8'
p4189
asS'PB022707'
p4190
(lp4191
sS'PF01410'
p4192
(lp4193
S'Q5C0K3'
p4194
aS'G4V6S8'
p4195
asS'PF01543'
p4196
(lp4197
sS'PF04062'
p4198
(lp4199
S'G4VSI1'
p4200
aS'Q5BT50'
p4201
asS'PB003063'
p4202
(lp4203
sS'PF07689'
p4204
(lp4205
sS'PF01547'
p4206
(lp4207
sS'PF01546'
p4208
(lp4209
S'C4Q2I8'
p4210
asS'PF00496'
p4211
(lp4212
sS'PF00497'
p4213
(lp4214
S'G4V951'
p4215
asS'PF00494'
p4216
(lp4217
S'C1M0K9'
p4218
aS'Q5C3U7'
p4219
asS'PF08240'
p4220
(lp4221
S'Q5BRU3'
p4222
aS'G4VEY4'
p4223
asS'PF05821'
p4224
(lp4225
S'G4VLU9'
p4226
asS'PF00490'
p4227
(lp4228
S'G4VPP6'
p4229
asS'PF00491'
p4230
(lp4231
S'B3GUR2'
p4232
aS'Q6TA39'
p4233
asS'PF08336'
p4234
(lp4235
S'G4VTC9'
p4236
asS'PF10371'
p4237
(lp4238
sS'PF08332'
p4239
(lp4240
S'Q5BS63'
p4241
aS'G4VSZ0'
p4242
asS'PB029193'
p4243
(lp4244
sS'PB012400'
p4245
(lp4246
sS'PF00126'
p4247
(lp4248
sS'PF00127'
p4249
(lp4250
sS'PF00124'
p4251
(lp4252
sS'PF00122'
p4253
(lp4254
S'Q5BVV2'
p4255
aS'G4M0N5'
p4256
asS'PF00123'
p4257
(lp4258
sS'PF00120'
p4259
(lp4260
S'C4Q2Z2'
p4261
aS'B3W674'
p4262
asS'PF00121'
p4263
(lp4264
S'B3GUX0'
p4265
aS'G4V6B9'
p4266
aS'A5A6F9'
p4267
asS'PF12944'
p4268
(lp4269
sS'PF00128'
p4270
(lp4271
S'B9P3Q9'
p4272
aS'B9P3Q8'
p4273
asS'PF00129'
p4274
(lp4275
S'D2SY10'
p4276
asS'PB094041'
p4277
(lp4278
sS'PB219066'
p4279
(lp4280
sS'PF01306'
p4281
(lp4282
sS'PB015913'
p4283
(lp4284
sS'PF04072'
p4285
(lp4286
S'Q5C706'
p4287
aS'G4V5Z4'
p4288
asS'PF07469'
p4289
(lp4290
sS'PF00306'
p4291
(lp4292
S'Q86EB8'
p4293
aS'G4LWA8'
p4294
asS'PF00307'
p4295
(lp4296
S'Q5BYB6'
p4297
aS'G4LX56'
p4298
asS'PF00305'
p4299
(lp4300
S'Q5C0R3'
p4301
aS'G4V9T8'
p4302
asS'PF00302'
p4303
(lp4304
sS'PF00303'
p4305
(lp4306
S'Q5DEB3'
p4307
aS'G4V8Q8'
p4308
asS'PF07460'
p4309
(lp4310
sS'PF00301'
p4311
(lp4312
sS'PF12627'
p4313
(lp4314
S'G4VEK2'
p4315
asS'PF04461'
p4316
(lp4317
sS'PB015591'
p4318
(lp4319
sS'PB007484'
p4320
(lp4321
sS'PB015598'
p4322
(lp4323
sS'PF09147'
p4324
(lp4325
sS'PF02664'
p4326
(lp4327
sS'PF13385'
p4328
(lp4329
S'G4V5T7'
p4330
asS'PB007716'
p4331
(lp4332
sS'PB020950'
p4333
(lp4334
S'G4VD76'
p4335
asS'PF02910'
p4336
(lp4337
S'G4LY63'
p4338
aS'Q5DE07'
p4339
asS'PF00012'
p4340
(lp4341
S'C4QFX9'
p4342
aS'B3GUU7'
p4343
asS'PF00545'
p4344
(lp4345
sS'PF00010'
p4346
(lp4347
S'Q5BSM9'
p4348
aS'G4LUM4'
p4349
asS'PF00547'
p4350
(lp4351
sS'PF00016'
p4352
(lp4353
sS'PF00541'
p4354
(lp4355
sS'PF00014'
p4356
(lp4357
S'G4VBB1'
p4358
aS'Q5DA05'
p4359
asS'PF00015'
p4360
(lp4361
sS'PB012800'
p4362
(lp4363
sS'PF00018'
p4364
(lp4365
S'Q3KZ48'
p4366
aS'G4LZX2'
p4367
asS'PF00019'
p4368
(lp4369
S'D8V162'
p4370
aS'A4UAH0'
p4371
asS'PF00548'
p4372
(lp4373
sS'PF00549'
p4374
(lp4375
S'G4LX99'
p4376
aS'Q5BS99'
p4377
asS'PB012806'
p4378
(lp4379
sS'PB140935'
p4380
(lp4381
sS'PB057834'
p4382
(lp4383
sS'PB078284'
p4384
(lp4385
sS'PB034034'
p4386
(lp4387
sS'PB008283'
p4388
(lp4389
sS'PB006843'
p4390
(lp4391
sS'PB000296'
p4392
(lp4393
sS'PB003246'
p4394
(lp4395
sS'PB000298'
p4396
(lp4397
S'Q5BSQ6'
p4398
aS'G4VFA6'
p4399
asS'PF12710'
p4400
(lp4401
S'G4VF82'
p4402
asS'PB000053'
p4403
(lp4404
S'Q5BSE2'
p4405
aS'G4LX88'
p4406
asS'PF10397'
p4407
(lp4408
S'G4VQX9'
p4409
aS'Q5BTN6'
p4410
asS'PF10391'
p4411
(lp4412
sS'PB063697'
p4413
(lp4414
sS'PF08491'
p4415
(lp4416
sS'PF10399'
p4417
(lp4418
sS'PB001594'
p4419
(lp4420
S'G4LXE8'
p4421
asS'PF03160'
p4422
(lp4423
S'Q5DCN0'
p4424
aS'G4V5K3'
p4425
asS'PF03167'
p4426
(lp4427
S'G4VHI3'
p4428
aS'Q5DC15'
p4429
asS'PF03166'
p4430
(lp4431
S'Q5BQQ2'
p4432
aS'G4V9S6'
p4433
asS'PF03165'
p4434
(lp4435
S'A4VC64'
p4436
aS'Q5C305'
p4437
asS'PF14651'
p4438
(lp4439
sS'PB004563'
p4440
(lp4441
sS'PF00870'
p4442
(lp4443
S'G4LYM1'
p4444
asS'PF14497'
p4445
(lp4446
sS'PF14495'
p4447
(lp4448
sS'PF14492'
p4449
(lp4450
S'G4VR47'
p4451
aS'Q5BXM1'
p4452
asS'PB219375'
p4453
(lp4454
sS'PB016810'
p4455
(lp4456
sS'PF13394'
p4457
(lp4458
sS'PB117252'
p4459
(lp4460
sS'PF02364'
p4461
(lp4462
sS'PB003651'
p4463
(lp4464
sS'PB004973'
p4465
(lp4466
S'G4LVF0'
p4467
asS'PF12387'
p4468
(lp4469
sS'PF02369'
p4470
(lp4471
sS'PF00943'
p4472
(lp4473
sS'PF01839'
p4474
(lp4475
S'C4PYZ0'
p4476
asS'PF12549'
p4477
(lp4478
sS'PF03765'
p4479
(lp4480
S'G4M251'
p4481
aS'Q5DCR8'
p4482
asS'PF03764'
p4483
(lp4484
S'G4VI96'
p4485
aS'Q5BXM0'
p4486
asS'PF03767'
p4487
(lp4488
sS'PF01835'
p4489
(lp4490
S'G4V5U5'
p4491
asS'PF14721'
p4492
(lp4493
S'G4LX00'
p4494
asS'PB001893'
p4495
(lp4496
S'G4V834'
p4497
asS'PB031264'
p4498
(lp4499
sS'PB001896'
p4500
(lp4501
sS'PF14724'
p4502
(lp4503
S'G4VE48'
p4504
aS'Q5C353'
p4505
asS'PF00944'
p4506
(lp4507
sS'PB358817'
p4508
(lp4509
sS'PF10576'
p4510
(lp4511
sS'PF02965'
p4512
(lp4513
sS'PF01702'
p4514
(lp4515
S'Q5BY11'
p4516
aS'G4VDV6'
p4517
asS'PF08499'
p4518
(lp4519
S'G4VN14'
p4520
asS'PF07974'
p4521
(lp4522
S'E7BBC0'
p4523
aS'Q5C0L6'
p4524
asS'PF02093'
p4525
(lp4526
sS'PB013448'
p4527
(lp4528
sS'PF07977'
p4529
(lp4530
sS'PF10637'
p4531
(lp4532
S'G4VKQ0'
p4533
asS'PF02566'
p4534
(lp4535
sS'PF02567'
p4536
(lp4537
sS'PF02569'
p4538
(lp4539
sS'PF06001'
p4540
(lp4541
S'G4VEQ5'
p4542
asS'PF03308'
p4543
(lp4544
sS'PF00652'
p4545
(lp4546
S'Q5BZK1'
p4547
aS'G4LXX4'
p4548
asS'PF00653'
p4549
(lp4550
S'Q5DAH8'
p4551
aS'G4LZ60'
p4552
asS'PB010533'
p4553
(lp4554
sS'PF00074'
p4555
(lp4556
sS'PF11717'
p4557
(lp4558
S'C4PY87'
p4559
aS'Q5C1D5'
p4560
asS'PB021740'
p4561
(lp4562
sS'PB049495'
p4563
(lp4564
sS'PF02898'
p4565
(lp4566
sS'PF13574'
p4567
(lp4568
S'G4VEJ8'
p4569
asS'PF04928'
p4570
(lp4571
S'G4LZL5'
p4572
aS'Q5C400'
p4573
asS'PF00378'
p4574
(lp4575
S'C4QS32'
p4576
asS'PF04926'
p4577
(lp4578
S'G4LZL5'
p4579
asS'PF02895'
p4580
(lp4581
sS'PF02896'
p4582
(lp4583
sS'PF02897'
p4584
(lp4585
S'Q5BVV0'
p4586
asS'PF13377'
p4587
(lp4588
sS'PF00949'
p4589
(lp4590
sS'PB026466'
p4591
(lp4592
sS'PF12160'
p4593
(lp4594
sS'PF02784'
p4595
(lp4596
sS'PF00941'
p4597
(lp4598
sS'PF00942'
p4599
(lp4600
sS'PF02787'
p4601
(lp4602
S'G4VEM7'
p4603
asS'PF02780'
p4604
(lp4605
S'G4V9A5'
p4606
aS'Q5BSR1'
p4607
asS'PF02781'
p4608
(lp4609
S'G4VAM6'
p4610
aS'Q5DH83'
p4611
asS'PF00946'
p4612
(lp4613
sS'PF13378'
p4614
(lp4615
sS'PF03947'
p4616
(lp4617
S'C7TZL1'
p4618
aS'G4LY29'
p4619
asS'PF02167'
p4620
(lp4621
S'Q5C336'
p4622
aS'G4LZ24'
p4623
asS'PF03941'
p4624
(lp4625
sS'PF02148'
p4626
(lp4627
S'G4M151'
p4628
aS'Q5BVR0'
p4629
asS'PF02146'
p4630
(lp4631
S'Q5BVF7'
p4632
aS'G4VH77'
p4633
asS'PF03949'
p4634
(lp4635
S'G4VS91'
p4636
aS'Q5BXZ0'
p4637
asS'PF02412'
p4638
(lp4639
sS'PB004580'
p4640
(lp4641
S'G4VAJ2'
p4642
asS'PB032337'
p4643
(lp4644
sS'PB014325'
p4645
(lp4646
sS'PF09326'
p4647
(lp4648
S'G4LUK7'
p4649
aS'Q5BXF5'
p4650
asS'PB010625'
p4651
(lp4652
sS'PB044755'
p4653
(lp4654
sS'PF00809'
p4655
(lp4656
sS'PF04813'
p4657
(lp4658
sS'PF11628'
p4659
(lp4660
sS'PF13410'
p4661
(lp4662
S'Q5DC25'
p4663
asS'PF13416'
p4664
(lp4665
sS'PF13417'
p4666
(lp4667
S'G4M1D8'
p4668
aS'Q5DCE6'
p4669
asS'PF13414'
p4670
(lp4671
S'Q5BWX9'
p4672
aS'G4V5K6'
p4673
asS'PB000904'
p4674
(lp4675
sS'PB037134'
p4676
(lp4677
sS'PB037137'
p4678
(lp4679
sS'PB005364'
p4680
(lp4681
sS'PB076805'
p4682
(lp4683
sS'PB005366'
p4684
(lp4685
sS'PF01041'
p4686
(lp4687
sS'PB037139'
p4688
(lp4689
sS'PF01048'
p4690
(lp4691
S'G4LWY0'
p4692
aS'Q5C0P1'
p4693
asS'PF01049'
p4694
(lp4695
sS'PB021142'
p4696
(lp4697
sS'PB004082'
p4698
(lp4699
sS'PB016217'
p4700
(lp4701
sS'PB009412'
p4702
(lp4703
sS'PF08035'
p4704
(lp4705
sS'PF12473'
p4706
(lp4707
S'G4V7M8'
p4708
aS'Q5D9G9'
p4709
asS'PF04253'
p4710
(lp4711
S'G4VIQ5'
p4712
asS'PB130576'
p4713
(lp4714
sS'PB014430'
p4715
(lp4716
sS'PF09030'
p4717
(lp4718
sS'PF09036'
p4719
(lp4720
sS'PF01222'
p4721
(lp4722
S'G4V6C5'
p4723
asS'PF01223'
p4724
(lp4725
S'G4M111'
p4726
asS'PF01220'
p4727
(lp4728
sS'PF01227'
p4729
(lp4730
S'G4VFZ0'
p4731
asS'PF01225'
p4732
(lp4733
sS'PF01228'
p4734
(lp4735
sS'PB227186'
p4736
(lp4737
sS'PF04321'
p4738
(lp4739
sS'PF01558'
p4740
(lp4741
sS'PF12941'
p4742
(lp4743
sS'PF12947'
p4744
(lp4745
sS'PF07679'
p4746
(lp4747
S'G4VFE7'
p4748
aS'Q3KZB1'
p4749
asS'PF07678'
p4750
(lp4751
S'G4V5U5'
p4752
aS'Q5BZH7'
p4753
asS'PF07677'
p4754
(lp4755
S'G4V5U5'
p4756
asS'PF01552'
p4757
(lp4758
sS'PF13847'
p4759
(lp4760
S'G4VMR5'
p4761
asS'PF01557'
p4762
(lp4763
S'Q5DFL7'
p4764
aS'G4M1F1'
p4765
asS'PB011578'
p4766
(lp4767
sS'PB015051'
p4768
(lp4769
sS'PF08329'
p4770
(lp4771
sS'PF07965'
p4772
(lp4773
sS'PF08326'
p4774
(lp4775
S'G4VJ84'
p4776
asS'PF08490'
p4777
(lp4778
S'G4VQT4'
p4779
asS'PF06958'
p4780
(lp4781
sS'PF00153'
p4782
(lp4783
S'G4VHS7'
p4784
aS'C7TXU4'
p4785
asS'PF00152'
p4786
(lp4787
S'C1M2T7'
p4788
aS'Q5BXL5'
p4789
asS'PF00151'
p4790
(lp4791
sS'PF00150'
p4792
(lp4793
S'C4QQE1'
p4794
aS'Q5DGI7'
p4795
asS'PF00156'
p4796
(lp4797
S'Q5DFR6'
p4798
aS'G4LWP0'
p4799
asS'PF00155'
p4800
(lp4801
S'Q5BSJ7'
p4802
aS'G4V628'
p4803
asS'PF00154'
p4804
(lp4805
sS'PF00159'
p4806
(lp4807
S'G4LVY8'
p4808
asS'PF00158'
p4809
(lp4810
sS'PF00821'
p4811
(lp4812
S'G4V721'
p4813
aS'Q5DGF3'
p4814
asS'PF00795'
p4815
(lp4816
S'Q5C342'
p4817
aS'G4LZ98'
p4818
asS'PF00794'
p4819
(lp4820
S'G4V7A4'
p4821
aS'Q5C4I9'
p4822
asS'PF00797'
p4823
(lp4824
sS'PF00790'
p4825
(lp4826
S'G4VL59'
p4827
aS'Q5BTJ3'
p4828
asS'PF00793'
p4829
(lp4830
sS'PF00792'
p4831
(lp4832
S'G4V7A4'
p4833
aS'Q5D960'
p4834
asS'PF01315'
p4835
(lp4836
sS'PB019018'
p4837
(lp4838
sS'PF04675'
p4839
(lp4840
S'G4LYZ4'
p4841
aS'Q5C3W5'
p4842
asS'PF00373'
p4843
(lp4844
S'C7TXT2'
p4845
aS'G4LWV5'
p4846
asS'PF00370'
p4847
(lp4848
S'G4VCJ6'
p4849
aS'Q5C1C4'
p4850
asS'PF00377'
p4851
(lp4852
sS'PF00376'
p4853
(lp4854
sS'PF00375'
p4855
(lp4856
S'G4VEI8'
p4857
aS'Q5BZ02'
p4858
asS'PB003121'
p4859
(lp4860
sS'PF00194'
p4861
(lp4862
S'G4M116'
p4863
aS'Q5BRC9'
p4864
asS'PF00571'
p4865
(lp4866
S'G4LUH6'
p4867
aS'Q3MJS8'
p4868
asS'PF00573'
p4869
(lp4870
S'G4V6B7'
p4871
aS'Q5DEG2'
p4872
asS'PB008275'
p4873
(lp4874
S'G4LXA8'
p4875
asS'PF00570'
p4876
(lp4877
S'Q5C709'
p4878
aS'G4VEU9'
p4879
asS'PF08246'
p4880
(lp4881
S'Q10834'
p4882
aS'B4XC67'
p4883
asS'PF00572'
p4884
(lp4885
S'G4VGE1'
p4886
aS'Q5D932'
p4887
asS'PF00574'
p4888
(lp4889
S'G4V8C7'
p4890
aS'Q3MJW3'
p4891
asS'PF00577'
p4892
(lp4893
sS'PF00579'
p4894
(lp4895
S'Q5BYF9'
p4896
aS'G4LXR8'
p4897
asS'PF00578'
p4898
(lp4899
S'G4LV26'
p4900
aS'C7TZK0'
p4901
asS'PF13964'
p4902
(lp4903
S'G4VLQ8'
p4904
asS'PB063464'
p4905
(lp4906
sS'PF00207'
p4907
(lp4908
S'G4V5U5'
p4909
asS'PF00206'
p4910
(lp4911
S'G4LVG5'
p4912
aS'Q5C1G4'
p4913
asS'PF00205'
p4914
(lp4915
S'G4LZK6'
p4916
asS'PF00204'
p4917
(lp4918
S'G4VPA9'
p4919
asS'PF00203'
p4920
(lp4921
S'G4VJN9'
p4922
aS'Q5BTN7'
p4923
asS'PF00202'
p4924
(lp4925
S'Q5DDC4'
p4926
aS'A7UAX6'
p4927
asS'PF00201'
p4928
(lp4929
sS'PF00200'
p4930
(lp4931
S'C4QGD8'
p4932
asS'PB298323'
p4933
(lp4934
sS'PF00209'
p4935
(lp4936
S'Q5BTB8'
p4937
aS'A0N0C4'
p4938
asS'PF00208'
p4939
(lp4940
S'G4LYZ1'
p4941
asS'PB023739'
p4942
(lp4943
sS'PF00800'
p4944
(lp4945
sS'PF12769'
p4946
(lp4947
S'G4VN23'
p4948
asS'PB007583'
p4949
(lp4950
sS'PB038690'
p4951
(lp4952
sS'PB000459'
p4953
(lp4954
sS'PB000026'
p4955
(lp4956
S'G4VTM2'
p4957
aS'Q5BVJ9'
p4958
asS'PF06415'
p4959
(lp4960
sS'PB004033'
p4961
(lp4962
sS'PB004032'
p4963
(lp4964
sS'PF14396'
p4965
(lp4966
sS'PF01108'
p4967
(lp4968
sS'PB019530'
p4969
(lp4970
sS'PF03171'
p4971
(lp4972
S'G4VPQ8'
p4973
aS'Q86ED8'
p4974
asS'PF03173'
p4975
(lp4976
sS'PF03174'
p4977
(lp4978
sS'PB022958'
p4979
(lp4980
sS'PF06237'
p4981
(lp4982
sS'PF12169'
p4983
(lp4984
sS'PF11857'
p4985
(lp4986
sS'PF02313'
p4987
(lp4988
sS'PF02311'
p4989
(lp4990
sS'PF02310'
p4991
(lp4992
sS'PB026899'
p4993
(lp4994
sS'PB004736'
p4995
(lp4996
sS'PF01065'
p4997
(lp4998
sS'PF12393'
p4999
(lp5000
sS'PF13147'
p5001
(lp5002
sS'PF01066'
p5003
(lp5004
S'G4LUE3'
p5005
aS'Q5D8U3'
p5006
asS'PB143670'
p5007
(lp5008
sS'PB002743'
p5009
(lp5010
S'G4V7U4'
p5011
asS'PB016378'
p5012
(lp5013
sS'PF01820'
p5014
(lp5015
sS'PF01821'
p5016
(lp5017
sS'PF03770'
p5018
(lp5019
S'Q5D967'
p5020
aS'G4LWT5'
p5021
asS'PB017535'
p5022
(lp5023
sS'PF01825'
p5024
(lp5025
S'G4VNK8'
p5026
asS'PF01826'
p5027
(lp5028
sS'PB006675'
p5029
(lp5030
sS'PB010966'
p5031
(lp5032
sS'PF03573'
p5033
(lp5034
sS'PB015022'
p5035
(lp5036
sS'PF03796'
p5037
(lp5038
sS'PF03797'
p5039
(lp5040
sS'PF03793'
p5041
(lp5042
sS'PF02952'
p5043
(lp5044
sS'PF02954'
p5045
(lp5046
sS'PB225594'
p5047
(lp5048
sS'PB062079'
p5049
(lp5050
sS'PB000840'
p5051
(lp5052
sS'PB000841'
p5053
(lp5054
sS'PB005502'
p5055
(lp5056
sS'PF02226'
p5057
(lp5058
sS'PF02225'
p5059
(lp5060
S'G4VDJ3'
p5061
aS'Q5C2X8'
p5062
asS'PF02224'
p5063
(lp5064
sS'PF02551'
p5065
(lp5066
sS'PF02222'
p5067
(lp5068
sS'PF02221'
p5069
(lp5070
S'G4VTW4'
p5071
aS'Q5DFZ4'
p5072
asS'PF00648'
p5073
(lp5074
S'G4LXK2'
p5075
aS'A5A6F7'
p5076
aS'C7TZP3'
p5077
asS'PF00530'
p5078
(lp5079
S'G4V6K5'
p5080
asS'PB041283'
p5081
(lp5082
sS'PB041285'
p5083
(lp5084
sS'PB013236'
p5085
(lp5086
sS'PB134453'
p5087
(lp5088
sS'PF00975'
p5089
(lp5090
sS'PB006620'
p5091
(lp5092
sS'PF00976'
p5093
(lp5094
sS'PB023149'
p5095
(lp5096
sS'PF00972'
p5097
(lp5098
sS'PB061776'
p5099
(lp5100
sS'PB003231'
p5101
(lp5102
sS'PB001260'
p5103
(lp5104
sS'PF12170'
p5105
(lp5106
sS'PF13360'
p5107
(lp5108
sS'PB003824'
p5109
(lp5110
sS'PF12178'
p5111
(lp5112
sS'PF12179'
p5113
(lp5114
sS'PF03952'
p5115
(lp5116
S'P33676'
p5117
aS'Q6LC36'
p5118
asS'PF03953'
p5119
(lp5120
S'C4Q4S5'
p5121
aS'Q5FYA5'
p5122
aS'C7TXT4'
p5123
asS'PF03950'
p5124
(lp5125
S'G4V8J0'
p5126
aS'Q5DAC3'
p5127
asS'PF03951'
p5128
(lp5129
S'B3W674'
p5130
aS'G4V9E4'
p5131
asS'PF03957'
p5132
(lp5133
S'Q5C166'
p5134
aS'G4VQC3'
p5135
asS'PF03403'
p5136
(lp5137
sS'PF02423'
p5138
(lp5139
sS'PB000934'
p5140
(lp5141
sS'PF12379'
p5142
(lp5143
sS'PF02135'
p5144
(lp5145
S'Q5C2Q5'
p5146
aS'G4VEQ5'
p5147
asS'PF02134'
p5148
(lp5149
S'Q5C0W2'
p5150
aS'G4LWD7'
p5151
asS'PB014993'
p5152
(lp5153
sS'PF09339'
p5154
(lp5155
sS'PF09334'
p5156
(lp5157
S'G4LZ29'
p5158
aS'Q5DH32'
p5159
asS'PF09336'
p5160
(lp5161
S'G4M0P8'
p5162
aS'Q5BST4'
p5163
asS'PF09330'
p5164
(lp5165
sS'PB005176'
p5166
(lp5167
sS'PB060553'
p5168
(lp5169
sS'PF11636'
p5170
(lp5171
sS'PF04868'
p5172
(lp5173
sS'PF00817'
p5174
(lp5175
S'C7TY40'
p5176
aS'G4VDB1'
p5177
asS'PB060554'
p5178
(lp5179
sS'PF00815'
p5180
(lp5181
sS'PF01033'
p5182
(lp5183
S'G4VAK5'
p5184
aS'Q5C236'
p5185
asS'PF01030'
p5186
(lp5187
S'Q5DGM4'
p5188
aS'G4M1E6'
p5189
asS'PF01036'
p5190
(lp5191
sS'PF01035'
p5192
(lp5193
sS'PB200588'
p5194
(lp5195
sS'PF01039'
p5196
(lp5197
S'Q5BSD9'
p5198
aS'G4V686'
p5199
asS'PB000189'
p5200
(lp5201
sS'PF02046'
p5202
(lp5203
sS'PB000188'
p5204
(lp5205
sS'PF09757'
p5206
(lp5207
S'G4VPK5'
p5208
asS'PF05025'
p5209
(lp5210
sS'PB020319'
p5211
(lp5212
S'Q5DHS4'
p5213
asS'PF05790'
p5214
(lp5215
sS'PB018179'
p5216
(lp5217
sS'PB019481'
p5218
(lp5219
sS'PB071676'
p5220
(lp5221
sS'PF02843'
p5222
(lp5223
sS'PF04263'
p5224
(lp5225
sS'PF00275'
p5226
(lp5227
sS'PF04265'
p5228
(lp5229
S'Q5BRD8'
p5230
aS'G4VDG7'
p5231
asS'PF04264'
p5232
(lp5233
sS'PF06418'
p5234
(lp5235
S'G4VCB5'
p5236
aS'Q5BRU4'
p5237
asS'PB055768'
p5238
(lp5239
sS'PB464245'
p5240
(lp5241
sS'PF09021'
p5242
(lp5243
sS'PF09027'
p5244
(lp5245
sS'PF01329'
p5246
(lp5247
S'G4VKX2'
p5248
aS'Q86E70'
p5249
asS'PF01783'
p5250
(lp5251
S'Q5C3Z1'
p5252
aS'G4V665'
p5253
asS'PB009241'
p5254
(lp5255
sS'PB009240'
p5256
(lp5257
sS'PF00701'
p5258
(lp5259
sS'PB009245'
p5260
(lp5261
sS'PB009712'
p5262
(lp5263
sS'PB091833'
p5264
(lp5265
sS'PF01144'
p5266
(lp5267
sS'PF01141'
p5268
(lp5269
sS'PF01140'
p5270
(lp5271
sS'PF12950'
p5272
(lp5273
sS'PB019399'
p5274
(lp5275
sS'PF01765'
p5276
(lp5277
sS'PB008042'
p5278
(lp5279
sS'PF01761'
p5280
(lp5281
sS'PB003008'
p5282
(lp5283
sS'PB058349'
p5284
(lp5285
sS'PB077159'
p5286
(lp5287
sS'PF07660'
p5288
(lp5289
sS'PB038253'
p5290
(lp5291
sS'PF09154'
p5292
(lp5293
sS'PF09156'
p5294
(lp5295
sS'PF09150'
p5296
(lp5297
sS'PF00749'
p5298
(lp5299
S'Q5BT31'
p5300
aS'G4V8J0'
p5301
asS'PF00140'
p5302
(lp5303
sS'PF00141'
p5304
(lp5305
sS'PF00143'
p5306
(lp5307
sS'PF00144'
p5308
(lp5309
S'G4LYN9'
p5310
aS'Q5BXM2'
p5311
asS'PF00145'
p5312
(lp5313
S'C4Q8S0'
p5314
asS'PF00146'
p5315
(lp5316
S'B2D0R0'
p5317
aS'B0FNC5'
p5318
aS'Q3KUH4'
p5319
asS'PF00147'
p5320
(lp5321
sS'PF00149'
p5322
(lp5323
S'C7TY21'
p5324
aS'C1LZY9'
p5325
asS'PF00782'
p5326
(lp5327
S'C4QJ46'
p5328
aS'C7TYW3'
p5329
asS'PF01369'
p5330
(lp5331
S'C4QNZ8'
p5332
aS'Q5BZ89'
p5333
asS'PF09180'
p5334
(lp5335
S'G4VLU3'
p5336
aS'Q5C5I9'
p5337
asS'PF00786'
p5338
(lp5339
S'G4M136'
p5340
asS'PF00787'
p5341
(lp5342
S'G4VLM8'
p5343
aS'Q5DCX2'
p5344
asS'PF01363'
p5345
(lp5346
S'G4VAL4'
p5347
aS'Q5BSA5'
p5348
asS'PF01490'
p5349
(lp5350
S'G4LWB0'
p5351
aS'Q5BXS0'
p5352
asS'PF01493'
p5353
(lp5354
S'Q5C3P4'
p5355
aS'G4VS94'
p5356
asS'PF01367'
p5357
(lp5358
sS'PF01494'
p5359
(lp5360
S'G4LYR0'
p5361
asS'PF01365'
p5362
(lp5363
S'G4LXE8'
p5364
asS'PF00368'
p5365
(lp5366
S'C4Q5I9'
p5367
asS'PF01619'
p5368
(lp5369
S'C7TYZ6'
p5370
aS'G4VHM2'
p5371
asS'PF00360'
p5372
(lp5373
sS'PF00361'
p5374
(lp5375
S'G4V586'
p5376
aS'B2MV84'
p5377
aS'Q1I0N2'
p5378
asS'PF00362'
p5379
(lp5380
S'E7BBC0'
p5381
aS'Q5C2S8'
p5382
asS'PF00364'
p5383
(lp5384
S'G4LZ03'
p5385
aS'Q5BSC4'
p5386
asS'PF00365'
p5387
(lp5388
S'Q5C1U5'
p5389
aS'G4VKA5'
p5390
asS'PB019020'
p5391
(lp5392
sS'PB029715'
p5393
(lp5394
sS'PB003137'
p5395
(lp5396
S'A5H659'
p5397
asS'PF04444'
p5398
(lp5399
sS'PF08771'
p5400
(lp5401
S'G4VCG1'
p5402
asS'PB050411'
p5403
(lp5404
sS'PF08778'
p5405
(lp5406
sS'PB026282'
p5407
(lp5408
sS'PF07884'
p5409
(lp5410
sS'PF07885'
p5411
(lp5412
S'Q5BRF7'
p5413
aS'G4VBJ3'
p5414
asS'PF07881'
p5415
(lp5416
sS'PF07882'
p5417
(lp5418
sS'PF07883'
p5419
(lp5420
S'Q5DE75'
p5421
aS'G4LU88'
p5422
asS'PF04045'
p5423
(lp5424
S'Q5DFP2'
p5425
aS'G4VMP1'
p5426
asS'PF01564'
p5427
(lp5428
sS'PF12423'
p5429
(lp5430
S'G4VQ20'
p5431
asS'PF01560'
p5432
(lp5433
sS'PF01563'
p5434
(lp5435
sS'PF00569'
p5436
(lp5437
S'Q5D8S2'
p5438
aS'G4VBY7'
p5439
asS'PB012866'
p5440
(lp5441
sS'PF00565'
p5442
(lp5443
S'Q5C2R8'
p5444
aS'C4QP46'
p5445
asS'PF00562'
p5446
(lp5447
S'Q5BWA2'
p5448
aS'G4VEG3'
p5449
asS'PB012862'
p5450
(lp5451
sS'PF00560'
p5452
(lp5453
S'Q5C195'
p5454
aS'G4V8E9'
p5455
asS'PF00561'
p5456
(lp5457
S'Q5C1M5'
p5458
aS'G4VQT1'
p5459
asS'PF00214'
p5460
(lp5461
sS'PF00215'
p5462
(lp5463
S'G4VH85'
p5464
asS'PF00217'
p5465
(lp5466
S'P16641'
p5467
aS'Q5C101'
p5468
asS'PF00210'
p5469
(lp5470
S'B3GUY2'
p5471
aS'G4LUZ7'
p5472
asS'PF00211'
p5473
(lp5474
S'Q5BXD2'
p5475
aS'G4LV56'
p5476
asS'PF00212'
p5477
(lp5478
sS'PF01436'
p5479
(lp5480
S'Q3KZE2'
p5481
aS'G4V7U0'
p5482
asS'PF00218'
p5483
(lp5484
sS'PB030008'
p5485
(lp5486
sS'PF01434'
p5487
(lp5488
S'B1WA67'
p5489
aS'G4VGL9'
p5490
asS'PB119388'
p5491
(lp5492
sS'PB089451'
p5493
(lp5494
sS'PB012596'
p5495
(lp5496
sS'PB009652'
p5497
(lp5498
sS'PB166095'
p5499
(lp5500
sS'PF13825'
p5501
(lp5502
sS'PB000032'
p5503
(lp5504
S'G4VMZ5'
p5505
asS'PF15403'
p5506
(lp5507
sS'PF06426'
p5508
(lp5509
sS'PB073832'
p5510
(lp5511
sS'PB007202'
p5512
(lp5513
sS'PF15401'
p5514
(lp5515
sS'PF07699'
p5516
(lp5517
S'G4VNI9'
p5518
asS'PB110053'
p5519
(lp5520
sS'PB011930'
p5521
(lp5522
S'G4V8P0'
p5523
asS'PB012738'
p5524
(lp5525
sS'PF02297'
p5526
(lp5527
S'C4Q820'
p5528
asS'PF03144'
p5529
(lp5530
S'Q5BYH7'
p5531
aS'G4LUY4'
p5532
asS'PF03147'
p5533
(lp5534
S'G4VKS1'
p5535
aS'Q5C108'
p5536
asS'PF03424'
p5537
(lp5538
sS'PF03143'
p5539
(lp5540
S'G4V5Z8'
p5541
aS'Q5BZC4'
p5542
asS'PB012734'
p5543
(lp5544
sS'PF02938'
p5545
(lp5546
sS'PB028470'
p5547
(lp5548
sS'PB012285'
p5549
(lp5550
sS'PF02136'
p5551
(lp5552
S'Q5BSP6'
p5553
aS'G4VLS7'
p5554
asS'PB000322'
p5555
(lp5556
S'G4LZH2'
p5557
asS'PF03073'
p5558
(lp5559
S'G4VJX2'
p5560
asS'PB007113'
p5561
(lp5562
sS'PF11799'
p5563
(lp5564
S'G4VAP7'
p5565
asS'PB039672'
p5566
(lp5567
sS'PB047473'
p5568
(lp5569
sS'PB016298'
p5570
(lp5571
sS'PB004912'
p5572
(lp5573
sS'PF02300'
p5574
(lp5575
sS'PF02302'
p5576
(lp5577
sS'PF01812'
p5578
(lp5579
S'G4VJG8'
p5580
asS'PB002772'
p5581
(lp5582
sS'PB002774'
p5583
(lp5584
sS'PB191389'
p5585
(lp5586
sS'PB146267'
p5587
(lp5588
sS'PF12924'
p5589
(lp5590
sS'PF14749'
p5591
(lp5592
sS'PF14748'
p5593
(lp5594
S'Q5BYJ6'
p5595
aS'G4V8Z5'
p5596
asS'PF03091'
p5597
(lp5598
S'G4VBZ2'
p5599
aS'Q86FB2'
p5600
asS'PF03544'
p5601
(lp5602
sS'PF02493'
p5603
(lp5604
S'G4LXF4'
p5605
aS'Q5D9Y0'
p5606
asS'PF13288'
p5607
(lp5608
sS'PF00162'
p5609
(lp5610
S'B3W661'
p5611
aS'G4VG19'
p5612
asS'PB001859'
p5613
(lp5614
sS'PB004829'
p5615
(lp5616
sS'PF02548'
p5617
(lp5618
sS'PF01965'
p5619
(lp5620
S'Q5DC05'
p5621
aS'G4VDR4'
p5622
asS'PF02239'
p5623
(lp5624
sS'PF03895'
p5625
(lp5626
sS'PF01966'
p5627
(lp5628
S'G4VCL3'
p5629
asS'PF02542'
p5630
(lp5631
sS'PF01968'
p5632
(lp5633
sS'PF02540'
p5634
(lp5635
S'Q5C0M0'
p5636
aS'G4VH07'
p5637
asS'PF02237'
p5638
(lp5639
sS'PF02230'
p5640
(lp5641
S'G4VPG3'
p5642
aS'C9W186'
p5643
asS'PF03328'
p5644
(lp5645
sS'PF02544'
p5646
(lp5647
S'G4LY75'
p5648
aS'Q5DAJ9'
p5649
asS'PF02233'
p5650
(lp5651
S'G4VN23'
p5652
asS'PF11865'
p5653
(lp5654
S'G4VCG1'
p5655
asS'PF01019'
p5656
(lp5657
S'Q5BW02'
p5658
aS'G4VHL2'
p5659
asS'PB031513'
p5660
(lp5661
sS'PB014058'
p5662
(lp5663
sS'PF14987'
p5664
(lp5665
sS'PF14928'
p5666
(lp5667
sS'PB014486'
p5668
(lp5669
sS'PF00962'
p5670
(lp5671
S'Q1A7N0'
p5672
aS'G4LVD7'
p5673
asS'PF00960'
p5674
(lp5675
sS'PF13599'
p5676
(lp5677
sS'PF00965'
p5678
(lp5679
sS'PF13597'
p5680
(lp5681
sS'PF05496'
p5682
(lp5683
sS'PF05491'
p5684
(lp5685
sS'PF02436'
p5686
(lp5687
S'G4V7Q5'
p5688
aS'Q5DFC2'
p5689
asS'PF07992'
p5690
(lp5691
S'G4LZN7'
p5692
aS'Q5BY90'
p5693
asS'PB001216'
p5694
(lp5695
sS'PF02435'
p5696
(lp5697
sS'PF13354'
p5698
(lp5699
sS'PB023394'
p5700
(lp5701
sS'PB018619'
p5702
(lp5703
sS'PF05652'
p5704
(lp5705
S'Q5DGH0'
p5706
aS'G4LZ61'
p5707
asS'PB032422'
p5708
(lp5709
sS'PF14813'
p5710
(lp5711
S'Q5DFH1'
p5712
aS'G4VP96'
p5713
asS'PF02129'
p5714
(lp5715
sS'PF03435'
p5716
(lp5717
sS'PF02913'
p5718
(lp5719
sS'PF14815'
p5720
(lp5721
sS'PF14814'
p5722
(lp5723
sS'PF12349'
p5724
(lp5725
S'G4M1J9'
p5726
asS'PB011827'
p5727
(lp5728
sS'PF02126'
p5729
(lp5730
sS'PF04127'
p5731
(lp5732
S'G4VHG2'
p5733
asS'PB030483'
p5734
(lp5735
sS'PF09303'
p5736
(lp5737
sS'PF09307'
p5738
(lp5739
sS'PF02018'
p5740
(lp5741
sS'PF13241'
p5742
(lp5743
sS'PF11601'
p5744
(lp5745
S'G4V7X8'
p5746
asS'PF04879'
p5747
(lp5748
sS'PF11602'
p5749
(lp5750
sS'PF01018'
p5751
(lp5752
S'Q5BYE1'
p5753
aS'G4LZ58'
p5754
asS'PF01023'
p5755
(lp5756
sS'PF01024'
p5757
(lp5758
sS'PB033359'
p5759
(lp5760
sS'PF01028'
p5761
(lp5762
S'Q5BXE0'
p5763
aS'G4VRF9'
p5764
asS'PF01029'
p5765
(lp5766
sS'PB024245'
p5767
(lp5768
sS'PF00134'
p5769
(lp5770
S'G4LX75'
p5771
aS'Q5BXU5'
p5772
asS'PF02055'
p5773
(lp5774
sS'PF02056'
p5775
(lp5776
sS'PB035171'
p5777
(lp5778
sS'PF09238'
p5779
(lp5780
sS'PF02052'
p5781
(lp5782
sS'PF10588'
p5783
(lp5784
S'Q5C3Z8'
p5785
aS'G4LUK8'
p5786
asS'PF05014'
p5787
(lp5788
sS'PF09233'
p5789
(lp5790
sS'PF09014'
p5791
(lp5792
sS'PF09011'
p5793
(lp5794
S'Q6Q478'
p5795
aS'G4M0Z0'
p5796
aS'Q5DA81'
p5797
asS'PF09013'
p5798
(lp5799
sS'PF07470'
p5800
(lp5801
sS'PF08544'
p5802
(lp5803
S'G4VIV3'
p5804
aS'Q5BYX6'
p5805
asS'PB018147'
p5806
(lp5807
sS'PB014450'
p5808
(lp5809
sS'PF08541'
p5810
(lp5811
sS'PF08543'
p5812
(lp5813
S'G4LYD3'
p5814
asS'PB009413'
p5815
(lp5816
sS'PF08301'
p5817
(lp5818
sS'PF07472'
p5819
(lp5820
sS'PF09781'
p5821
(lp5822
S'G4LYK7'
p5823
aS'Q5C2C0'
p5824
asS'PF13766'
p5825
(lp5826
sS'PF09782'
p5827
(lp5828
S'Q5DH98'
p5829
aS'G4VSL8'
p5830
asS'PB010280'
p5831
(lp5832
sS'PB054661'
p5833
(lp5834
sS'PB336117'
p5835
(lp5836
sS'PF00317'
p5837
(lp5838
S'G4VIG3'
p5839
aS'C7TZG4'
p5840
asS'PF01791'
p5841
(lp5842
S'G4VM45'
p5843
aS'Q5D8M8'
p5844
asS'PF05279'
p5845
(lp5846
sS'PF01795'
p5847
(lp5848
S'G4LXT3'
p5849
asS'PF04309'
p5850
(lp5851
sS'PB008678'
p5852
(lp5853
sS'PF01154'
p5854
(lp5855
S'Q5BWB2'
p5856
asS'PF02065'
p5857
(lp5858
S'Q5C3M0'
p5859
aS'G4VLD7'
p5860
asS'PF01156'
p5861
(lp5862
sS'PF01151'
p5863
(lp5864
S'G4VGB8'
p5865
aS'Q5BZX8'
p5866
asS'PF01152'
p5867
(lp5868
sS'PF00689'
p5869
(lp5870
S'G4M1H5'
p5871
aS'Q5C3S1'
p5872
asS'PF00688'
p5873
(lp5874
S'D8V162'
p5875
asS'PF01770'
p5876
(lp5877
sS'PF08300'
p5878
(lp5879
sS'PB008580'
p5880
(lp5881
sS'PF07650'
p5882
(lp5883
S'B3GUS2'
p5884
aS'C4Q4Q6'
p5885
asS'PF07653'
p5886
(lp5887
S'G4V6R5'
p5888
aS'Q5C034'
p5889
asS'PF00680'
p5890
(lp5891
sS'PF07654'
p5892
(lp5893
S'D2SY00'
p5894
asS'PF00685'
p5895
(lp5896
S'G4LVI5'
p5897
aS'Q5BZT5'
p5898
asS'PB008588'
p5899
(lp5900
sS'PF09163'
p5901
(lp5902
sS'PF09165'
p5903
(lp5904
sS'PF09166'
p5905
(lp5906
sS'PB030260'
p5907
(lp5908
sS'PB004348'
p5909
(lp5910
sS'PF00179'
p5911
(lp5912
S'B3GUR5'
p5913
aS'C4QJB4'
p5914
asS'PF01483'
p5915
(lp5916
S'G4V878'
p5917
aS'Q5C2Y4'
p5918
asS'PB021718'
p5919
(lp5920
sS'PF00175'
p5921
(lp5922
S'Q5D9L4'
p5923
aS'G4LUL4'
p5924
asS'PF00174'
p5925
(lp5926
S'G4V8I5'
p5927
asS'PF00177'
p5928
(lp5929
S'C7TZZ1'
p5930
aS'G4V605'
p5931
asS'PF00176'
p5932
(lp5933
S'Q5BYY9'
p5934
aS'G4LWJ6'
p5935
asS'PF00171'
p5936
(lp5937
S'G4LWI3'
p5938
aS'A9XKA4'
p5939
asS'PF00170'
p5940
(lp5941
S'Q5C2F9'
p5942
aS'G4LXW5'
p5943
asS'PF00173'
p5944
(lp5945
S'Q5D901'
p5946
aS'G4V9R2'
p5947
asS'PF01378'
p5948
(lp5949
sS'PB019706'
p5950
(lp5951
sS'PB029546'
p5952
(lp5953
sS'PF00779'
p5954
(lp5955
S'G4V5Z2'
p5956
asS'PF00778'
p5957
(lp5958
S'C4Q7D5'
p5959
asS'PF01370'
p5960
(lp5961
S'C1M169'
p5962
aS'Q5BYG4'
p5963
asS'PF00775'
p5964
(lp5965
sS'PB023976'
p5966
(lp5967
sS'PF01374'
p5968
(lp5969
sS'PF08787'
p5970
(lp5971
sS'PB019709'
p5972
(lp5973
sS'PB009286'
p5974
(lp5975
sS'PF08163'
p5976
(lp5977
sS'PF00195'
p5978
(lp5979
sS'PB009305'
p5980
(lp5981
sS'PF00193'
p5982
(lp5983
sS'PF04699'
p5984
(lp5985
S'G4V6Z7'
p5986
aS'B3GUW2'
p5987
asS'PF00191'
p5988
(lp5989
S'G4LUW8'
p5990
aS'Q5BS03'
p5991
asS'PF00190'
p5992
(lp5993
sS'PF00199'
p5994
(lp5995
sS'PF00198'
p5996
(lp5997
S'C7TYV3'
p5998
aS'G4LZ03'
p5999
asS'PB038663'
p6000
(lp6001
sS'PF08761'
p6002
(lp6003
sS'PB003100'
p6004
(lp6005
sS'PF08763'
p6006
(lp6007
S'Q5BWX8'
p6008
aS'G4LVY1'
p6009
asS'PB007496'
p6010
(lp6011
sS'PB020538'
p6012
(lp6013
sS'PF13909'
p6014
(lp6015
S'Q5BWG4'
p6016
aS'G4VM79'
p6017
asS'PF01570'
p6018
(lp6019
sS'PF01571'
p6020
(lp6021
S'G4V9G0'
p6022
aS'Q5C0J6'
p6023
asS'PF01576'
p6024
(lp6025
S'G4V802'
p6026
aS'B1PS35'
p6027
aS'A5A6F8'
p6028
asS'PB012857'
p6029
(lp6030
sS'PF01575'
p6031
(lp6032
S'G4V9Z7'
p6033
aS'Q5C0P9'
p6034
asS'PB009698'
p6035
(lp6036
S'G4M129'
p6037
asS'PF00512'
p6038
(lp6039
sS'PF00511'
p6040
(lp6041
sS'PF00510'
p6042
(lp6043
S'Q1I0P3'
p6044
aS'B3W653'
p6045
aS'Q9B8X4'
p6046
asS'PF00517'
p6047
(lp6048
sS'PF00516'
p6049
(lp6050
sS'PF00515'
p6051
(lp6052
S'Q5BRB1'
p6053
aS'C4Q5L1'
p6054
asS'PF13907'
p6055
(lp6056
S'G4VJQ0'
p6057
asS'PF00221'
p6058
(lp6059
sS'PF00225'
p6060
(lp6061
S'C4QT37'
p6062
aS'C7TZG7'
p6063
asS'PF07504'
p6064
(lp6065
sS'PF00227'
p6066
(lp6067
S'C7TY90'
p6068
aS'G4LUJ6'
p6069
asS'PF00229'
p6070
(lp6071
sS'PB004659'
p6072
(lp6073
sS'PF12743'
p6074
(lp6075
sS'PB003214'
p6076
(lp6077
S'Q5BRG1'
p6078
aS'G4VFK0'
p6079
asS'PB000008'
p6080
(lp6081
sS'PB024289'
p6082
(lp6083
sS'PB000002'
p6084
(lp6085
sS'PB000001'
p6086
(lp6087
sS'PB000005'
p6088
(lp6089
sS'PF00355'
p6090
(lp6091
S'G4VNI0'
p6092
aS'B3GUZ5'
p6093
asS'PF00354'
p6094
(lp6095
sS'PF00425'
p6096
(lp6097
S'Q5BRM4'
p6098
asS'PF00356'
p6099
(lp6100
sS'PF00351'
p6101
(lp6102
S'G4VPY9'
p6103
aS'C7TY28'
p6104
asS'PF03572'
p6105
(lp6106
sS'PF00420'
p6107
(lp6108
sS'PF06433'
p6109
(lp6110
sS'PB008631'
p6111
(lp6112
sS'PF06434'
p6113
(lp6114
sS'PF06212'
p6115
(lp6116
S'Q86FC0'
p6117
aS'G4LXG8'
p6118
asS'PF06747'
p6119
(lp6120
S'Q5DDK5'
p6121
aS'G4VMF5'
p6122
asS'PB001119'
p6123
(lp6124
sS'PB013750'
p6125
(lp6126
sS'PF11468'
p6127
(lp6128
sS'PF03193'
p6129
(lp6130
sS'PF03150'
p6131
(lp6132
sS'PF07347'
p6133
(lp6134
S'Q5DBQ1'
p6135
aS'C4Q2F8'
p6136
asS'PF00557'
p6137
(lp6138
S'G4LWL8'
p6139
aS'C7TZT2'
p6140
asS'PB024750'
p6141
(lp6142
sS'PF00556'
p6143
(lp6144
sS'PF03743'
p6145
(lp6146
sS'PF06327'
p6147
(lp6148
sS'PF00006'
p6149
(lp6150
S'Q5DGP2'
p6151
aS'G4LWA8'
p6152
asS'PF00001'
p6153
(lp6154
S'Q5BWB8'
p6155
aS'C4Q8W8'
p6156
asS'PF06328'
p6157
(lp6158
sS'PF00552'
p6159
(lp6160
sS'PB016286'
p6161
(lp6162
sS'PF00003'
p6163
(lp6164
S'E2IFV9'
p6165
asS'PF00550'
p6166
(lp6167
S'Q5BRK9'
p6168
aS'G4VSN6'
p6169
asS'PF12577'
p6170
(lp6171
sS'PF01804'
p6172
(lp6173
sS'PF02335'
p6174
(lp6175
sS'PF01808'
p6176
(lp6177
sS'PF06105'
p6178
(lp6179
S'Q5DBY4'
p6180
aS'G4LWL5'
p6181
asS'PB027876'
p6182
(lp6183
sS'PF02332'
p6184
(lp6185
sS'PB005697'
p6186
(lp6187
sS'PB016350'
p6188
(lp6189
sS'PF03550'
p6190
(lp6191
sS'PB081402'
p6192
(lp6193
sS'PB019754'
p6194
(lp6195
sS'PF14759'
p6196
(lp6197
sS'PF00410'
p6198
(lp6199
S'G4VGR1'
p6200
aS'Q5DH03'
p6201
asS'PF01649'
p6202
(lp6203
sS'PB020063'
p6204
(lp6205
sS'PB004834'
p6206
(lp6207
sS'PB005521'
p6208
(lp6209
sS'PB041097'
p6210
(lp6211
sS'PF03331'
p6212
(lp6213
sS'PF01979'
p6214
(lp6215
S'Q5DF26'
p6216
aS'G4VES2'
p6217
asS'PF02201'
p6218
(lp6219
S'G4M1Y7'
p6220
aS'Q5DGK9'
p6221
asS'PF02203'
p6222
(lp6223
sS'PF02205'
p6224
(lp6225
sS'PF02207'
p6226
(lp6227
S'G4V5Z1'
p6228
asS'PB020259'
p6229
(lp6230
sS'PF01081'
p6231
(lp6232
sS'PB034552'
p6233
(lp6234
sS'PF11879'
p6235
(lp6236
sS'PF09098'
p6237
(lp6238
sS'PF11723'
p6239
(lp6240
sS'PF02844'
p6241
(lp6242
sS'PF14930'
p6243
(lp6244
sS'PB013726'
p6245
(lp6246
sS'PF00999'
p6247
(lp6248
S'C1M0Q0'
p6249
aS'Q5C0X1'
p6250
asS'PF00998'
p6251
(lp6252
sS'PF00996'
p6253
(lp6254
S'G4VC25'
p6255
aS'Q5C1X5'
p6256
asS'PF13587'
p6257
(lp6258
sS'PF13580'
p6259
(lp6260
sS'PF00992'
p6261
(lp6262
S'C7TYJ2'
p6263
aS'G4LYF7'
p6264
asS'PF00990'
p6265
(lp6266
sS'PF02114'
p6267
(lp6268
S'G4VHU3'
p6269
aS'Q5D8Q6'
p6270
asS'PB032180'
p6271
(lp6272
sS'PB053363'
p6273
(lp6274
sS'PF02110'
p6275
(lp6276
sS'PF02113'
p6277
(lp6278
sS'PF12195'
p6279
(lp6280
sS'PF13344'
p6281
(lp6282
S'G4VI45'
p6283
aS'Q5BZ30'
p6284
asS'PF13343'
p6285
(lp6286
sS'PF02685'
p6287
(lp6288
sS'PF08996'
p6289
(lp6290
S'G4LX42'
p6291
asS'PF02931'
p6292
(lp6293
S'A6QL44'
p6294
aS'G4LZL6'
p6295
aS'Q5BW84'
p6296
asS'PB016139'
p6297
(lp6298
sS'PF14805'
p6299
(lp6300
sS'PF02935'
p6301
(lp6302
sS'PF02934'
p6303
(lp6304
S'G4LWC3'
p6305
aS'Q5C1L7'
p6306
asS'PF03426'
p6307
(lp6308
sS'PF02939'
p6309
(lp6310
S'G4VIZ2'
p6311
asS'PF03425'
p6312
(lp6313
sS'PF03422'
p6314
(lp6315
sS'PF03423'
p6316
(lp6317
sS'PF00699'
p6318
(lp6319
sS'PF02223'
p6320
(lp6321
S'C4PXA6'
p6322
aS'B3GUS7'
p6323
asS'PB023918'
p6324
(lp6325
sS'PF00788'
p6326
(lp6327
S'Q5C0L8'
p6328
aS'G4VHZ8'
p6329
asS'PF01745'
p6330
(lp6331
sS'PB005353'
p6332
(lp6333
sS'PB017393'
p6334
(lp6335
sS'PF10581'
p6336
(lp6337
sS'PF10582'
p6338
(lp6339
sS'PF10585'
p6340
(lp6341
S'C7TZG6'
p6342
aS'G4LWD7'
p6343
asS'PF10584'
p6344
(lp6345
S'B9VRG0'
p6346
aS'G4LZ69'
p6347
asS'PF05000'
p6348
(lp6349
S'G4VH38'
p6350
asS'PF10589'
p6351
(lp6352
S'Q5DGE8'
p6353
aS'G4VMP3'
p6354
asS'PF01014'
p6355
(lp6356
sS'PF01017'
p6357
(lp6358
sS'PF01016'
p6359
(lp6360
S'G4VRH7'
p6361
aS'Q5C671'
p6362
asS'PF01011'
p6363
(lp6364
sS'PF02060'
p6365
(lp6366
sS'PF09228'
p6367
(lp6368
sS'PB032560'
p6369
(lp6370
sS'PF05986'
p6371
(lp6372
sS'PB009906'
p6373
(lp6374
S'Q5DB27'
p6375
asS'PF09000'
p6376
(lp6377
sS'PB022294'
p6378
(lp6379
sS'PF09006'
p6380
(lp6381
sS'PF09005'
p6382
(lp6383
S'G4VQS8'
p6384
aS'C7TYE7'
p6385
asS'PB030584'
p6386
(lp6387
sS'PB014446'
p6388
(lp6389
sS'PF09008'
p6390
(lp6391
sS'PF09009'
p6392
(lp6393
sS'PB014440'
p6394
(lp6395
sS'PB010706'
p6396
(lp6397
sS'PF11501'
p6398
(lp6399
sS'PF01466'
p6400
(lp6401
S'G4VGF4'
p6402
aS'Q86E22'
p6403
asS'PF11504'
p6404
(lp6405
sS'PB026600'
p6406
(lp6407
sS'PB000552'
p6408
(lp6409
S'G4VQ94'
p6410
asS'PF01168'
p6411
(lp6412
sS'PF04998'
p6413
(lp6414
S'Q5C3D2'
p6415
aS'G4VH38'
p6416
asS'PF10373'
p6417
(lp6418
S'G4LY27'
p6419
asS'PB140947'
p6420
(lp6421
sS'PF04997'
p6422
(lp6423
S'G4VH38'
p6424
asS'PF04996'
p6425
(lp6426
sS'PF01167'
p6427
(lp6428
S'G4VQP4'
p6429
asS'PF00698'
p6430
(lp6431
S'G4M0A2'
p6432
aS'C7TXZ9'
p6433
asS'PF01740'
p6434
(lp6435
S'Q5C5W4'
p6436
aS'G4VPI4'
p6437
asS'PF01743'
p6438
(lp6439
S'Q5C3N6'
p6440
aS'G4VEK2'
p6441
asS'PF01742'
p6442
(lp6443
sS'PF08377'
p6444
(lp6445
sS'PF01747'
p6446
(lp6447
S'Q5BS25'
p6448
aS'G4VMD4'
p6449
asS'PF01746'
p6450
(lp6451
S'G4LZF6'
p6452
aS'Q5DG75'
p6453
asS'PF12972'
p6454
(lp6455
sS'PF00691'
p6456
(lp6457
sS'PF00692'
p6458
(lp6459
S'C7TZU9'
p6460
aS'G4V790'
p6461
asS'PF12971'
p6462
(lp6463
sS'PF00694'
p6464
(lp6465
S'G4VMI0'
p6466
aS'Q5D8P1'
p6467
asS'PF00695'
p6468
(lp6469
sS'PF00696'
p6470
(lp6471
S'G4VJT6'
p6472
asS'PF00697'
p6473
(lp6474
sS'PB010018'
p6475
(lp6476
sS'PB119053'
p6477
(lp6478
sS'PF09178'
p6479
(lp6480
sS'PF09176'
p6481
(lp6482
sS'PF09173'
p6483
(lp6484
S'G4VRL7'
p6485
aS'Q5D9A1'
p6486
asS'PF02142'
p6487
(lp6488
S'G4VEM7'
p6489
asS'PF04193'
p6490
(lp6491
S'Q5C2M8'
p6492
aS'G4V6R9'
p6493
asS'PF01344'
p6494
(lp6495
S'Q5C4X9'
p6496
aS'G4LYI6'
p6497
asS'PF01347'
p6498
(lp6499
sS'PF00169'
p6500
(lp6501
S'Q5BWX3'
p6502
aS'C4QKX0'
p6503
asS'PF01341'
p6504
(lp6505
sS'PF13621'
p6506
(lp6507
S'Q5BVZ4'
p6508
aS'G4VSC7'
p6509
asS'PF13620'
p6510
(lp6511
S'Q5C5E0'
p6512
asS'PF00160'
p6513
(lp6514
S'G4VFI9'
p6515
aS'C7TZJ5'
p6516
asS'PF01349'
p6517
(lp6518
sS'PF00167'
p6519
(lp6520
sS'PF00164'
p6521
(lp6522
S'C7U001'
p6523
aS'G4VRC6'
p6524
asS'PF11471'
p6525
(lp6526
sS'PF04203'
p6527
(lp6528
sS'PB004470'
p6529
(lp6530
sS'PF00768'
p6531
(lp6532
sS'PF00769'
p6533
(lp6534
S'C7TXW6'
p6535
aS'G4VND0'
p6536
asS'PF00764'
p6537
(lp6538
sS'PF00762'
p6539
(lp6540
S'Q5DEU6'
p6541
aS'G4V924'
p6542
asS'PF00763'
p6543
(lp6544
S'B3GUY3'
p6545
aS'G4VBG1'
p6546
asS'PF00185'
p6547
(lp6548
S'G4VEM7'
p6549
asS'PF00186'
p6550
(lp6551
S'G4VJD6'
p6552
asS'PF00180'
p6553
(lp6554
S'G4LUW3'
p6555
aS'Q5BX67'
p6556
asS'PF00181'
p6557
(lp6558
S'Q5BZD1'
p6559
aS'G4LY29'
p6560
asS'PF00183'
p6561
(lp6562
S'Q5DBB0'
p6563
aS'Q26582'
p6564
asS'PB008486'
p6565
(lp6566
sS'PB037065'
p6567
(lp6568
sS'PF06471'
p6569
(lp6570
sS'PF00188'
p6571
(lp6572
S'B3GUV1'
p6573
aS'A3RK85'
p6574
asS'PF00168'
p6575
(lp6576
S'G4M2A8'
p6577
aS'Q5BVG7'
p6578
asS'PF08752'
p6579
(lp6580
S'Q5DA95'
p6581
aS'G4V6J3'
p6582
asS'PB027584'
p6583
(lp6584
sS'PF08205'
p6585
(lp6586
S'G4V824'
p6587
asS'PB020850'
p6588
(lp6589
sS'PF13931'
p6590
(lp6591
S'C4QU01'
p6592
asS'PB025233'
p6593
(lp6594
sS'PF04679'
p6595
(lp6596
S'G4LYZ4'
p6597
aS'Q5C1W9'
p6598
asS'PB015898'
p6599
(lp6600
sS'PF02933'
p6601
(lp6602
S'G4M0P6'
p6603
aS'Q5C7K1'
p6604
asS'PB021589'
p6605
(lp6606
sS'PF00508'
p6607
(lp6608
sS'PF07647'
p6609
(lp6610
S'C7TYB3'
p6611
aS'G4LWA5'
p6612
asS'PF13561'
p6613
(lp6614
S'Q5DB51'
p6615
aS'G4VFX0'
p6616
asS'PB009686'
p6617
(lp6618
sS'PF01589'
p6619
(lp6620
sS'PF00163'
p6621
(lp6622
S'Q5C773'
p6623
aS'G4VTQ8'
p6624
asS'PF00501'
p6625
(lp6626
S'C4QPH4'
p6627
aS'C7TXZ1'
p6628
asS'PF00503'
p6629
(lp6630
S'C4QDC6'
p6631
aS'A1XBS3'
p6632
asS'PF01583'
p6633
(lp6634
S'Q5BWA6'
p6635
aS'G4VMD4'
p6636
asS'PF00505'
p6637
(lp6638
S'Q5BWG2'
p6639
aS'G4LV66'
p6640
asS'PF00970'
p6641
(lp6642
S'G4LXR9'
p6643
aS'B3W667'
p6644
asS'PF00238'
p6645
(lp6646
S'G4V5P4'
p6647
aS'Q5D8F4'
p6648
asS'PB028512'
p6649
(lp6650
sS'PF00237'
p6651
(lp6652
S'G4VMA5'
p6653
aS'C7TZX1'
p6654
asS'PB028511'
p6655
(lp6656
sS'PF00232'
p6657
(lp6658
sS'PF00233'
p6659
(lp6660
S'Q5BYM4'
p6661
aS'G4LUV5'
p6662
asS'PF10374'
p6663
(lp6664
S'G4LY27'
p6665
asS'PF00231'
p6666
(lp6667
S'G4LVB6'
p6668
aS'Q5DBP4'
p6669
asS'PF04734'
p6670
(lp6671
S'G4VN86'
p6672
aS'Q5C3C4'
p6673
asS'PF14589'
p6674
(lp6675
sS'PF14588'
p6676
(lp6677
sS'PF04739'
p6678
(lp6679
S'Q5BZ03'
p6680
aS'G4LXW9'
p6681
asS'PB015628'
p6682
(lp6683
sS'PB000013'
p6684
(lp6685
S'Q5BSX8'
p6686
aS'G4M060'
p6687
asS'PF01003'
p6688
(lp6689
sS'PF00342'
p6690
(lp6691
S'Q5BYL3'
p6692
aS'G4VPH5'
p6693
asS'PF00343'
p6694
(lp6695
S'Q5BY06'
p6696
aS'G4VSJ6'
p6697
asS'PF00340'
p6698
(lp6699
sS'PF13802'
p6700
(lp6701
S'G4M039'
p6702
asS'PF00346'
p6703
(lp6704
S'G4LUI6'
p6705
aS'Q5DHV9'
p6706
asS'PF00431'
p6707
(lp6708
S'G4LZ22'
p6709
aS'Q5BZF0'
p6710
asS'PF00432'
p6711
(lp6712
S'G4VIK6'
p6713
aS'Q5DCT8'
p6714
asS'PF00433'
p6715
(lp6716
S'Q5DF91'
p6717
aS'G4M0Q1'
p6718
asS'PF00348'
p6719
(lp6720
S'Q5DC19'
p6721
aS'G4V9A4'
p6722
asS'PF00349'
p6723
(lp6724
S'G4VIV9'
p6725
asS'PF00438'
p6726
(lp6727
S'Q5DD04'
p6728
aS'G4VLI2'
p6729
asS'PF00439'
p6730
(lp6731
S'G4LUL9'
p6732
aS'C7TXV3'
p6733
asS'PB005755'
p6734
(lp6735
sS'PB023388'
p6736
(lp6737
sS'PB007269'
p6738
(lp6739
sS'PB028466'
p6740
(lp6741
sS'PB007488'
p6742
(lp6743
sS'PF01264'
p6744
(lp6745
sS'PF02037'
p6746
(lp6747
S'G4VKF3'
p6748
aS'C7TY00'
p6749
asS'PF14698'
p6750
(lp6751
sS'PF02937'
p6752
(lp6753
S'G4LX46'
p6754
asS'PF14691'
p6755
(lp6756
S'G4VS94'
p6757
asS'PF01262'
p6758
(lp6759
S'G4VN23'
p6760
asS'PF14697'
p6761
(lp6762
sS'PF14696'
p6763
(lp6764
sS'PB007467'
p6765
(lp6766
sS'PF01261'
p6767
(lp6768
sS'PB006226'
p6769
(lp6770
sS'PF02936'
p6771
(lp6772
S'Q5DF62'
p6773
aS'G4VS06'
p6774
asS'PB047497'
p6775
(lp6776
sS'PF03414'
p6777
(lp6778
sS'PF06178'
p6779
(lp6780
sS'PF02320'
p6781
(lp6782
S'G4VT15'
p6783
aS'B3GUT1'
p6784
asS'PF02321'
p6785
(lp6786
sS'PF02327'
p6787
(lp6788
sS'PB035747'
p6789
(lp6790
sS'PF14765'
p6791
(lp6792
sS'PF03404'
p6793
(lp6794
S'G4V8I5'
p6795
asS'PF03521'
p6796
(lp6797
sS'PF03520'
p6798
(lp6799
S'G4VB79'
p6800
asS'PB005680'
p6801
(lp6802
sS'PF14864'
p6803
(lp6804
sS'PB012159'
p6805
(lp6806
sS'PF14566'
p6807
(lp6808
sS'PF00022'
p6809
(lp6810
S'G4LW08'
p6811
aS'C7TQQ1'
p6812
asS'PF14863'
p6813
(lp6814
sS'PF02816'
p6815
(lp6816
S'G4LY39'
p6817
aS'C7TXW3'
p6818
asS'PB000838'
p6819
(lp6820
S'Q5DA86'
p6821
aS'G4VBN8'
p6822
asS'PF02817'
p6823
(lp6824
S'G4LZ03'
p6825
aS'C7TXS4'
p6826
asS'PB000831'
p6827
(lp6828
S'G4V6A0'
p6829
aS'Q5C1K0'
p6830
asS'PF00189'
p6831
(lp6832
S'B3GUS2'
p6833
aS'C4Q4Q6'
p6834
asS'PF02214'
p6835
(lp6836
S'Q5BVP4'
p6837
aS'G4LVM6'
p6838
asS'PB001830'
p6839
(lp6840
S'G4V9A7'
p6841
asS'PF06002'
p6842
(lp6843
sS'PB003764'
p6844
(lp6845
S'Q5D8Y7'
p6846
asS'PF00024'
p6847
(lp6848
sS'PF13020'
p6849
(lp6850
sS'PB027261'
p6851
(lp6852
sS'PF01909'
p6853
(lp6854
S'Q5C400'
p6855
aS'G4VJM2'
p6856
asS'PB384709'
p6857
(lp6858
sS'PF12219'
p6859
(lp6860
sS'PF12218'
p6861
(lp6862
sS'PF12217'
p6863
(lp6864
sS'PF01907'
p6865
(lp6866
S'Q5BTL2'
p6867
aS'G4VMB4'
p6868
asS'PF12210'
p6869
(lp6870
S'Q5BYX4'
p6871
aS'G4VTD6'
p6872
asS'PF03185'
p6873
(lp6874
S'G4V6M8'
p6875
asS'PF03639'
p6876
(lp6877
sS'PF03946'
p6878
(lp6879
S'G4V9G5'
p6880
aS'Q5BT17'
p6881
asS'PF14901'
p6882
(lp6883
sS'PF02585'
p6884
(lp6885
S'G4V821'
p6886
aS'Q5D8W3'
p6887
asS'PB014337'
p6888
(lp6889
S'G4VG56'
p6890
asS'PF02852'
p6891
(lp6892
S'B5THG7'
p6893
aS'G4V8J4'
p6894
asS'PF02581'
p6895
(lp6896
sS'PF00988'
p6897
(lp6898
sS'PF00989'
p6899
(lp6900
S'G4VTB4'
p6901
asS'PB002569'
p6902
(lp6903
sS'PF00984'
p6904
(lp6905
S'G4VFD1'
p6906
asS'PF00986'
p6907
(lp6908
sS'PF00982'
p6909
(lp6910
sS'PF02100'
p6911
(lp6912
sS'PF01869'
p6913
(lp6914
S'Q5C4V2'
p6915
aS'G4VHY4'
p6916
asS'PF13330'
p6917
(lp6918
sS'PB087688'
p6919
(lp6920
sS'PF05676'
p6921
(lp6922
S'Q5DHM9'
p6923
aS'G4LVB0'
p6924
asS'PF03989'
p6925
(lp6926
sS'PF02921'
p6927
(lp6928
S'G4VNI0'
p6929
aS'B3GUZ5'
p6930
asS'PF02922'
p6931
(lp6932
S'Q5BZT9'
p6933
aS'G4V966'
p6934
asS'PF02924'
p6935
(lp6936
sS'PF02927'
p6937
(lp6938
sS'PF02928'
p6939
(lp6940
S'G4LUD8'
p6941
asS'PF02929'
p6942
(lp6943
sS'PF03450'
p6944
(lp6945
sS'PF12327'
p6946
(lp6947
sS'PF14833'
p6948
(lp6949
sS'PF03454'
p6950
(lp6951
S'G4LZ83'
p6952
aS'Q5DGM2'
p6953
asS'PF02877'
p6954
(lp6955
S'G4M0L0'
p6956
aS'Q5DAZ0'
p6957
asS'PF02441'
p6958
(lp6959
S'G4VHC6'
p6960
aS'Q5DHV8'
p6961
asS'PB013370'
p6962
(lp6963
sS'PB028985'
p6964
(lp6965
sS'PF13247'
p6966
(lp6967
sS'PF05071'
p6968
(lp6969
S'Q5D916'
p6970
aS'G4LVM0'
p6971
asS'PF13242'
p6972
(lp6973
S'Q5DEX8'
p6974
aS'G4VFM9'
p6975
asS'PB001308'
p6976
(lp6977
sS'PF01002'
p6978
(lp6979
sS'PB003943'
p6980
(lp6981
sS'PF01000'
p6982
(lp6983
S'G4LUY0'
p6984
asS'PB003941'
p6985
(lp6986
sS'PF01006'
p6987
(lp6988
sS'PF01007'
p6989
(lp6990
sS'PF01004'
p6991
(lp6992
sS'PF01005'
p6993
(lp6994
sS'PF02078'
p6995
(lp6996
S'G4VIG8'
p6997
asS'PB027990'
p6998
(lp6999
sS'PF02072'
p7000
(lp7001
sS'PF02192'
p7002
(lp7003
S'G4V7A4'
p7004
asS'PB010570'
p7005
(lp7006
sS'PF07652'
p7007
(lp7008
sS'PB010717'
p7009
(lp7010
sS'PF01640'
p7011
(lp7012
sS'PF13407'
p7013
(lp7014
sS'PB075345'
p7015
(lp7016
sS'PF13743'
p7017
(lp7018
sS'PB001043'
p7019
(lp7020
sS'PB060550'
p7021
(lp7022
sS'PF01177'
p7023
(lp7024
sS'PB000549'
p7025
(lp7026
S'G4LXE8'
p7027
asS'PB055748'
p7028
(lp7029
sS'PF00509'
p7030
(lp7031
sS'PF01179'
p7032
(lp7033
S'G4VGX7'
p7034
asS'PF07645'
p7035
(lp7036
S'Q5C5F4'
p7037
aS'G4LUK9'
p7038
asS'PF05109'
p7039
(lp7040
sS'PF11633'
p7041
(lp7042
sS'PF08360'
p7043
(lp7044
sS'PF08361'
p7045
(lp7046
sS'PF05856'
p7047
(lp7048
S'G4V7X7'
p7049
aS'Q5DFU4'
p7050
asS'PB011344'
p7051
(lp7052
sS'PF01759'
p7053
(lp7054
S'G4VPQ4'
p7055
asS'PF01756'
p7056
(lp7057
sS'PF01588'
p7058
(lp7059
S'Q5C1M3'
p7060
aS'G4M0L7'
p7061
asS'PF01753'
p7062
(lp7063
S'B1WA72'
p7064
aS'G4VQ43'
p7065
asS'PF01751'
p7066
(lp7067
S'Q5DFL5'
p7068
aS'G4VFA7'
p7069
asS'PF13636'
p7070
(lp7071
sS'PF13631'
p7072
(lp7073
S'Q9B8X3'
p7074
aS'D3TTI0'
p7075
aS'Q1I0P2'
p7076
asS'PF07979'
p7077
(lp7078
sS'PF09102'
p7079
(lp7080
sS'PF09101'
p7081
(lp7082
sS'PF09100'
p7083
(lp7084
sS'PF13638'
p7085
(lp7086
S'G4VE87'
p7087
asS'PF13639'
p7088
(lp7089
S'G4LVZ7'
p7090
aS'C7TZ11'
p7091
asS'PF01350'
p7092
(lp7093
sS'PF01584'
p7094
(lp7095
sS'PB019728'
p7096
(lp7097
sS'PF02271'
p7098
(lp7099
S'G4VQ59'
p7100
aS'Q86EV2'
p7101
asS'PF01358'
p7102
(lp7103
sS'PF01582'
p7104
(lp7105
sS'PF00759'
p7106
(lp7107
sS'PF01926'
p7108
(lp7109
S'G4LUR9'
p7110
aS'Q5BZW1'
p7111
asS'PF08563'
p7112
(lp7113
sS'PF00753'
p7114
(lp7115
S'G4LZQ3'
p7116
aS'Q5BTH5'
p7117
asS'PF00507'
p7118
(lp7119
S'Q9MD44'
p7120
aS'Q1I0N9'
p7121
aS'G9B133'
p7122
asS'PF00755'
p7123
(lp7124
S'G4VPS9'
p7125
asS'PF00754'
p7126
(lp7127
S'Q5BWR8'
p7128
aS'G4V7C2'
p7129
asS'PF00757'
p7130
(lp7131
S'C7DT89'
p7132
aS'G4VRX5'
p7133
asS'PF00756'
p7134
(lp7135
sS'PB008491'
p7136
(lp7137
sS'PF12697'
p7138
(lp7139
S'G4VRS9'
p7140
aS'Q5BY96'
p7141
asS'PF02276'
p7142
(lp7143
sS'PF12695'
p7144
(lp7145
S'Q5DDP9'
p7146
aS'C4QK30'
p7147
asS'PF07748'
p7148
(lp7149
S'Q5C096'
p7150
aS'G4M0J4'
p7151
asS'PF07745'
p7152
(lp7153
sS'PF12698'
p7154
(lp7155
S'G4V5Y9'
p7156
asS'PF05922'
p7157
(lp7158
sS'PF08218'
p7159
(lp7160
sS'PF14226'
p7161
(lp7162
sS'PF08214'
p7163
(lp7164
S'G4VEQ5'
p7165
asS'PB000157'
p7166
(lp7167
sS'PF08742'
p7168
(lp7169
sS'PF08211'
p7170
(lp7171
sS'PF07100'
p7172
(lp7173
sS'PF00535'
p7174
(lp7175
S'G4VIT8'
p7176
aS'Q5BYW7'
p7177
asS'PF13920'
p7178
(lp7179
S'G4LUY5'
p7180
aS'Q5BW32'
p7181
asS'PF00536'
p7182
(lp7183
S'G4LZP0'
p7184
aS'Q5BT66'
p7185
asS'PF00531'
p7186
(lp7187
S'C4Q195'
p7188
aS'Q5BSI9'
p7189
asS'PB004490'
p7190
(lp7191
sS'PF00533'
p7192
(lp7193
S'G4LWB7'
p7194
asS'PF00532'
p7195
(lp7196
sS'PB004499'
p7197
(lp7198
sS'PF01596'
p7199
(lp7200
S'G4VHP2'
p7201
aS'Q5D9S6'
p7202
asS'PF01597'
p7203
(lp7204
S'G4VTE8'
p7205
aS'Q5D8Z8'
p7206
asS'PF01590'
p7207
(lp7208
S'Q5C0E2'
p7209
aS'G4VIQ4'
p7210
asS'PF01591'
p7211
(lp7212
S'G4VSL5'
p7213
aS'Q5BRC6'
p7214
asS'PF01593'
p7215
(lp7216
S'G4VFV2'
p7217
aS'Q5C5E5'
p7218
asS'PF00235'
p7219
(lp7220
S'G4VTE1'
p7221
aS'Q86DW4'
p7222
asS'PF00243'
p7223
(lp7224
sS'PF07562'
p7225
(lp7226
S'E2IFV9'
p7227
asS'PF00241'
p7228
(lp7229
S'G4LX89'
p7230
aS'Q5BT38'
p7231
asS'PF00240'
p7232
(lp7233
S'G4LVJ7'
p7234
aS'Q5BR82'
p7235
asS'PF09081'
p7236
(lp7237
sS'PF00245'
p7238
(lp7239
S'G4VJ95'
p7240
aS'Q5C1P9'
p7241
asS'PF00244'
p7242
(lp7243
S'B3GUU0'
p7244
aS'G4LUI7'
p7245
asS'PF07858'
p7246
(lp7247
sS'PF14598'
p7248
(lp7249
S'G4LVK2'
p7250
asS'PF00230'
p7251
(lp7252
S'Q5DH56'
p7253
aS'C4PYI6'
p7254
asS'PF14592'
p7255
(lp7256
sS'PF14593'
p7257
(lp7258
S'C4QMA7'
p7259
asS'PB029986'
p7260
(lp7261
sS'PB012891'
p7262
(lp7263
sS'PB004788'
p7264
(lp7265
S'G4VE01'
p7266
asS'PB016691'
p7267
(lp7268
sS'PF00400'
p7269
(lp7270
S'C7TZP6'
p7271
aS'G4V714'
p7272
asS'PF00403'
p7273
(lp7274
S'Q5BQT7'
p7275
aS'G4VGF2'
p7276
asS'PB007673'
p7277
(lp7278
sS'PF00405'
p7279
(lp7280
S'Q5C2D3'
p7281
aS'G4VHQ7'
p7282
asS'PF00404'
p7283
(lp7284
sS'PF00406'
p7285
(lp7286
S'Q5C0W0'
p7287
aS'C4QNP4'
p7288
asS'PF00408'
p7289
(lp7290
S'Q5DF02'
p7291
aS'G4V958'
p7292
asS'PB093728'
p7293
(lp7294
sS'PB004079'
p7295
(lp7296
sS'PB009760'
p7297
(lp7298
sS'PF07366'
p7299
(lp7300
sS'PF07361'
p7301
(lp7302
sS'PF02375'
p7303
(lp7304
S'G4LUD8'
p7305
asS'PF01843'
p7306
(lp7307
S'G4M0U9'
p7308
asS'PF03971'
p7309
(lp7310
sS'PF11441'
p7311
(lp7312
sS'PF14681'
p7313
(lp7314
S'Q5DA17'
p7315
aS'G4VL95'
p7316
asS'PB019300'
p7317
(lp7318
sS'PF14716'
p7319
(lp7320
sS'PB020645'
p7321
(lp7322
sS'PB020882'
p7323
(lp7324
sS'PB019707'
p7325
(lp7326
sS'PB250627'
p7327
(lp7328
sS'PB047488'
p7329
(lp7330
sS'PF04983'
p7331
(lp7332
S'G4VH38'
p7333
asS'PB066507'
p7334
(lp7335
sS'PF03530'
p7336
(lp7337
S'Q5C3F6'
p7338
aS'G4LXV9'
p7339
asS'PF09381'
p7340
(lp7341
sS'PF09029'
p7342
(lp7343
sS'PB003411'
p7344
(lp7345
sS'PF14575'
p7346
(lp7347
sS'PB020082'
p7348
(lp7349
sS'PF15088'
p7350
(lp7351
sS'PF14572'
p7352
(lp7353
S'Q5DCA0'
p7354
aS'G4VE33'
p7355
asS'PB010928'
p7356
(lp7357
sS'PF03979'
p7358
(lp7359
sS'PB016398'
p7360
(lp7361
sS'PF02261'
p7362
(lp7363
sS'PB001824'
p7364
(lp7365
S'B5B7R2'
p7366
aS'G4VGQ1'
p7367
asS'PF02267'
p7368
(lp7369
S'Q3KZ69'
p7370
aS'G4VAQ4'
p7371
asS'PF02265'
p7372
(lp7373
sS'PF02264'
p7374
(lp7375
sS'PB065744'
p7376
(lp7377
sS'PB032613'
p7378
(lp7379
sS'PF00435'
p7380
(lp7381
S'Q5BRC3'
p7382
aS'C4Q5J4'
p7383
asS'PF01915'
p7384
(lp7385
S'G4VRX3'
p7386
asS'PF01916'
p7387
(lp7388
S'G4VCR2'
p7389
aS'Q3KTG9'
p7390
asS'PF12203'
p7391
(lp7392
sS'PF00437'
p7393
(lp7394
sS'PF12804'
p7395
(lp7396
sS'PF03199'
p7397
(lp7398
S'G4VNT9'
p7399
asS'PB016737'
p7400
(lp7401
sS'PF00430'
p7402
(lp7403
sS'PF01799'
p7404
(lp7405
sS'PF02975'
p7406
(lp7407
sS'PF03623'
p7408
(lp7409
S'G4VP68'
p7410
asS'PF02868'
p7411
(lp7412
sS'PB004398'
p7413
(lp7414
sS'PB054342'
p7415
(lp7416
sS'PF02861'
p7417
(lp7418
sS'PF03974'
p7419
(lp7420
sS'PF02865'
p7421
(lp7422
sS'PF02864'
p7423
(lp7424
sS'PF02867'
p7425
(lp7426
S'G4VIG3'
p7427
aS'C7TZG4'
p7428
asS'PF02866'
p7429
(lp7430
S'C7TZT8'
p7431
aS'G4V7Z7'
p7432
asS'PF05662'
p7433
(lp7434
sS'PB117719'
p7435
(lp7436
sS'PB001224'
p7437
(lp7438
sS'PB009369'
p7439
(lp7440
sS'PB023346'
p7441
(lp7442
sS'PF03992'
p7443
(lp7444
sS'PB049843'
p7445
(lp7446
sS'PF02466'
p7447
(lp7448
S'Q5D972'
p7449
aS'G4VJK5'
p7450
asS'PF13646'
p7451
(lp7452
S'Q5BXC8'
p7453
aS'C4QMW7'
p7454
asS'PF02460'
p7455
(lp7456
S'G4M0J8'
p7457
aS'Q5C0X8'
p7458
asS'PF02462'
p7459
(lp7460
sS'PF00715'
p7461
(lp7462
sS'PF14828'
p7463
(lp7464
sS'PF02919'
p7465
(lp7466
S'Q5C1T3'
p7467
aS'G4VRF9'
p7468
asS'PB005109'
p7469
(lp7470
sS'PF12330'
p7471
(lp7472
S'Q5C2Y1'
p7473
aS'Q6TA38'
p7474
asS'PF02666'
p7475
(lp7476
S'Q5DAI3'
p7477
aS'G4VDV4'
p7478
asS'PF02665'
p7479
(lp7480
sS'PF14821'
p7481
(lp7482
sS'PF02911'
p7483
(lp7484
sS'PF14827'
p7485
(lp7486
sS'PF03446'
p7487
(lp7488
S'Q5C0U2'
p7489
aS'G4M238'
p7490
asS'PF02912'
p7491
(lp7492
sS'PF07724'
p7493
(lp7494
S'Q5BXW3'
p7495
aS'G4VEI7'
p7496
asS'PF00568'
p7497
(lp7498
S'Q5C3H4'
p7499
aS'G4VFM3'
p7500
asS'PB013565'
p7501
(lp7502
sS'PF00860'
p7503
(lp7504
sS'PF07017'
p7505
(lp7506
sS'PB014868'
p7507
(lp7508
sS'PB021843'
p7509
(lp7510
sS'PF05067'
p7511
(lp7512
sS'PB035260'
p7513
(lp7514
sS'PF00629'
p7515
(lp7516
S'G4V8Z6'
p7517
asS'PF02008'
p7518
(lp7519
S'G4VE24'
p7520
aS'Q5BXE6'
p7521
asS'PF13589'
p7522
(lp7523
S'C7TZI9'
p7524
aS'G4LWS7'
p7525
asS'PF01149'
p7526
(lp7527
sS'PF01887'
p7528
(lp7529
sS'PF10590'
p7530
(lp7531
S'G4M1K6'
p7532
asS'PB026626'
p7533
(lp7534
sS'PF01336'
p7535
(lp7536
S'C1M093'
p7537
aS'Q5BY80'
p7538
asS'PB019844'
p7539
(lp7540
sS'PB001031'
p7541
(lp7542
sS'PB037013'
p7543
(lp7544
sS'PB118536'
p7545
(lp7546
sS'PB037011'
p7547
(lp7548
sS'PF01109'
p7549
(lp7550
sS'PF02574'
p7551
(lp7552
S'G4VBH2'
p7553
asS'PF08997'
p7554
(lp7555
sS'PB018003'
p7556
(lp7557
sS'PF05118'
p7558
(lp7559
sS'PF09379'
p7560
(lp7561
S'Q5DC84'
p7562
aS'G4LVJ2'
p7563
asS'PF04539'
p7564
(lp7565
sS'PB009104'
p7566
(lp7567
sS'PF01729'
p7568
(lp7569
sS'PF01728'
p7570
(lp7571
S'C7TYT9'
p7572
aS'G4LWM3'
p7573
asS'PF08359'
p7574
(lp7575
sS'PF08429'
p7576
(lp7577
sS'PF08428'
p7578
(lp7579
sS'PF08354'
p7580
(lp7581
sS'PF08423'
p7582
(lp7583
S'Q5BVG3'
p7584
aS'G4VE32'
p7585
asS'PF01725'
p7586
(lp7587
S'G4VMH6'
p7588
aS'Q5BXX0'
p7589
asS'PF13640'
p7590
(lp7591
S'G4VKQ0'
p7592
asS'PB140170'
p7593
(lp7594
sS'PF09110'
p7595
(lp7596
S'G4VIH9'
p7597
asS'PF09111'
p7598
(lp7599
S'G4VIH9'
p7600
asS'PF01487'
p7601
(lp7602
sS'PF00746'
p7603
(lp7604
sS'PB001149'
p7605
(lp7606
sS'PF11413'
p7607
(lp7608
sS'PF13489'
p7609
(lp7610
S'G4V6C7'
p7611
aS'Q5DBG5'
p7612
asS'PF00748'
p7613
(lp7614
sS'PF01331'
p7615
(lp7616
S'G4LUD1'
p7617
aS'Q5BZ60'
p7618
asS'PF04166'
p7619
(lp7620
sS'PF08516'
p7621
(lp7622
S'C4QGD8'
p7623
asS'PF08515'
p7624
(lp7625
S'G4LWP9'
p7626
asS'PF04886'
p7627
(lp7628
sS'PF01614'
p7629
(lp7630
sS'PF01613'
p7631
(lp7632
sS'PF01612'
p7633
(lp7634
S'G4VHH8'
p7635
asS'PB017573'
p7636
(lp7637
sS'PF01437'
p7638
(lp7639
S'C4QN32'
p7640
asS'PF12681'
p7641
(lp7642
S'G4VDP7'
p7643
asS'PB025387'
p7644
(lp7645
sS'PF01433'
p7646
(lp7647
S'G4V857'
p7648
aS'Q5BY44'
p7649
asS'PF01431'
p7650
(lp7651
S'Q5BYP6'
p7652
aS'G4VCE9'
p7653
asS'PF01430'
p7654
(lp7655
sS'PF12391'
p7656
(lp7657
sS'PF10200'
p7658
(lp7659
S'Q5DDL6'
p7660
aS'G4VNQ7'
p7661
asS'PB000146'
p7662
(lp7663
sS'PF05935'
p7664
(lp7665
sS'PF08736'
p7666
(lp7667
S'G4V898'
p7668
asS'PB001496'
p7669
(lp7670
sS'PF00523'
p7671
(lp7672
sS'PF00520'
p7673
(lp7674
S'G4LUV6'
p7675
aS'Q5BXH8'
p7676
asS'PF00521'
p7677
(lp7678
S'G4VPA9'
p7679
asS'PB008796'
p7680
(lp7681
sS'PB000788'
p7682
(lp7683
sS'PF02906'
p7684
(lp7685
S'G4V773'
p7686
aS'Q5DCU1'
p7687
asS'PF00529'
p7688
(lp7689
sS'PF01562'
p7690
(lp7691
S'G4VEJ8'
p7692
aS'Q5C433'
p7693
asS'PB019196'
p7694
(lp7695
sS'PF13793'
p7696
(lp7697
S'Q5DCA0'
p7698
aS'G4VE33'
p7699
asS'PB021699'
p7700
(lp7701
sS'PF07994'
p7702
(lp7703
sS'PF07995'
p7704
(lp7705
sS'PF04083'
p7706
(lp7707
S'G4VKU5'
p7708
aS'Q5BWP0'
p7709
asS'PF00258'
p7710
(lp7711
S'G4LUL4'
p7712
asS'PB021276'
p7713
(lp7714
sS'PB021277'
p7715
(lp7716
sS'PF00251'
p7717
(lp7718
sS'PF00252'
p7719
(lp7720
S'Q5C205'
p7721
aS'G4M0K4'
p7722
asS'PF06574'
p7723
(lp7724
sS'PF00254'
p7725
(lp7726
S'C7TYC0'
p7727
aS'Q8MTB4'
p7728
asS'PB021279'
p7729
(lp7730
sS'PB030047'
p7731
(lp7732
sS'PF04715'
p7733
(lp7734
sS'PF04716'
p7735
(lp7736
S'G4V672'
p7737
aS'B5B7Q0'
p7738
asS'PF00621'
p7739
(lp7740
S'G4LUE0'
p7741
aS'Q5BSP8'
p7742
asS'PB020472'
p7743
(lp7744
sS'PB001565'
p7745
(lp7746
sS'PF00418'
p7747
(lp7748
S'G4VLB5'
p7749
asS'PF00416'
p7750
(lp7751
S'G4VH28'
p7752
aS'Q5BS01'
p7753
asS'PF00412'
p7754
(lp7755
S'Q5BS49'
p7756
aS'G4LVB2'
p7757
asS'PF00413'
p7758
(lp7759
S'G4VEJ4'
p7760
asS'PF07194'
p7761
(lp7762
sS'PF00411'
p7763
(lp7764
S'Q5DCW6'
p7765
aS'G4VH52'
p7766
asS'PB022907'
p7767
(lp7768
sS'PB021305'
p7769
(lp7770
sS'PF01244'
p7771
(lp7772
sS'PB007889'
p7773
(lp7774
sS'PF06480'
p7775
(lp7776
sS'PF13609'
p7777
(lp7778
sS'PB000362'
p7779
(lp7780
sS'PF06374'
p7781
(lp7782
sS'PF06373'
p7783
(lp7784
sS'PF06155'
p7785
(lp7786
sS'PF06623'
p7787
(lp7788
sS'PF06628'
p7789
(lp7790
sS'PB035579'
p7791
(lp7792
sS'PB043034'
p7793
(lp7794
sS'PB043032'
p7795
(lp7796
sS'PF03508'
p7797
(lp7798
sS'PF14788'
p7799
(lp7800
sS'PF03055'
p7801
(lp7802
sS'PF04542'
p7803
(lp7804
sS'PF03502'
p7805
(lp7806
sS'PF00781'
p7807
(lp7808
S'G4LVU2'
p7809
aS'Q3KZA7'
p7810
asS'PB010489'
p7811
(lp7812
sS'PF01717'
p7813
(lp7814
sS'PB018110'
p7815
(lp7816
sS'PB000817'
p7817
(lp7818
sS'PF11933'
p7819
(lp7820
sS'PB001812'
p7821
(lp7822
sS'PF04547'
p7823
(lp7824
S'G4V6U1'
p7825
aS'Q5BY53'
p7826
asS'PB160205'
p7827
(lp7828
sS'PF06021'
p7829
(lp7830
sS'PB033062'
p7831
(lp7832
sS'PF02272'
p7833
(lp7834
S'G4VNT2'
p7835
asS'PF00958'
p7836
(lp7837
S'G4M0Y0'
p7838
aS'Q5DH96'
p7839
asS'PF02274'
p7840
(lp7841
S'Q5DBK4'
p7842
aS'G4VB55'
p7843
asS'PF02275'
p7844
(lp7845
sS'PF01923'
p7846
(lp7847
sS'PF02277'
p7848
(lp7849
sS'PF02278'
p7850
(lp7851
sS'PF01361'
p7852
(lp7853
sS'PB016094'
p7854
(lp7855
sS'PF00665'
p7856
(lp7857
S'Q5BTF1'
p7858
aS'C4QQP9'
p7859
asS'PB023121'
p7860
(lp7861
sS'PF00667'
p7862
(lp7863
S'Q5BXJ5'
p7864
aS'G4LUL4'
p7865
asS'PB006752'
p7866
(lp7867
sS'PF00714'
p7868
(lp7869
sS'PF13544'
p7870
(lp7871
sS'PB033955'
p7872
(lp7873
sS'PF00717'
p7874
(lp7875
S'G4VN62'
p7876
aS'Q5DHQ5'
p7877
asS'PB023357'
p7878
(lp7879
sS'PB018923'
p7880
(lp7881
sS'PF01243'
p7882
(lp7883
S'Q5DDA2'
p7884
aS'G4M1K6'
p7885
asS'PF03477'
p7886
(lp7887
S'G4VIG3'
p7888
aS'C7TZG4'
p7889
asS'PF03476'
p7890
(lp7891
sS'PF01488'
p7892
(lp7893
sS'PF03473'
p7894
(lp7895
sS'PF03472'
p7896
(lp7897
sS'PF00049'
p7898
(lp7899
S'Q5DBU2'
p7900
asS'PF03275'
p7901
(lp7902
sS'PF02909'
p7903
(lp7904
sS'PF03270'
p7905
(lp7906
sS'PF02903'
p7907
(lp7908
sS'PF02901'
p7909
(lp7910
sS'PF02670'
p7911
(lp7912
sS'PF02907'
p7913
(lp7914
sS'PB044844'
p7915
(lp7916
sS'PB017611'
p7917
(lp7918
sS'PF03522'
p7919
(lp7920
sS'PF00366'
p7921
(lp7922
S'G4VDH7'
p7923
aS'Q5DB08'
p7924
asS'PB013352'
p7925
(lp7926
sS'PF04898'
p7927
(lp7928
S'G4VS94'
p7929
asS'PF02894'
p7930
(lp7931
sS'PF00612'
p7932
(lp7933
S'G4M098'
p7934
aS'Q5D903'
p7935
asS'PF05724'
p7936
(lp7937
S'Q5DFB8'
p7938
asS'PF05721'
p7939
(lp7940
sS'PB087790'
p7941
(lp7942
sS'PF02876'
p7943
(lp7944
sS'PF14962'
p7945
(lp7946
sS'PF02874'
p7947
(lp7948
S'Q5D925'
p7949
aS'G4LWA8'
p7950
asS'PF02875'
p7951
(lp7952
sS'PF02872'
p7953
(lp7954
S'G4VM41'
p7955
aS'Q5C3Y1'
p7956
asS'PF02873'
p7957
(lp7958
sS'PF02870'
p7959
(lp7960
sS'PF02011'
p7961
(lp7962
sS'PF02012'
p7963
(lp7964
sS'PB001549'
p7965
(lp7966
sS'PF02878'
p7967
(lp7968
S'C4QPU4'
p7969
aS'Q5C2A4'
p7970
asS'PF02879'
p7971
(lp7972
S'C7TXY1'
p7973
aS'C4QPU4'
p7974
as.