(dp1
S'3.90.650.10'
p2
(lp3
S'B3GUX9'
p4
asS'4.10.320.10'
p5
(lp6
S'G4LZ03'
p7
aS'C1LD57'
p8
asS'3.90.245.10'
p9
(lp10
sS'1.10.10.60'
p11
(lp12
S'C1LE29'
p13
aS'C4QRY1'
p14
asS'1.10.100.10'
p15
(lp16
S'Q5DBU2'
p17
asS'3.60.150.10'
p18
(lp19
sS'1.10.1740.10'
p20
(lp21
sS'3.40.1360.10'
p22
(lp23
S'G4VE89'
p24
asS'1.10.357.10'
p25
(lp26
sS'3.40.50.40'
p27
(lp28
S'G4VJ31'
p29
asS'2.20.220.10'
p30
(lp31
sS'3.20.20.140'
p32
(lp33
S'C1LE16'
p34
aS'G4LVD7'
p35
asS'1.20.960.20'
p36
(lp37
sS'1.20.5.740'
p38
(lp39
S'G4VTR7'
p40
asS'3.30.1120.10'
p41
(lp42
sS'1.10.196.10'
p43
(lp44
S'G4VCF1'
p45
aS'Q5BSJ8'
p46
asS'3.10.450.70'
p47
(lp48
sS'3.40.800.10'
p49
(lp50
S'B3GUR2'
p51
aS'Q6TA39'
p52
asS'2.130.10.80'
p53
(lp54
S'Q5C073'
p55
aS'G4V6R2'
p56
asS'3.90.950.10'
p57
(lp58
S'Q3MJU9'
p59
aS'G4VMH6'
p60
asS'1.10.3810.10'
p61
(lp62
sS'3.30.1370.30'
p63
(lp64
S'G4VGR1'
p65
aS'C1LBQ1'
p66
asS'3.90.340.10'
p67
(lp68
sS'2.60.130.10'
p69
(lp70
sS'3.30.300.50'
p71
(lp72
sS'3.30.429.10'
p73
(lp74
sS'3.10.50.40'
p75
(lp76
S'G4V8N4'
p77
aS'C1LAW9'
p78
asS'2.60.40.1700'
p79
(lp80
sS'1.10.220.20'
p81
(lp82
S'Q5BYD8'
p83
aS'C4QNZ8'
p84
asS'3.30.565.10'
p85
(lp86
S'C1LEA1'
p87
aS'G4M1N5'
p88
asS'4.10.940.10'
p89
(lp90
sS'3.10.110.10'
p91
(lp92
S'B3GUP9'
p93
aS'C4QU53'
p94
asS'3.90.190.20'
p95
(lp96
S'G4V6Z6'
p97
aS'Q5C6W5'
p98
asS'3.30.70.870'
p99
(lp100
S'C1LFJ1'
p101
aS'G4LVU7'
p102
asS'2.10.80.10'
p103
(lp104
sS'4.10.1070.10'
p105
(lp106
sS'3.30.1020.10'
p107
(lp108
S'G4LXH7'
p109
aS'C1LB64'
p110
asS'3.30.470.10'
p111
(lp112
sS'3.20.20.240'
p113
(lp114
sS'1.20.120.10'
p115
(lp116
sS'3.40.50.10810'
p117
(lp118
S'Q5DI15'
p119
aS'G4LWJ6'
p120
asS'3.40.50.10540'
p121
(lp122
sS'1.20.1300.10'
p123
(lp124
S'C7TZ33'
p125
aS'G4V6D5'
p126
asS'1.10.460.10'
p127
(lp128
S'G4VFA7'
p129
asS'2.60.40.1480'
p130
(lp131
S'Q5DA95'
p132
aS'G4V6J3'
p133
asS'3.20.20.105'
p134
(lp135
S'C1L6J9'
p136
aS'G4VDV6'
p137
asS'1.10.760.10'
p138
(lp139
S'Q5C336'
p140
aS'Q15EU2'
p141
asS'1.20.5.630'
p142
(lp143
S'E7BBC0'
p144
aS'Q5C0L6'
p145
asS'3.40.50.1010'
p146
(lp147
S'C1LIM9'
p148
aS'G4V7F0'
p149
asS'3.10.580.10'
p150
(lp151
S'Q3KZ72'
p152
aS'G4M1A8'
p153
asS'1.10.3110.10'
p154
(lp155
S'G4VTC3'
p156
aS'Q5DD49'
p157
asS'4.10.540.10'
p158
(lp159
sS'1.20.5.730'
p160
(lp161
S'G4LVX4'
p162
aS'C1L504'
p163
asS'4.10.1170.10'
p164
(lp165
S'Q5C3J3'
p166
aS'G4VJ06'
p167
asS'1.20.120.350'
p168
(lp169
S'C1LER9'
p170
aS'G4M1N7'
p171
asS'3.30.413.10'
p172
(lp173
sS'2.40.10.120'
p174
(lp175
sS'3.30.60.60'
p176
(lp177
S'C1L8D7'
p178
aS'G4LXT0'
p179
asS'3.30.70.260'
p180
(lp181
S'Q5DFM4'
p182
aS'G4LWP8'
p183
asS'1.20.1020.10'
p184
(lp185
S'Q5C2Q5'
p186
aS'G4VEQ5'
p187
asS'1.10.532.10'
p188
(lp189
sS'2.30.230.10'
p190
(lp191
sS'2.60.40.770'
p192
(lp193
S'G4VTW4'
p194
aS'Q5DFZ4'
p195
asS'1.10.287.600'
p196
(lp197
S'C4Q4S5'
p198
aS'Q5FYA5'
p199
aS'C1L471'
p200
asS'3.40.50.10760'
p201
(lp202
S'C1L491'
p203
aS'G4LWM3'
p204
asS'1.10.490.40'
p205
(lp206
sS'3.30.70.370'
p207
(lp208
S'Q5DHX5'
p209
aS'G4V993'
p210
asS'3.40.50.10860'
p211
(lp212
S'G4LYZ1'
p213
aS'B3GUY3'
p214
asS'2.60.410.10'
p215
(lp216
sS'1.20.5.1050'
p217
(lp218
S'G4LV43'
p219
aS'C1LG15'
p220
aS'A5A6F8'
p221
asS'3.30.70.270'
p222
(lp223
S'C4QS60'
p224
aS'C7TXU1'
p225
asS'3.40.1160.10'
p226
(lp227
S'G4VJT6'
p228
aS'C1LEW7'
p229
asS'3.30.2350.10'
p230
(lp231
S'C1L5Q8'
p232
aS'G4VDL7'
p233
asS'3.40.50.720'
p234
(lp235
S'B3GV02'
p236
aS'C4QQ81'
p237
asS'3.30.210.10'
p238
(lp239
sS'2.60.40.10'
p240
(lp241
S'C4Q5U5'
p242
aS'B5B7R3'
p243
asS'2.60.40.690'
p244
(lp245
S'G4V5U5'
p246
asS'3.60.20.10'
p247
(lp248
S'B9VRG0'
p249
aS'G4LUJ6'
p250
asS'3.30.360.10'
p251
(lp252
S'G4V5I1'
p253
aS'C1LD52'
p254
asS'1.10.245.10'
p255
(lp256
S'G4V888'
p257
aS'C1LM21'
p258
asS'3.20.20.400'
p259
(lp260
sS'4.10.80.40'
p261
(lp262
S'G4LY63'
p263
aS'Q5DE07'
p264
asS'1.10.1200.10'
p265
(lp266
S'C1L5E9'
p267
aS'G4VSN6'
p268
asS'1.10.530.10'
p269
(lp270
sS'1.10.8.100'
p271
(lp272
S'G4LXG3'
p273
aS'Q5D8X3'
p274
asS'1.10.2000.10'
p275
(lp276
S'C1L3T3'
p277
aS'G4M1Q0'
p278
asS'4.10.1270.10'
p279
(lp280
sS'3.30.56.20'
p281
(lp282
S'Q5DGS2'
p283
aS'G4LV70'
p284
asS'1.10.150.50'
p285
(lp286
S'C1L583'
p287
aS'G4LWA5'
p288
asS'4.10.45.10'
p289
(lp290
S'G4LUA6'
p291
asS'1.10.287.890'
p292
(lp293
S'G4VB83'
p294
aS'C1LE20'
p295
asS'3.90.660.20'
p296
(lp297
S'G4VTC3'
p298
asS'3.30.830.10'
p299
(lp300
S'C4Q011'
p301
aS'Q5C111'
p302
asS'3.30.450.40'
p303
(lp304
S'Q5C2K7'
p305
aS'G4VIQ4'
p306
asS'3.20.20.40'
p307
(lp308
sS'3.40.50.10140'
p309
(lp310
S'G4LXN9'
p311
aS'Q5C6A1'
p312
asS'1.10.468.10'
p313
(lp314
sS'3.20.110.10'
p315
(lp316
S'Q5BYG0'
p317
aS'G4M0J4'
p318
asS'1.10.1780.10'
p319
(lp320
sS'3.30.230.20'
p321
(lp322
sS'3.90.190.10'
p323
(lp324
S'B5B7R5'
p325
aS'C4QJ46'
p326
asS'3.40.33.10'
p327
(lp328
S'B3GUV1'
p329
aS'A3RK85'
p330
asS'3.90.1380.10'
p331
(lp332
sS'1.10.287.770'
p333
(lp334
S'Q5BW11'
p335
aS'G4VKI6'
p336
asS'2.40.50.120'
p337
(lp338
S'G4VJK4'
p339
asS'3.30.1700.10'
p340
(lp341
sS'3.40.50.150'
p342
(lp343
S'C1L4C6'
p344
aS'C4QC82'
p345
asS'3.30.70.1110'
p346
(lp347
sS'3.15.20.10'
p348
(lp349
sS'1.10.1140.10'
p350
(lp351
S'Q86EB8'
p352
aS'G4LWA8'
p353
asS'2.140.10.10'
p354
(lp355
S'G4LZA3'
p356
aS'Q5C070'
p357
asS'4.10.740.10'
p358
(lp359
sS'3.90.78.10'
p360
(lp361
sS'3.30.1430.10'
p362
(lp363
S'G4VN87'
p364
aS'C1LBG8'
p365
asS'2.60.40.60'
p366
(lp367
S'Q5BYV3'
p368
aS'C1M031'
p369
asS'1.20.1460.10'
p370
(lp371
S'C1L796'
p372
aS'G4M047'
p373
asS'1.25.20.10'
p374
(lp375
sS'2.40.70.10'
p376
(lp377
S'G4M1W1'
p378
aS'C1L3W6'
p379
asS'3.60.140.10'
p380
(lp381
sS'2.60.470.10'
p382
(lp383
S'G4LVW8'
p384
asS'3.40.50.1240'
p385
(lp386
S'B3GUV6'
p387
aS'C4Q1Q3'
p388
asS'1.20.1080.10'
p389
(lp390
S'C1L811'
p391
aS'C4PYI6'
p392
asS'1.20.5.560'
p393
(lp394
S'G4LVM3'
p395
aS'C1LDT1'
p396
asS'3.30.305.10'
p397
(lp398
sS'1.20.5.360'
p399
(lp400
sS'3.30.70.890'
p401
(lp402
S'G4LZ01'
p403
aS'C1L4K8'
p404
asS'3.90.1110.10'
p405
(lp406
S'G4VEG3'
p407
aS'C1LF25'
p408
asS'3.10.450.40'
p409
(lp410
S'G4VGX7'
p411
asS'1.25.40.90'
p412
(lp413
S'G4LVB4'
p414
aS'Q5BRK2'
p415
asS'1.10.1200.30'
p416
(lp417
sS'3.90.570.10'
p418
(lp419
S'G4LY13'
p420
aS'Q5DBI0'
p421
asS'2.170.300.10'
p422
(lp423
S'G4V5U5'
p424
aS'C1L4W7'
p425
asS'2.120.10.30'
p426
(lp427
S'G4V7U1'
p428
aS'C1LFP7'
p429
asS'3.90.850.10'
p430
(lp431
S'Q5DFL7'
p432
aS'G4M1F1'
p433
asS'3.30.420.150'
p434
(lp435
sS'2.170.200.10'
p436
(lp437
sS'1.10.287.550'
p438
(lp439
sS'2.60.120.310'
p440
(lp441
S'G4VCA0'
p442
aS'C1LS63'
p443
asS'2.10.50.10'
p444
(lp445
S'G4VIL7'
p446
aS'Q5BVZ1'
p447
asS'4.10.87.10'
p448
(lp449
sS'1.10.168.10'
p450
(lp451
S'Q5DHB6'
p452
aS'G4VHU3'
p453
asS'2.10.220.10'
p454
(lp455
S'G4VRX7'
p456
aS'Q5C4K2'
p457
asS'1.20.80.10'
p458
(lp459
S'C1L6K1'
p460
aS'G4LWV5'
p461
asS'3.10.400.10'
p462
(lp463
S'G4VMD4'
p464
aS'A2SUQ9'
p465
asS'4.10.1190.10'
p466
(lp467
sS'1.25.40.10'
p468
(lp469
S'B3GUQ8'
p470
aS'C4PZS9'
p471
asS'4.10.680.10'
p472
(lp473
sS'3.90.209.20'
p474
(lp475
sS'2.30.110.10'
p476
(lp477
S'Q5DDA2'
p478
aS'G4M1K6'
p479
asS'4.10.60.10'
p480
(lp481
S'C1LAF9'
p482
aS'G4M0F2'
p483
asS'1.10.10.250'
p484
(lp485
S'C1LN85'
p486
aS'G4V9G5'
p487
asS'2.60.220.10'
p488
(lp489
S'C4Q5U3'
p490
aS'C1LED5'
p491
asS'1.10.555.10'
p492
(lp493
S'C4QRU8'
p494
aS'C1LIT2'
p495
asS'3.40.50.800'
p496
(lp497
S'Q5BSM0'
p498
aS'C1M0L0'
p499
asS'1.20.272.10'
p500
(lp501
S'G4LY44'
p502
aS'Q5BYM8'
p503
asS'2.40.180.10'
p504
(lp505
sS'3.30.1740.10'
p506
(lp507
S'G4M0L0'
p508
aS'Q5BY75'
p509
asS'1.10.286.10'
p510
(lp511
S'G4VFZ0'
p512
asS'3.30.1300.30'
p513
(lp514
sS'3.30.1110.10'
p515
(lp516
S'C1L3V2'
p517
aS'G4V7G4'
p518
asS'2.40.37.10'
p519
(lp520
sS'3.30.300.10'
p521
(lp522
S'G4M0Y0'
p523
aS'Q5DH96'
p524
asS'2.10.60.10'
p525
(lp526
S'C1L622'
p527
aS'B8Y6H3'
p528
asS'1.20.1170.10'
p529
(lp530
S'G4LWZ8'
p531
aS'C1LEI7'
p532
asS'1.20.5.510'
p533
(lp534
S'G4V8L8'
p535
asS'1.10.10.10'
p536
(lp537
S'A6XDL3'
p538
aS'B3GUP6'
p539
asS'3.40.50.2300'
p540
(lp541
S'C4QPD0'
p542
aS'Q5C7X4'
p543
asS'3.60.110.10'
p544
(lp545
S'G4LZ98'
p546
aS'C1L4B4'
p547
asS'2.40.160.10'
p548
(lp549
S'G4M1U7'
p550
aS'C1L6E8'
p551
asS'1.50.10.100'
p552
(lp553
sS'2.40.110.10'
p554
(lp555
sS'2.60.120.590'
p556
(lp557
S'C1LEC8'
p558
aS'C4QTP7'
p559
asS'4.10.1200.10'
p560
(lp561
sS'4.10.830.10'
p562
(lp563
S'G4V8K8'
p564
aS'Q5BTL1'
p565
asS'2.60.120.320'
p566
(lp567
S'Q5BRD8'
p568
aS'G4VDG7'
p569
asS'3.40.1650.10'
p570
(lp571
sS'3.30.70.590'
p572
(lp573
S'G4LZL5'
p574
aS'C1LE67'
p575
asS'2.110.10.10'
p576
(lp577
S'G4VEJ3'
p578
asS'3.10.380.10'
p579
(lp580
sS'3.75.10.10'
p581
(lp582
S'G4LYW6'
p583
aS'C1L7A2'
p584
asS'3.40.50.10420'
p585
(lp586
S'C1LE23'
p587
aS'G4VJG8'
p588
asS'4.10.280.10'
p589
(lp590
S'G4LUA7'
p591
aS'C1L6A5'
p592
asS'3.40.1190.20'
p593
(lp594
S'G4LYI8'
p595
aS'C1L3Q7'
p596
asS'1.50.40.10'
p597
(lp598
S'G4LYG3'
p599
aS'C1L8V6'
p600
asS'1.10.155.10'
p601
(lp602
sS'1.20.5.100'
p603
(lp604
S'Q5C234'
p605
aS'G4VAP6'
p606
asS'3.30.450.90'
p607
(lp608
sS'4.10.93.10'
p609
(lp610
sS'2.70.20.10'
p611
(lp612
S'G4VFA7'
p613
asS'3.50.30.20'
p614
(lp615
sS'1.20.120.310'
p616
(lp617
S'G4M193'
p618
aS'C1L747'
p619
asS'3.30.70.1230'
p620
(lp621
S'Q5BXD2'
p622
aS'G4VMY6'
p623
asS'1.10.472.10'
p624
(lp625
S'C1LLP7'
p626
aS'G4LUG9'
p627
asS'1.10.1400.10'
p628
(lp629
sS'3.90.1430.10'
p630
(lp631
S'C1LIY5'
p632
aS'G4LVU7'
p633
asS'3.60.130.10'
p634
(lp635
sS'1.20.5.470'
p636
(lp637
sS'2.70.9.10'
p638
(lp639
sS'2.130.10.120'
p640
(lp641
S'G4M0R1'
p642
aS'C1L3V3'
p643
asS'3.30.1490.140'
p644
(lp645
sS'1.20.5.1010'
p646
(lp647
sS'2.30.30.110'
p648
(lp649
sS'4.10.110.10'
p650
(lp651
S'G4V8C4'
p652
aS'Q5BYN2'
p653
asS'3.30.160.110'
p654
(lp655
sS'1.10.1030.10'
p656
(lp657
S'G4VEM7'
p658
asS'1.10.210.10'
p659
(lp660
sS'3.30.50.10'
p661
(lp662
S'Q5C527'
p663
aS'G4VD34'
p664
asS'3.10.20.90'
p665
(lp666
S'C1L3S9'
p667
aS'C4QLP6'
p668
asS'2.40.460.10'
p669
(lp670
S'G4VJ84'
p671
asS'3.80.10.10'
p672
(lp673
S'C4QRK3'
p674
aS'C1L577'
p675
asS'1.20.58.100'
p676
(lp677
S'G4LY63'
p678
aS'Q5DE07'
p679
asS'3.20.20.100'
p680
(lp681
S'C1L9V4'
p682
aS'G4LXR4'
p683
asS'3.90.1520.10'
p684
(lp685
S'G4LU97'
p686
asS'3.20.20.330'
p687
(lp688
S'G4VBH2'
p689
asS'3.20.20.70'
p690
(lp691
S'C4PZQ3'
p692
aS'B3GUX0'
p693
aS'A5A6F9'
p694
asS'2.40.30.90'
p695
(lp696
sS'3.40.50.1820'
p697
(lp698
S'Q86GL8'
p699
aS'C4QK30'
p700
aS'C1L3S3'
p701
asS'2.60.40.790'
p702
(lp703
S'C1L7M3'
p704
aS'G4LW11'
p705
asS'3.90.940.10'
p706
(lp707
S'G4V787'
p708
aS'Q5D946'
p709
asS'2.30.140.10'
p710
(lp711
sS'1.10.1200.80'
p712
(lp713
sS'3.90.100.10'
p714
(lp715
sS'3.90.230.10'
p716
(lp717
S'G4VM23'
p718
aS'Q5BZ27'
p719
asS'3.10.200.10'
p720
(lp721
S'G4M116'
p722
aS'C1LFK7'
p723
asS'3.10.20.70'
p724
(lp725
S'C1LHA1'
p726
aS'C4Q2Z2'
p727
asS'1.10.730.10'
p728
(lp729
S'Q5C105'
p730
aS'G4LVH7'
p731
asS'2.20.25.30'
p732
(lp733
S'G4V5D8'
p734
aS'C1LPY8'
p735
asS'1.10.150.210'
p736
(lp737
S'Q26545'
p738
asS'1.20.1250.10'
p739
(lp740
S'C1LGR4'
p741
aS'G4LUF7'
p742
asS'1.20.5.600'
p743
(lp744
sS'1.20.120.550'
p745
(lp746
S'G4VH65'
p747
aS'C1LQ48'
p748
asS'2.20.140.10'
p749
(lp750
S'G4M0L0'
p751
aS'Q5C0T7'
p752
asS'1.20.82.10'
p753
(lp754
S'Q32TF5'
p755
aS'Q86FH3'
p756
asS'3.40.430.10'
p757
(lp758
S'G4VJD6'
p759
aS'C1LGY1'
p760
asS'1.10.230.10'
p761
(lp762
S'G4LZD0'
p763
aS'C1LFJ7'
p764
asS'3.40.525.10'
p765
(lp766
S'C4QKW8'
p767
aS'C1LHD2'
p768
asS'4.10.960.10'
p769
(lp770
S'Q5DGM0'
p771
aS'C4QKQ4'
p772
asS'3.30.230.60'
p773
(lp774
sS'2.60.40.720'
p775
(lp776
S'G4LYM1'
p777
aS'Q5BZ83'
p778
asS'1.25.50.10'
p779
(lp780
sS'3.30.60.30'
p781
(lp782
S'Q5DB64'
p783
aS'G4LY67'
p784
asS'1.10.287.630'
p785
(lp786
S'G4LUM1'
p787
asS'2.60.40.1130'
p788
(lp789
sS'1.10.490.30'
p790
(lp791
sS'1.10.287.980'
p792
(lp793
S'I6LB07'
p794
asS'3.40.50.1110'
p795
(lp796
S'G4LZC1'
p797
aS'C1LFE9'
p798
asS'1.10.287.560'
p799
(lp800
sS'3.40.50.970'
p801
(lp802
S'C1LFH4'
p803
aS'G4VT40'
p804
asS'3.40.50.200'
p805
(lp806
S'G4VKQ9'
p807
aS'C1LEI4'
p808
asS'1.10.1160.10'
p809
(lp810
S'C1L4U3'
p811
aS'G4V9R9'
p812
asS'3.90.700.10'
p813
(lp814
S'G4LY63'
p815
aS'Q5DE07'
p816
asS'3.30.60.20'
p817
(lp818
S'G4VS77'
p819
aS'Q5BWW9'
p820
asS'2.115.10.20'
p821
(lp822
sS'2.170.11.10'
p823
(lp824
S'Q5C1T3'
p825
aS'G4VRF9'
p826
asS'1.10.287.440'
p827
(lp828
sS'2.40.10.170'
p829
(lp830
S'C1L762'
p831
aS'G4VHN3'
p832
asS'2.20.28.10'
p833
(lp834
S'C1L4T0'
p835
aS'C1M255'
p836
asS'1.10.565.10'
p837
(lp838
S'G4LXS8'
p839
aS'Q5BSD6'
p840
asS'1.10.10.410'
p841
(lp842
sS'2.40.33.10'
p843
(lp844
S'G4VAH9'
p845
aS'Q5DAM7'
p846
asS'2.20.25.90'
p847
(lp848
sS'2.40.50.40'
p849
(lp850
S'G4VMB0'
p851
aS'C1LJ18'
p852
asS'3.40.50.1440'
p853
(lp854
S'C4Q4S5'
p855
aS'Q5FYA5'
p856
aS'C1LBB6'
p857
asS'4.10.1220.10'
p858
(lp859
S'G4M010'
p860
asS'1.10.1270.20'
p861
(lp862
sS'3.30.67.10'
p863
(lp864
sS'3.90.640.10'
p865
(lp866
S'C4QFX9'
p867
aS'B3GUU7'
p868
asS'2.10.90.10'
p869
(lp870
S'G9B6P3'
p871
aS'A4UAH0'
p872
asS'3.10.180.20'
p873
(lp874
S'G4VFZ1'
p875
asS'3.40.50.10210'
p876
(lp877
sS'2.80.10.50'
p878
(lp879
S'G4LUM3'
p880
aS'B3GUY9'
p881
asS'2.60.120.620'
p882
(lp883
S'G4VKQ0'
p884
aS'C1LFF4'
p885
asS'3.30.379.10'
p886
(lp887
S'G4VHP9'
p888
aS'Q5C4F9'
p889
asS'3.30.1360.40'
p890
(lp891
S'G4VPA9'
p892
asS'3.30.590.10'
p893
(lp894
S'C1LHA0'
p895
aS'G4VT35'
p896
asS'1.10.390.10'
p897
(lp898
S'G4M023'
p899
aS'C1L457'
p900
asS'1.10.274.10'
p901
(lp902
sS'1.10.820.10'
p903
(lp904
sS'4.10.80.10'
p905
(lp906
sS'3.30.230.10'
p907
(lp908
S'C4QII4'
p909
aS'C1LV98'
p910
asS'3.40.50.1700'
p911
(lp912
S'G4VRX3'
p913
asS'3.30.1330.10'
p914
(lp915
S'B3GUX9'
p916
asS'3.40.1400.10'
p917
(lp918
sS'3.40.50.10300'
p919
(lp920
S'Q5BZK8'
p921
aS'G4VHG2'
p922
asS'1.10.1860.10'
p923
(lp924
sS'3.30.410.10'
p925
(lp926
S'Q5BRS9'
p927
aS'G4VPI5'
p928
asS'1.10.580.10'
p929
(lp930
S'G4LZD0'
p931
aS'C1LFJ7'
p932
asS'3.40.50.880'
p933
(lp934
S'G4V7R9'
p935
aS'C1L4D8'
p936
asS'2.10.70.10'
p937
(lp938
S'C1LG80'
p939
aS'C4QRP9'
p940
asS'2.70.130.10'
p941
(lp942
S'G4VIG9'
p943
aS'Q5DHR4'
p944
asS'1.10.1130.10'
p945
(lp946
sS'2.40.50.180'
p947
(lp948
sS'1.10.8.210'
p949
(lp950
sS'3.30.70.1140'
p951
(lp952
sS'3.50.40.10'
p953
(lp954
S'Q5DGS2'
p955
aS'G4LV70'
p956
asS'3.30.497.10'
p957
(lp958
S'B2MV81'
p959
aS'G4LYU6'
p960
aS'Q26502'
p961
asS'3.40.50.10170'
p962
(lp963
sS'1.10.287.160'
p964
(lp965
S'G4LY72'
p966
aS'C1LCS1'
p967
asS'1.10.940.10'
p968
(lp969
sS'1.10.740.10'
p970
(lp971
sS'1.20.5.550'
p972
(lp973
sS'1.10.238.110'
p974
(lp975
S'G4LVT5'
p976
aS'Q3MJS5'
p977
asS'3.10.25.10'
p978
(lp979
sS'1.20.5.250'
p980
(lp981
sS'1.10.287.130'
p982
(lp983
sS'3.30.1360.110'
p984
(lp985
sS'3.30.65.10'
p986
(lp987
S'G4VM01'
p988
asS'1.10.3080.10'
p989
(lp990
S'Q5BR49'
p991
aS'G4M0B7'
p992
asS'4.10.880.10'
p993
(lp994
sS'3.90.1150.10'
p995
(lp996
S'A7UAX6'
p997
aS'C1L634'
p998
asS'3.10.150.10'
p999
(lp1000
sS'2.40.170.10'
p1001
(lp1002
sS'3.30.465.10'
p1003
(lp1004
sS'1.20.1670.10'
p1005
(lp1006
sS'1.10.3480.10'
p1007
(lp1008
sS'1.10.1200.60'
p1009
(lp1010
S'G4LVM3'
p1011
aS'C1LDT1'
p1012
asS'3.30.950.10'
p1013
(lp1014
S'G4VPC1'
p1015
asS'3.30.420.10'
p1016
(lp1017
S'C1LHF1'
p1018
aS'G4LVX3'
p1019
asS'2.60.40.680'
p1020
(lp1021
sS'3.40.1060.10'
p1022
(lp1023
S'G4VMI0'
p1024
aS'Q5BXP5'
p1025
asS'3.30.70.141'
p1026
(lp1027
S'B3GUP5'
p1028
aS'G4LY79'
p1029
asS'3.40.109.10'
p1030
(lp1031
sS'4.10.780.10'
p1032
(lp1033
sS'4.10.640.10'
p1034
(lp1035
S'C1LFW5'
p1036
aS'G4V6L4'
p1037
asS'1.10.800.10'
p1038
(lp1039
S'G4VPY9'
p1040
aS'C1LDI3'
p1041
asS'3.80.20.20'
p1042
(lp1043
S'G4VEU5'
p1044
aS'Q5BR80'
p1045
asS'1.20.1200.10'
p1046
(lp1047
sS'2.60.40.1510'
p1048
(lp1049
S'C4PYZ0'
p1050
asS'1.10.1530.10'
p1051
(lp1052
S'G4V698'
p1053
aS'C7TY16'
p1054
asS'1.20.5.110'
p1055
(lp1056
S'G4LUG3'
p1057
aS'B3GUR4'
p1058
asS'1.10.400.10'
p1059
(lp1060
S'C4QDC6'
p1061
aS'A1XBS3'
p1062
asS'3.30.70.610'
p1063
(lp1064
sS'3.10.450.60'
p1065
(lp1066
S'G4V9T8'
p1067
asS'3.30.250.10'
p1068
(lp1069
sS'4.10.40.30'
p1070
(lp1071
sS'3.40.1190.10'
p1072
(lp1073
S'G4V6Z6'
p1074
aS'Q5C3N8'
p1075
asS'1.20.5.1190'
p1076
(lp1077
S'G4VIH9'
p1078
asS'3.40.1380.20'
p1079
(lp1080
S'G4VAH9'
p1081
aS'Q5D8L3'
p1082
asS'1.20.5.540'
p1083
(lp1084
S'Q5DC80'
p1085
aS'G4V7H1'
p1086
asS'1.10.437.10'
p1087
(lp1088
S'C1L437'
p1089
aS'G4V9D2'
p1090
asS'3.40.50.850'
p1091
(lp1092
S'Q5BSG1'
p1093
aS'G4LYG9'
p1094
asS'2.60.40.670'
p1095
(lp1096
S'G4VTA6'
p1097
asS'1.10.3130.10'
p1098
(lp1099
sS'3.30.1370.20'
p1100
(lp1101
sS'1.10.45.10'
p1102
(lp1103
sS'3.30.2060.10'
p1104
(lp1105
sS'3.40.1030.10'
p1106
(lp1107
sS'3.30.1570.10'
p1108
(lp1109
sS'3.40.440.10'
p1110
(lp1111
S'C4QCD2'
p1112
aS'Q5D8V5'
p1113
asS'1.10.10.41'
p1114
(lp1115
S'Q5C1T3'
p1116
aS'G4VRF9'
p1117
asS'2.120.10.80'
p1118
(lp1119
S'Q5C3Q6'
p1120
aS'G4V9Y9'
p1121
asS'3.30.160.20'
p1122
(lp1123
S'G4VFC5'
p1124
aS'C1LG44'
p1125
asS'3.90.80.10'
p1126
(lp1127
S'Q5DE13'
p1128
aS'G4VPE8'
p1129
asS'3.55.20.10'
p1130
(lp1131
sS'2.40.170.20'
p1132
(lp1133
sS'1.10.132.10'
p1134
(lp1135
S'Q3KTH0'
p1136
aS'G4VRF9'
p1137
asS'3.90.79.10'
p1138
(lp1139
S'G4V6Y0'
p1140
aS'C1L555'
p1141
asS'2.40.160.40'
p1142
(lp1143
sS'3.20.16.10'
p1144
(lp1145
sS'2.60.120.560'
p1146
(lp1147
sS'3.30.1050.10'
p1148
(lp1149
S'G4LWZ7'
p1150
asS'3.20.20.370'
p1151
(lp1152
S'G4VB04'
p1153
asS'3.40.228.10'
p1154
(lp1155
sS'3.90.226.10'
p1156
(lp1157
S'C4QS32'
p1158
aS'C1L6K4'
p1159
asS'3.40.30.10'
p1160
(lp1161
S'B3GUT5'
p1162
aS'P30114'
p1163
aS'C4QPB5'
p1164
asS'1.10.240.10'
p1165
(lp1166
S'G4LXR8'
p1167
aS'C1L6H3'
p1168
asS'2.40.155.10'
p1169
(lp1170
S'Q5BT35'
p1171
aS'G4LZ07'
p1172
asS'3.75.10.20'
p1173
(lp1174
sS'3.30.1540.10'
p1175
(lp1176
sS'1.10.405.10'
p1177
(lp1178
S'G4VC26'
p1179
aS'C1LEP2'
p1180
asS'2.70.160.11'
p1181
(lp1182
S'Q5BXN8'
p1183
aS'G4VCV7'
p1184
asS'1.20.5.170'
p1185
(lp1186
S'C1LRV3'
p1187
aS'G4LV44'
p1188
asS'3.10.20.30'
p1189
(lp1190
S'C4QC98'
p1191
aS'C1LEI3'
p1192
asS'3.40.720.10'
p1193
(lp1194
S'A8TKU6'
p1195
aS'Q5BX03'
p1196
asS'2.30.130.40'
p1197
(lp1198
S'G4VN42'
p1199
aS'C1L659'
p1200
asS'1.10.246.40'
p1201
(lp1202
sS'3.20.20.360'
p1203
(lp1204
sS'1.20.90.10'
p1205
(lp1206
sS'2.60.40.290'
p1207
(lp1208
sS'3.50.30.10'
p1209
(lp1210
sS'3.10.120.10'
p1211
(lp1212
S'G4V9R2'
p1213
aS'C1LFE1'
p1214
asS'1.20.120.610'
p1215
(lp1216
S'B5B7Q6'
p1217
aS'G4LXI9'
p1218
asS'3.40.50.20'
p1219
(lp1220
S'G4V7M2'
p1221
aS'Q5DDR2'
p1222
asS'1.10.1050.10'
p1223
(lp1224
S'Q5C773'
p1225
asS'1.20.5.480'
p1226
(lp1227
sS'3.60.10.10'
p1228
(lp1229
S'G4LY21'
p1230
aS'C1L4Q8'
p1231
asS'3.30.1600.10'
p1232
(lp1233
S'C4Q5J6'
p1234
aS'C1LH16'
p1235
asS'2.40.30.20'
p1236
(lp1237
S'Q5D925'
p1238
aS'G4VLJ0'
p1239
asS'3.40.50.1980'
p1240
(lp1241
S'C1L5A2'
p1242
aS'G4VN22'
p1243
asS'1.20.141.10'
p1244
(lp1245
sS'2.170.230.10'
p1246
(lp1247
sS'1.10.533.10'
p1248
(lp1249
S'C4Q195'
p1250
aS'Q5BSI9'
p1251
asS'1.20.5.10'
p1252
(lp1253
S'Q5C1K9'
p1254
aS'G4VNZ4'
p1255
asS'1.20.91.20'
p1256
(lp1257
sS'4.10.70.10'
p1258
(lp1259
S'C4QGD8'
p1260
asS'2.40.30.30'
p1261
(lp1262
S'G4M0L1'
p1263
aS'Q5BXG8'
p1264
asS'3.30.310.10'
p1265
(lp1266
S'Q5BSA7'
p1267
aS'C4QKR1'
p1268
asS'3.40.970.10'
p1269
(lp1270
S'C4QPU4'
p1271
asS'3.90.1280.10'
p1272
(lp1273
sS'2.60.40.1400'
p1274
(lp1275
sS'2.40.50.100'
p1276
(lp1277
S'C1L6Q3'
p1278
aS'G4VRH7'
p1279
asS'3.30.390.10'
p1280
(lp1281
S'P33676'
p1282
aS'Q6LC36'
p1283
asS'1.10.287.400'
p1284
(lp1285
sS'3.30.1330.40'
p1286
(lp1287
S'G4VND5'
p1288
aS'C1LIW9'
p1289
asS'3.30.1440.10'
p1290
(lp1291
S'C1L7V2'
p1292
aS'G4VMJ4'
p1293
asS'3.20.20.10'
p1294
(lp1295
S'C1LEV4'
p1296
asS'2.160.20.20'
p1297
(lp1298
sS'1.10.20.10'
p1299
(lp1300
S'C1M1H8'
p1301
aS'C1L450'
p1302
asS'3.90.1480.10'
p1303
(lp1304
sS'2.10.10.10'
p1305
(lp1306
S'G4VLC4'
p1307
asS'3.40.50.1400'
p1308
(lp1309
S'Q5DEU6'
p1310
aS'G4V924'
p1311
asS'2.60.290.11'
p1312
(lp1313
sS'2.10.160.10'
p1314
(lp1315
sS'1.10.40.30'
p1316
(lp1317
S'G4LVG5'
p1318
aS'C1LGX3'
p1319
asS'1.10.1240.20'
p1320
(lp1321
sS'2.60.120.290'
p1322
(lp1323
S'C4Q5F4'
p1324
aS'Q5BZF0'
p1325
asS'3.30.2420.10'
p1326
(lp1327
sS'3.30.1010.10'
p1328
(lp1329
S'G4V7A4'
p1330
aS'Q5BXA1'
p1331
asS'1.20.5.210'
p1332
(lp1333
S'G4VIZ2'
p1334
aS'C1L8W8'
p1335
asS'3.90.400.10'
p1336
(lp1337
sS'2.160.20.60'
p1338
(lp1339
S'Q5C3P4'
p1340
aS'G4VS94'
p1341
asS'3.30.1240.10'
p1342
(lp1343
sS'3.10.290.10'
p1344
(lp1345
S'G4V917'
p1346
aS'C1LT49'
p1347
asS'3.30.1360.80'
p1348
(lp1349
sS'1.20.1260.10'
p1350
(lp1351
S'B3GUY2'
p1352
aS'G4LUZ7'
p1353
asS'3.20.14.10'
p1354
(lp1355
sS'3.20.80.10'
p1356
(lp1357
sS'3.40.390.10'
p1358
(lp1359
S'G4VCE9'
p1360
aS'Q5BVG6'
p1361
asS'4.10.800.10'
p1362
(lp1363
S'G4V9C6'
p1364
asS'2.170.210.10'
p1365
(lp1366
S'C1LHX9'
p1367
asS'3.30.870.10'
p1368
(lp1369
S'Q5C3M2'
p1370
aS'G4VFV5'
p1371
asS'4.10.630.10'
p1372
(lp1373
sS'2.30.29.30'
p1374
(lp1375
S'B5B7R0'
p1376
aS'C4QKX0'
p1377
asS'3.20.190.10'
p1378
(lp1379
sS'2.60.40.340'
p1380
(lp1381
sS'1.10.10.350'
p1382
(lp1383
S'G4V9R9'
p1384
asS'3.90.780.10'
p1385
(lp1386
S'G4VM41'
p1387
aS'C1LJ95'
p1388
asS'1.10.1080.10'
p1389
(lp1390
S'C1L3Q0'
p1391
aS'G4VNT7'
p1392
asS'3.30.1360.30'
p1393
(lp1394
sS'3.90.1350.10'
p1395
(lp1396
sS'3.30.750.44'
p1397
(lp1398
sS'1.20.1270.20'
p1399
(lp1400
sS'3.40.50.140'
p1401
(lp1402
S'Q5DFL5'
p1403
aS'G4VFA7'
p1404
asS'1.20.120.330'
p1405
(lp1406
S'G4V5E4'
p1407
aS'C1L490'
p1408
aS'A5A6F8'
p1409
asS'1.25.10.30'
p1410
(lp1411
S'G4LXE8'
p1412
asS'1.10.225.10'
p1413
(lp1414
S'B6ZBP3'
p1415
aS'C1L7I2'
p1416
asS'3.40.50.920'
p1417
(lp1418
S'G4V9A5'
p1419
aS'Q5BSR1'
p1420
asS'3.90.740.10'
p1421
(lp1422
S'G4LVH7'
p1423
aS'Q5BRJ7'
p1424
asS'2.60.120.680'
p1425
(lp1426
S'C1L3U5'
p1427
aS'G4VCQ4'
p1428
asS'3.30.280.10'
p1429
(lp1430
sS'2.60.175.10'
p1431
(lp1432
S'G4VCJ9'
p1433
asS'3.30.1460.20'
p1434
(lp1435
S'G4V7X7'
p1436
aS'Q5DFU4'
p1437
asS'1.10.10.520'
p1438
(lp1439
S'C1LIQ4'
p1440
aS'G4LWD7'
p1441
asS'3.90.20.10'
p1442
(lp1443
S'C1LGT8'
p1444
aS'G4V8E0'
p1445
asS'2.160.20.90'
p1446
(lp1447
sS'3.90.180.10'
p1448
(lp1449
S'C1LFV4'
p1450
aS'G4VEY4'
p1451
asS'2.70.98.10'
p1452
(lp1453
sS'2.40.33.20'
p1454
(lp1455
sS'1.10.166.10'
p1456
(lp1457
sS'2.30.40.10'
p1458
(lp1459
S'C1L524'
p1460
aS'G4V5P9'
p1461
asS'2.40.50.70'
p1462
(lp1463
sS'3.30.1520.10'
p1464
(lp1465
S'C4QU97'
p1466
aS'Q5DCX2'
p1467
asS'3.30.70.1470'
p1468
(lp1469
S'C1L8Y1'
p1470
aS'C4Q500'
p1471
asS'3.30.1780.10'
p1472
(lp1473
sS'2.30.170.20'
p1474
(lp1475
S'G4VJ44'
p1476
aS'B3GUS5'
p1477
asS'3.40.50.10320'
p1478
(lp1479
S'G4V821'
p1480
aS'Q5D8W3'
p1481
asS'1.20.5.350'
p1482
(lp1483
S'C1LDC4'
p1484
aS'G4LYF7'
p1485
asS'3.30.530.20'
p1486
(lp1487
S'C4Q6H2'
p1488
aS'C1L8Q1'
p1489
asS'3.90.105.10'
p1490
(lp1491
S'G4LZ84'
p1492
asS'3.10.180.10'
p1493
(lp1494
S'G4VG72'
p1495
aS'Q5BS34'
p1496
asS'2.70.40.10'
p1497
(lp1498
S'C1L7G7'
p1499
aS'G4V790'
p1500
asS'4.10.1240.10'
p1501
(lp1502
S'G4LWU3'
p1503
asS'3.90.110.10'
p1504
(lp1505
S'C1L7C9'
p1506
aS'G4M189'
p1507
asS'1.20.200.10'
p1508
(lp1509
S'G4LVG5'
p1510
aS'Q5BTN6'
p1511
asS'2.60.120.610'
p1512
(lp1513
sS'3.40.605.10'
p1514
(lp1515
S'Q26538'
p1516
aS'Q3KZ91'
p1517
asS'1.10.930.10'
p1518
(lp1519
sS'2.60.350.10'
p1520
(lp1521
S'Q5BYL9'
p1522
aS'G4LVP9'
p1523
asS'3.30.1360.10'
p1524
(lp1525
S'G4VFR0'
p1526
aS'C1L6J4'
p1527
asS'3.40.50.10730'
p1528
(lp1529
S'G4VR32'
p1530
asS'1.10.3270.10'
p1531
(lp1532
S'C1L525'
p1533
aS'C4Q5I9'
p1534
asS'2.40.160.70'
p1535
(lp1536
sS'3.90.220.10'
p1537
(lp1538
sS'4.10.1120.10'
p1539
(lp1540
sS'2.60.120.430'
p1541
(lp1542
S'G4V5M2'
p1543
aS'B5B7Q1'
p1544
asS'3.90.25.10'
p1545
(lp1546
S'C1L6L8'
p1547
aS'C1M169'
p1548
asS'3.90.1800.10'
p1549
(lp1550
S'G4VEG3'
p1551
aS'C1LF25'
p1552
asS'3.90.1170.20'
p1553
(lp1554
S'C1L631'
p1555
asS'1.20.1270.50'
p1556
(lp1557
S'Q5BZ38'
p1558
aS'G4M0J4'
p1559
asS'1.10.1090.10'
p1560
(lp1561
S'G4VQ59'
p1562
aS'Q86EV2'
p1563
asS'3.90.1260.10'
p1564
(lp1565
sS'3.30.160.190'
p1566
(lp1567
S'G4VNZ5'
p1568
aS'Q5DED6'
p1569
asS'1.10.640.10'
p1570
(lp1571
S'G4VLK0'
p1572
aS'Q5C3T6'
p1573
asS'1.10.1060.10'
p1574
(lp1575
S'Q5DAK2'
p1576
aS'G4V5U2'
p1577
asS'3.30.1370.60'
p1578
(lp1579
S'G4V698'
p1580
aS'Q5DB34'
p1581
asS'3.30.479.10'
p1582
(lp1583
S'Q5DCA1'
p1584
aS'G4M0A6'
p1585
asS'1.20.5.320'
p1586
(lp1587
S'G4VCY4'
p1588
aS'C1LJA0'
p1589
asS'3.60.15.10'
p1590
(lp1591
S'G4LZQ3'
p1592
aS'B3GUV8'
p1593
asS'3.10.100.10'
p1594
(lp1595
S'G4M0Q3'
p1596
aS'Q5BVN7'
p1597
asS'3.40.462.10'
p1598
(lp1599
sS'1.10.439.10'
p1600
(lp1601
sS'1.10.268.10'
p1602
(lp1603
S'G4VPA9'
p1604
asS'3.90.470.10'
p1605
(lp1606
S'C1L667'
p1607
aS'G4M060'
p1608
asS'1.10.287.10'
p1609
(lp1610
S'Q5DHC1'
p1611
aS'G4VCG6'
p1612
asS'3.30.457.10'
p1613
(lp1614
sS'1.20.970.10'
p1615
(lp1616
sS'3.40.920.10'
p1617
(lp1618
sS'3.90.480.10'
p1619
(lp1620
sS'3.30.540.10'
p1621
(lp1622
S'G4VTV0'
p1623
aS'C1L4U6'
p1624
asS'1.20.1340.10'
p1625
(lp1626
S'Q5BVX9'
p1627
aS'G4LVM4'
p1628
asS'1.10.3790.10'
p1629
(lp1630
sS'2.50.10.10'
p1631
(lp1632
sS'3.10.170.10'
p1633
(lp1634
sS'3.30.110.30'
p1635
(lp1636
S'G4VLU3'
p1637
aS'Q5C5I9'
p1638
asS'2.10.210.10'
p1639
(lp1640
sS'3.40.50.10380'
p1641
(lp1642
S'G4VPZ9'
p1643
aS'Q5BX10'
p1644
asS'3.30.1490.70'
p1645
(lp1646
S'G4LYZ4'
p1647
aS'C1LDV7'
p1648
asS'3.30.1490.10'
p1649
(lp1650
S'G4VGR1'
p1651
aS'C1LBQ1'
p1652
asS'2.70.230.10'
p1653
(lp1654
sS'2.30.30.40'
p1655
(lp1656
S'G4LZX2'
p1657
aS'B3GUP4'
p1658
asS'1.10.630.10'
p1659
(lp1660
S'Q5D9Z5'
p1661
aS'G4VF77'
p1662
asS'1.20.1440.80'
p1663
(lp1664
sS'2.10.150.10'
p1665
(lp1666
sS'2.30.39.10'
p1667
(lp1668
S'G4LYU5'
p1669
aS'B3W658'
p1670
aS'Q26502'
p1671
asS'3.20.20.80'
p1672
(lp1673
S'C1L466'
p1674
aS'G4LY49'
p1675
asS'2.102.10.10'
p1676
(lp1677
S'G4VNI0'
p1678
aS'B3GUZ5'
p1679
asS'3.30.54.20'
p1680
(lp1681
S'G4V6P2'
p1682
asS'3.90.1240.10'
p1683
(lp1684
sS'3.30.1180.20'
p1685
(lp1686
sS'3.40.50.1780'
p1687
(lp1688
S'G4V773'
p1689
aS'Q5BYR2'
p1690
asS'3.30.1330.20'
p1691
(lp1692
S'C4Q4S5'
p1693
aS'Q5FYA5'
p1694
aS'C1L471'
p1695
asS'1.10.455.10'
p1696
(lp1697
S'G4V605'
p1698
aS'C1LAD5'
p1699
asS'3.90.45.10'
p1700
(lp1701
sS'3.40.120.10'
p1702
(lp1703
S'C4QPU4'
p1704
aS'Q5C2A4'
p1705
asS'3.30.1340.10'
p1706
(lp1707
sS'4.10.260.20'
p1708
(lp1709
sS'1.20.5.760'
p1710
(lp1711
sS'2.60.20.10'
p1712
(lp1713
S'B3GUT6'
p1714
aS'G4V5X1'
p1715
asS'1.10.1390.10'
p1716
(lp1717
S'C1L6Q2'
p1718
aS'G4VPH5'
p1719
asS'3.30.1120.30'
p1720
(lp1721
S'G4V5L2'
p1722
aS'Q5DEU3'
p1723
asS'1.20.5.440'
p1724
(lp1725
S'Q3KTI0'
p1726
aS'C4QJA1'
p1727
asS'2.130.10.130'
p1728
(lp1729
S'E7BBC3'
p1730
asS'2.70.150.10'
p1731
(lp1732
S'G4M1H5'
p1733
aS'C1LD05'
p1734
asS'1.10.1660.10'
p1735
(lp1736
sS'1.10.287.1070'
p1737
(lp1738
sS'3.40.190.10'
p1739
(lp1740
S'D5JEH1'
p1741
aS'Q5C0H2'
p1742
asS'1.10.150.170'
p1743
(lp1744
S'G4LXT3'
p1745
asS'3.30.70.100'
p1746
(lp1747
S'Q5BQT7'
p1748
aS'G4VGF2'
p1749
asS'2.10.110.10'
p1750
(lp1751
S'C1L3Q6'
p1752
aS'G4LVB2'
p1753
asS'3.90.470.20'
p1754
(lp1755
S'Q5DCI8'
p1756
aS'G4VF78'
p1757
asS'3.30.310.50'
p1758
(lp1759
S'Q5DF02'
p1760
aS'C4QPU4'
p1761
asS'2.60.40.1330'
p1762
(lp1763
S'Q3KZB1'
p1764
aS'C4QII1'
p1765
asS'3.40.640.10'
p1766
(lp1767
S'A7UAX6'
p1768
aS'Q5C258'
p1769
asS'3.20.20.110'
p1770
(lp1771
sS'3.90.1180.10'
p1772
(lp1773
S'G4VGE1'
p1774
aS'C1LJK3'
p1775
asS'2.20.25.10'
p1776
(lp1777
S'C1LEQ0'
p1778
aS'G4LVZ6'
p1779
asS'3.40.309.10'
p1780
(lp1781
S'G4M1B6'
p1782
aS'C1LF69'
p1783
asS'1.20.58.120'
p1784
(lp1785
S'G4V7I5'
p1786
aS'B3W677'
p1787
asS'3.30.70.990'
p1788
(lp1789
sS'1.10.3140.10'
p1790
(lp1791
sS'1.10.2090.10'
p1792
(lp1793
sS'3.30.70.670'
p1794
(lp1795
sS'3.20.20.300'
p1796
(lp1797
S'G4VRX3'
p1798
asS'1.10.287.690'
p1799
(lp1800
sS'3.30.70.850'
p1801
(lp1802
S'G4V878'
p1803
aS'C1LEI4'
p1804
asS'3.20.20.210'
p1805
(lp1806
S'G4VSS2'
p1807
aS'C1L3V1'
p1808
asS'3.10.196.10'
p1809
(lp1810
sS'1.10.880.10'
p1811
(lp1812
S'B3GUW6'
p1813
aS'G4VT11'
p1814
asS'2.40.150.20'
p1815
(lp1816
S'G4V5P4'
p1817
aS'C1LC14'
p1818
asS'3.30.710.10'
p1819
(lp1820
S'C1L653'
p1821
aS'C1M0Q4'
p1822
asS'4.10.530.10'
p1823
(lp1824
sS'3.20.20.30'
p1825
(lp1826
sS'3.30.450.30'
p1827
(lp1828
S'C1LAS8'
p1829
aS'G4LWW9'
p1830
asS'1.10.870.10'
p1831
(lp1832
sS'1.20.5.990'
p1833
(lp1834
S'Q5C1L8'
p1835
aS'G4VFK5'
p1836
asS'1.20.1640.10'
p1837
(lp1838
S'Q5C0X8'
p1839
aS'G4M1J9'
p1840
asS'4.10.1140.10'
p1841
(lp1842
sS'3.50.30.40'
p1843
(lp1844
sS'3.40.50.2020'
p1845
(lp1846
S'C1L5R6'
p1847
aS'G4LWP0'
p1848
asS'3.30.450.70'
p1849
(lp1850
S'C1L6V6'
p1851
aS'G4M0H2'
p1852
asS'3.30.460.10'
p1853
(lp1854
S'G4LV53'
p1855
aS'C1L668'
p1856
asS'3.20.10.10'
p1857
(lp1858
sS'3.30.1330.90'
p1859
(lp1860
sS'2.40.128.120'
p1861
(lp1862
sS'2.60.40.650'
p1863
(lp1864
S'G4V8I5'
p1865
asS'1.10.8.10'
p1866
(lp1867
S'G4LYJ0'
p1868
aS'C1L4T5'
p1869
asS'2.40.30.10'
p1870
(lp1871
S'G4LUY4'
p1872
aS'Q5BTN1'
p1873
asS'1.10.645.10'
p1874
(lp1875
S'G4LUI6'
p1876
aS'C1L4W6'
p1877
asS'4.10.95.10'
p1878
(lp1879
sS'3.30.1330.50'
p1880
(lp1881
sS'3.30.63.10'
p1882
(lp1883
S'C1L4W2'
p1884
aS'G4LY48'
p1885
asS'1.10.287.990'
p1886
(lp1887
S'G4VSQ5'
p1888
aS'Q5DGW3'
p1889
asS'1.10.287.620'
p1890
(lp1891
S'C1LF04'
p1892
aS'G4LVL7'
p1893
asS'3.40.710.10'
p1894
(lp1895
S'G4VKT6'
p1896
aS'Q5BXM2'
p1897
asS'3.30.70.600'
p1898
(lp1899
S'G4LUY8'
p1900
aS'B3W655'
p1901
asS'3.30.70.830'
p1902
(lp1903
S'G4VBZ2'
p1904
aS'Q86FB2'
p1905
asS'3.30.860.10'
p1906
(lp1907
S'C1LBQ7'
p1908
aS'G4VJN9'
p1909
asS'3.90.1770.10'
p1910
(lp1911
S'G4VJ84'
p1912
asS'3.40.50.740'
p1913
(lp1914
S'G4LUK7'
p1915
aS'Q5BXF5'
p1916
asS'1.10.3590.10'
p1917
(lp1918
sS'3.40.50.960'
p1919
(lp1920
sS'1.20.20.10'
p1921
(lp1922
S'G4V5T1'
p1923
aS'B5B7Q4'
p1924
asS'3.30.1400.10'
p1925
(lp1926
sS'1.10.287.470'
p1927
(lp1928
S'G4V8A2'
p1929
aS'C1LFJ8'
p1930
asS'3.30.700.10'
p1931
(lp1932
sS'3.90.380.10'
p1933
(lp1934
sS'2.40.30.110'
p1935
(lp1936
S'G4V9G0'
p1937
asS'1.10.540.10'
p1938
(lp1939
S'G4VCG4'
p1940
asS'3.30.559.10'
p1941
(lp1942
S'G4LZ03'
p1943
aS'C1L595'
p1944
asS'2.20.28.20'
p1945
(lp1946
S'G4VFQ2'
p1947
asS'2.160.20.50'
p1948
(lp1949
S'Q5C132'
p1950
aS'G4VMK7'
p1951
asS'2.10.10.20'
p1952
(lp1953
sS'1.20.245.10'
p1954
(lp1955
S'Q5C0R3'
p1956
aS'G4V9T8'
p1957
asS'1.20.150.20'
p1958
(lp1959
S'Q5BSQ1'
p1960
aS'G4VLJ0'
p1961
asS'3.30.70.1430'
p1962
(lp1963
sS'1.10.40.40'
p1964
(lp1965
sS'1.10.1020.10'
p1966
(lp1967
sS'1.25.40.20'
p1968
(lp1969
S'G4LZI1'
p1970
aS'C1LDV1'
p1971
asS'2.60.120.400'
p1972
(lp1973
sS'4.10.870.10'
p1974
(lp1975
sS'1.10.10.140'
p1976
(lp1977
S'C4Q820'
p1978
aS'C1LM95'
p1979
asS'2.20.110.10'
p1980
(lp1981
S'G4LXF4'
p1982
aS'Q5DCE0'
p1983
asS'2.120.10.10'
p1984
(lp1985
sS'1.10.40.50'
p1986
(lp1987
sS'1.20.120.80'
p1988
(lp1989
S'Q1I0P3'
p1990
aS'B3W653'
p1991
aS'Q9B8X4'
p1992
asS'2.60.120.650'
p1993
(lp1994
S'Q5BVZ4'
p1995
aS'G4M088'
p1996
asS'3.40.1770.10'
p1997
(lp1998
sS'1.20.120.430'
p1999
(lp2000
S'Q5C7J6'
p2001
asS'1.10.150.180'
p2002
(lp2003
sS'1.20.1120.10'
p2004
(lp2005
sS'2.90.20.10'
p2006
(lp2007
S'Q5C3E4'
p2008
aS'G4LZS3'
p2009
asS'3.90.170.10'
p2010
(lp2011
S'C4QCD2'
p2012
aS'Q5D8V5'
p2013
asS'1.20.1680.10'
p2014
(lp2015
sS'3.30.420.80'
p2016
(lp2017
S'G4VH52'
p2018
aS'C1L722'
p2019
asS'3.40.50.360'
p2020
(lp2021
S'C1L3S0'
p2022
aS'G4LUL4'
p2023
asS'3.90.176.10'
p2024
(lp2025
sS'3.30.390.50'
p2026
(lp2027
sS'3.10.410.10'
p2028
(lp2029
sS'3.40.50.1970'
p2030
(lp2031
sS'1.20.85.10'
p2032
(lp2033
sS'1.20.1270.10'
p2034
(lp2035
S'Q5BYZ1'
p2036
aS'Q9BHK5'
p2037
asS'3.40.50.10280'
p2038
(lp2039
sS'3.30.70.1170'
p2040
(lp2041
S'G4LZF7'
p2042
aS'Q5BX76'
p2043
asS'1.10.1450.10'
p2044
(lp2045
S'C4Q3U8'
p2046
aS'A5JP10'
p2047
aS'Q26499'
p2048
asS'3.40.470.10'
p2049
(lp2050
S'C1LEA8'
p2051
aS'G4VHI3'
p2052
asS'1.10.560.10'
p2053
(lp2054
S'G4LWI2'
p2055
aS'B3GUU3'
p2056
asS'1.20.1630.10'
p2057
(lp2058
sS'4.10.950.10'
p2059
(lp2060
S'C1LBJ5'
p2061
aS'G4LY29'
p2062
asS'3.90.120.10'
p2063
(lp2064
S'G4LX14'
p2065
asS'3.40.50.1220'
p2066
(lp2067
S'G4VCC3'
p2068
aS'C1LH17'
p2069
asS'3.30.70.20'
p2070
(lp2071
S'G4LXI8'
p2072
aS'C1LE80'
p2073
asS'1.10.1410.20'
p2074
(lp2075
sS'1.20.1050.20'
p2076
(lp2077
sS'2.170.40.20'
p2078
(lp2079
sS'3.30.1730.10'
p2080
(lp2081
sS'1.10.375.10'
p2082
(lp2083
sS'1.20.5.260'
p2084
(lp2085
S'C1LRY2'
p2086
asS'2.60.40.350'
p2087
(lp2088
sS'3.30.342.10'
p2089
(lp2090
S'G4LZ59'
p2091
asS'1.20.250.10'
p2092
(lp2093
sS'3.40.50.620'
p2094
(lp2095
S'C1M0Q2'
p2096
aS'C1L4K4'
p2097
asS'3.90.15.10'
p2098
(lp2099
S'Q5BXE0'
p2100
aS'G4VRF9'
p2101
asS'3.90.10.10'
p2102
(lp2103
sS'1.20.950.20'
p2104
(lp2105
sS'1.20.120.160'
p2106
(lp2107
sS'4.10.710.10'
p2108
(lp2109
sS'4.10.140.10'
p2110
(lp2111
sS'1.20.1180.10'
p2112
(lp2113
sS'4.10.170.10'
p2114
(lp2115
sS'3.30.1530.10'
p2116
(lp2117
sS'1.20.140.20'
p2118
(lp2119
S'Q5BXW9'
p2120
aS'G4V9U6'
p2121
asS'1.10.287.650'
p2122
(lp2123
S'Q5C6Q6'
p2124
aS'C4QTS1'
p2125
asS'3.30.420.40'
p2126
(lp2127
S'C1L3Z1'
p2128
aS'C4QUB0'
p2129
asS'3.90.1780.10'
p2130
(lp2131
sS'1.10.510.10'
p2132
(lp2133
S'B3GUQ1'
p2134
aS'C4QJA8'
p2135
aS'D2JVC2'
p2136
asS'1.20.1250.20'
p2137
(lp2138
S'C4PYV9'
p2139
aS'C1L540'
p2140
asS'3.30.160.60'
p2141
(lp2142
S'Q5BVX4'
p2143
aS'G4VAH7'
p2144
asS'1.20.1540.10'
p2145
(lp2146
S'C1L484'
p2147
aS'G4V8F3'
p2148
asS'2.10.310.10'
p2149
(lp2150
S'G4LZN2'
p2151
aS'Q5D935'
p2152
asS'3.90.1170.50'
p2153
(lp2154
sS'3.10.450.50'
p2155
(lp2156
S'G4VJI9'
p2157
aS'C1L4X9'
p2158
asS'1.10.12.10'
p2159
(lp2160
sS'3.30.1370.10'
p2161
(lp2162
S'G4LYQ9'
p2163
aS'C1L3W5'
p2164
asS'3.40.50.980'
p2165
(lp2166
S'C1LFE4'
p2167
aS'G4VQY9'
p2168
asS'2.20.120.10'
p2169
(lp2170
sS'4.10.49.10'
p2171
(lp2172
S'C1L8Z5'
p2173
aS'G4VSZ8'
p2174
asS'3.40.20.10'
p2175
(lp2176
S'G4LX89'
p2177
aS'C1L4C4'
p2178
asS'3.40.50.2030'
p2179
(lp2180
sS'3.90.1600.10'
p2181
(lp2182
S'Q5BZ17'
p2183
aS'G4LX42'
p2184
asS'2.60.40.1270'
p2185
(lp2186
sS'2.60.15.10'
p2187
(lp2188
S'C4QJA1'
p2189
aS'C1L798'
p2190
asS'3.30.1490.30'
p2191
(lp2192
S'G4VPA9'
p2193
asS'2.140.10.20'
p2194
(lp2195
S'C1LAI6'
p2196
aS'G4VIF4'
p2197
asS'1.10.132.20'
p2198
(lp2199
S'Q5C425'
p2200
asS'3.30.170.10'
p2201
(lp2202
S'C1LJY4'
p2203
aS'G4VHW3'
p2204
asS'2.70.170.10'
p2205
(lp2206
S'A6QL44'
p2207
aS'Q5BQU5'
p2208
aS'C4Q9B3'
p2209
asS'4.10.890.10'
p2210
(lp2211
sS'1.10.3210.10'
p2212
(lp2213
S'C1LE10'
p2214
aS'G4VCL3'
p2215
asS'1.20.120.30'
p2216
(lp2217
sS'3.30.1490.20'
p2218
(lp2219
S'C1L4E9'
p2220
aS'G4LX99'
p2221
asS'1.10.3430.10'
p2222
(lp2223
sS'2.30.42.10'
p2224
(lp2225
S'B3GUZ0'
p2226
aS'G4LWH3'
p2227
asS'1.20.140.10'
p2228
(lp2229
S'Q5BYZ5'
p2230
aS'G4VCG4'
p2231
asS'1.20.1560.10'
p2232
(lp2233
S'Q5C7Z5'
p2234
aS'D5LRV4'
p2235
asS'3.65.10.10'
p2236
(lp2237
sS'3.40.367.20'
p2238
(lp2239
S'G4VIV9'
p2240
aS'Q5DEN8'
p2241
asS'4.10.280.30'
p2242
(lp2243
S'Q5C6B6'
p2244
asS'3.90.249.10'
p2245
(lp2246
sS'1.10.189.10'
p2247
(lp2248
sS'2.40.128.130'
p2249
(lp2250
sS'3.40.50.10790'
p2251
(lp2252
sS'4.10.260.10'
p2253
(lp2254
S'G4M241'
p2255
aS'C1LEC0'
p2256
asS'1.20.910.10'
p2257
(lp2258
sS'3.40.50.450'
p2259
(lp2260
S'G4LW05'
p2261
aS'Q5C1U5'
p2262
asS'4.10.1130.10'
p2263
(lp2264
S'G4V5Z2'
p2265
asS'2.60.40.1180'
p2266
(lp2267
S'C1L537'
p2268
aS'G4V966'
p2269
asS'2.170.14.10'
p2270
(lp2271
sS'1.10.287.950'
p2272
(lp2273
sS'3.10.20.120'
p2274
(lp2275
sS'3.30.470.30'
p2276
(lp2277
S'G4VBV7'
p2278
aS'Q5BZ60'
p2279
asS'1.10.1630.10'
p2280
(lp2281
sS'3.40.140.10'
p2282
(lp2283
S'G4V9Y6'
p2284
aS'C1LJX2'
p2285
asS'3.40.50.1000'
p2286
(lp2287
S'C1LFI7'
p2288
aS'C4Q4J8'
p2289
asS'1.10.1070.11'
p2290
(lp2291
S'G4VP29'
p2292
aS'Q5C0W1'
p2293
asS'3.90.1100.10'
p2294
(lp2295
S'G4VQP1'
p2296
aS'C1LF25'
p2297
asS'3.40.50.10490'
p2298
(lp2299
S'G4VAS0'
p2300
aS'C1LA78'
p2301
asS'3.30.70.150'
p2302
(lp2303
sS'2.60.120.330'
p2304
(lp2305
sS'3.40.50.1360'
p2306
(lp2307
S'G4LUQ5'
p2308
aS'C1LEM3'
p2309
asS'3.30.1060.10'
p2310
(lp2311
sS'2.70.210.12'
p2312
(lp2313
S'Q5BYE1'
p2314
aS'G4LZ58'
p2315
asS'1.10.150.120'
p2316
(lp2317
sS'3.30.1330.30'
p2318
(lp2319
S'G4LUJ5'
p2320
aS'C1L7Y8'
p2321
asS'2.160.20.10'
p2322
(lp2323
S'G4V6K6'
p2324
asS'3.30.70.960'
p2325
(lp2326
S'G4VER0'
p2327
aS'C1LNK2'
p2328
asS'3.40.225.10'
p2329
(lp2330
S'Q5C1F6'
p2331
aS'G4V775'
p2332
asS'1.50.10.20'
p2333
(lp2334
S'G4VI00'
p2335
aS'Q5BZH7'
p2336
asS'3.60.20.30'
p2337
(lp2338
S'G4V9Q9'
p2339
aS'Q5DGG1'
p2340
asS'3.30.500.10'
p2341
(lp2342
S'D2SY10'
p2343
asS'2.60.40.830'
p2344
(lp2345
sS'3.30.750.24'
p2346
(lp2347
S'G4VIT5'
p2348
aS'Q5C5W4'
p2349
asS'2.60.200.10'
p2350
(lp2351
S'C1LFV7'
p2352
aS'G4V9S6'
p2353
asS'3.10.130.10'
p2354
(lp2355
sS'1.10.1240.10'
p2356
(lp2357
sS'2.40.128.30'
p2358
(lp2359
sS'3.10.10.10'
p2360
(lp2361
S'G4VK73'
p2362
aS'Q5BRL7'
p2363
asS'2.70.240.10'
p2364
(lp2365
sS'3.90.1310.10'
p2366
(lp2367
sS'2.40.20.10'
p2368
(lp2369
S'G4LX52'
p2370
asS'3.40.50.10240'
p2371
(lp2372
sS'2.60.120.200'
p2373
(lp2374
S'C1L9B0'
p2375
aS'C4Q5I7'
p2376
asS'2.60.120.280'
p2377
(lp2378
sS'3.30.499.10'
p2379
(lp2380
S'G4VMI0'
p2381
aS'Q5BXP5'
p2382
asS'2.30.30.230'
p2383
(lp2384
sS'1.10.1870.10'
p2385
(lp2386
sS'3.10.105.10'
p2387
(lp2388
sS'2.60.260.40'
p2389
(lp2390
S'C1M0L1'
p2391
aS'Q5DC02'
p2392
asS'3.10.600.10'
p2393
(lp2394
S'G4V7Q4'
p2395
aS'Q5DFC2'
p2396
asS'3.20.20.60'
p2397
(lp2398
S'G4VAH9'
p2399
aS'Q5C2V0'
p2400
asS'1.20.5.190'
p2401
(lp2402
S'C1M0Q9'
p2403
aS'Q5D903'
p2404
asS'1.20.58.390'
p2405
(lp2406
S'A6QL44'
p2407
aS'G4VGC1'
p2408
aS'Q5DEI5'
p2409
asS'1.10.1840.10'
p2410
(lp2411
sS'3.40.50.410'
p2412
(lp2413
S'G4VPZ8'
p2414
aS'C1LNP9'
p2415
asS'1.10.287.480'
p2416
(lp2417
sS'3.30.2070.10'
p2418
(lp2419
sS'3.30.1550.10'
p2420
(lp2421
S'G4V9G5'
p2422
aS'Q5BT17'
p2423
asS'2.60.40.230'
p2424
(lp2425
sS'1.10.238.70'
p2426
(lp2427
sS'1.10.2030.10'
p2428
(lp2429
sS'4.10.400.10'
p2430
(lp2431
S'G4LZA8'
p2432
aS'Q9U8F4'
p2433
asS'1.10.3820.10'
p2434
(lp2435
sS'3.40.850.10'
p2436
(lp2437
S'C4Q3A1'
p2438
aS'C7TZG7'
p2439
asS'3.10.450.100'
p2440
(lp2441
sS'1.10.490.10'
p2442
(lp2443
S'B3GUR1'
p2444
aS'G4LZC6'
p2445
asS'3.40.50.80'
p2446
(lp2447
S'Q5D9L4'
p2448
aS'G4LUL4'
p2449
asS'3.40.50.670'
p2450
(lp2451
S'G4VPA9'
p2452
asS'1.10.1610.10'
p2453
(lp2454
sS'1.10.1300.10'
p2455
(lp2456
S'Q5BYM4'
p2457
aS'G4LUV5'
p2458
asS'2.140.10.30'
p2459
(lp2460
S'G4LZX1'
p2461
aS'Q5C544'
p2462
asS'1.25.40.190'
p2463
(lp2464
S'G4V6Z7'
p2465
aS'B3GUW2'
p2466
asS'2.40.40.20'
p2467
(lp2468
S'G4M0P6'
p2469
aS'C1LF61'
p2470
asS'3.30.450.80'
p2471
(lp2472
sS'3.90.350.10'
p2473
(lp2474
sS'3.40.630.10'
p2475
(lp2476
S'D6BNU4'
p2477
aS'C1L5C5'
p2478
asS'3.90.550.10'
p2479
(lp2480
S'G4LUT9'
p2481
aS'C1L3U3'
p2482
asS'1.25.10.20'
p2483
(lp2484
S'G4LYV7'
p2485
asS'2.40.230.20'
p2486
(lp2487
sS'3.40.50.1260'
p2488
(lp2489
S'C1LAI8'
p2490
aS'G4VG19'
p2491
asS'3.40.910.10'
p2492
(lp2493
S'G4VCR2'
p2494
aS'Q3KTG9'
p2495
asS'3.30.1380.20'
p2496
(lp2497
S'C1L4I1'
p2498
aS'G4V9C2'
p2499
asS'1.10.287.90'
p2500
(lp2501
S'G9B0Z9'
p2502
aS'Q9MD49'
p2503
asS'2.170.160.10'
p2504
(lp2505
sS'3.10.250.10'
p2506
(lp2507
S'G4V6Q5'
p2508
asS'1.20.5.220'
p2509
(lp2510
S'C1L9N2'
p2511
asS'3.40.1010.10'
p2512
(lp2513
S'G4VPC1'
p2514
asS'3.30.1320.10'
p2515
(lp2516
S'Q5DEQ7'
p2517
aS'G4LV29'
p2518
asS'3.40.1450.10'
p2519
(lp2520
sS'3.30.70.60'
p2521
(lp2522
S'G4VNA1'
p2523
aS'C1LNE5'
p2524
asS'2.40.50.140'
p2525
(lp2526
S'C1L3R9'
p2527
aS'G4LXC4'
p2528
asS'3.30.70.1440'
p2529
(lp2530
sS'1.20.5.340'
p2531
(lp2532
S'G4LWJ0'
p2533
aS'C1LDB4'
p2534
aS'A5A6F8'
p2535
asS'3.40.50.10330'
p2536
(lp2537
S'G4LVU2'
p2538
aS'C1LJ80'
p2539
asS'1.10.530.40'
p2540
(lp2541
sS'3.40.449.10'
p2542
(lp2543
S'G4V721'
p2544
aS'Q5DGF3'
p2545
asS'3.40.50.1460'
p2546
(lp2547
S'G4VD88'
p2548
aS'Q5BXY2'
p2549
asS'3.10.50.10'
p2550
(lp2551
sS'3.30.990.10'
p2552
(lp2553
sS'3.40.50.10230'
p2554
(lp2555
sS'2.60.120.230'
p2556
(lp2557
S'G4VCA0'
p2558
aS'C1LS63'
p2559
asS'1.10.3520.10'
p2560
(lp2561
S'C1LFI2'
p2562
aS'C1M142'
p2563
asS'2.60.11.10'
p2564
(lp2565
S'C1L926'
p2566
aS'C4Q308'
p2567
asS'1.20.1070.10'
p2568
(lp2569
S'C1LEE2'
p2570
aS'C4QJX8'
p2571
asS'3.90.1300.10'
p2572
(lp2573
S'G4LYL3'
p2574
aS'Q5BWE9'
p2575
asS'1.10.287.1010'
p2576
(lp2577
sS'3.30.70.340'
p2578
(lp2579
S'C4N149'
p2580
aS'C4QKW6'
p2581
asS'3.30.365.10'
p2582
(lp2583
sS'3.40.50.1480'
p2584
(lp2585
S'G4LX02'
p2586
aS'C1L5M9'
p2587
asS'3.30.56.10'
p2588
(lp2589
S'Q5DGS2'
p2590
aS'G4LV70'
p2591
asS'3.40.250.10'
p2592
(lp2593
S'G4V5X6'
p2594
aS'C1L7E1'
p2595
asS'1.20.120.150'
p2596
(lp2597
S'G4VCG1'
p2598
asS'1.10.287.210'
p2599
(lp2600
sS'4.10.220.20'
p2601
(lp2602
sS'2.40.160.60'
p2603
(lp2604
sS'2.30.30.30'
p2605
(lp2606
S'G4LWB3'
p2607
aS'C1LAK1'
p2608
asS'3.30.1380.10'
p2609
(lp2610
S'Q5C1N4'
p2611
aS'G4VHZ0'
p2612
asS'3.30.2140.10'
p2613
(lp2614
sS'3.10.450.10'
p2615
(lp2616
S'C1LAB5'
p2617
aS'B8Y6H4'
p2618
asS'1.20.59.10'
p2619
(lp2620
sS'3.40.50.300'
p2621
(lp2622
S'A1XBS0'
p2623
aS'C1M0V8'
p2624
asS'3.90.1170.10'
p2625
(lp2626
S'C1LTH2'
p2627
aS'G4M0K4'
p2628
asS'2.170.140.10'
p2629
(lp2630
sS'3.30.1300.10'
p2631
(lp2632
sS'3.90.1340.10'
p2633
(lp2634
sS'4.10.900.10'
p2635
(lp2636
S'G4VKX3'
p2637
asS'3.30.300.30'
p2638
(lp2639
S'Q5BS93'
p2640
aS'G4LY16'
p2641
asS'2.70.220.10'
p2642
(lp2643
sS'3.30.40.10'
p2644
(lp2645
S'B3GUZ8'
p2646
aS'C4QU04'
p2647
asS'3.90.215.10'
p2648
(lp2649
S'Q5D8X6'
p2650
asS'1.10.8.50'
p2651
(lp2652
S'G4VH28'
p2653
aS'Q5DAC4'
p2654
asS'3.30.70.250'
p2655
(lp2656
S'G4M0A2'
p2657
aS'C7TXZ9'
p2658
asS'1.10.30.10'
p2659
(lp2660
S'Q6Q478'
p2661
aS'C1LF99'
p2662
aS'G4LV66'
p2663
asS'3.30.760.10'
p2664
(lp2665
S'G4VCF5'
p2666
aS'Q5DGB4'
p2667
asS'3.15.10.10'
p2668
(lp2669
sS'1.20.1050.10'
p2670
(lp2671
S'C1LCH6'
p2672
aS'G4LV03'
p2673
aS'P30114'
p2674
asS'4.10.81.20'
p2675
(lp2676
sS'3.60.60.10'
p2677
(lp2678
sS'3.90.228.10'
p2679
(lp2680
S'G4M0L0'
p2681
aS'Q5BW72'
p2682
asS'3.30.387.10'
p2683
(lp2684
sS'3.40.950.10'
p2685
(lp2686
S'G4V773'
p2687
asS'2.170.190.11'
p2688
(lp2689
S'G4LZ84'
p2690
asS'3.40.50.170'
p2691
(lp2692
S'Q5BZJ0'
p2693
aS'G4LX97'
p2694
asS'2.20.100.10'
p2695
(lp2696
S'G4VGP2'
p2697
aS'Q5BWB5'
p2698
asS'2.30.38.10'
p2699
(lp2700
S'C1L632'
p2701
aS'G4VQZ1'
p2702
asS'2.30.30.160'
p2703
(lp2704
S'Q5BWU5'
p2705
aS'G4LWC7'
p2706
asS'2.60.120.380'
p2707
(lp2708
S'G4LXK2'
p2709
aS'A5A6F7'
p2710
aS'C1L4W3'
p2711
asS'3.40.50.10190'
p2712
(lp2713
S'G4V908'
p2714
aS'C1LG27'
p2715
asS'3.30.46.10'
p2716
(lp2717
sS'4.10.840.10'
p2718
(lp2719
sS'1.20.1440.90'
p2720
(lp2721
sS'3.30.2090.10'
p2722
(lp2723
sS'1.10.575.10'
p2724
(lp2725
sS'3.40.190.80'
p2726
(lp2727
S'G4VTV1'
p2728
aS'C1L4U6'
p2729
asS'3.90.810.10'
p2730
(lp2731
S'G4M136'
p2732
asS'1.20.210.10'
p2733
(lp2734
S'C5I6T0'
p2735
aS'B2D0Q6'
p2736
aS'B0FNB5'
p2737
asS'1.10.150.20'
p2738
(lp2739
S'C1LDH2'
p2740
aS'G4LWC6'
p2741
asS'1.20.1060.10'
p2742
(lp2743
S'G4VND8'
p2744
asS'3.90.1330.10'
p2745
(lp2746
sS'1.10.579.10'
p2747
(lp2748
S'G4LVC5'
p2749
aS'C1LEH0'
p2750
asS'2.60.40.150'
p2751
(lp2752
S'C1L4J4'
p2753
aS'G4LWG8'
p2754
asS'2.40.300.10'
p2755
(lp2756
sS'2.60.98.10'
p2757
(lp2758
sS'2.170.130.10'
p2759
(lp2760
sS'3.40.800.20'
p2761
(lp2762
S'A5H658'
p2763
aS'C1LDW8'
p2764
asS'3.40.1380.10'
p2765
(lp2766
S'G4LVB7'
p2767
aS'C1LBB8'
p2768
asS'3.30.930.10'
p2769
(lp2770
S'C1M2T7'
p2771
aS'C1L3N2'
p2772
asS'1.20.5.450'
p2773
(lp2774
S'C1LD79'
p2775
aS'G4VND0'
p2776
asS'3.20.70.20'
p2777
(lp2778
S'G4VIG3'
p2779
aS'C7TZG4'
p2780
asS'3.40.600.10'
p2781
(lp2782
sS'1.10.260.30'
p2783
(lp2784
S'G4VKV4'
p2785
aS'C7TXS6'
p2786
asS'3.40.1080.10'
p2787
(lp2788
S'G4V5J1'
p2789
aS'Q5D9U6'
p2790
asS'1.10.3260.10'
p2791
(lp2792
S'G4LYZ4'
p2793
aS'Q5C3W5'
p2794
asS'3.30.1390.30'
p2795
(lp2796
sS'3.30.70.560'
p2797
(lp2798
sS'1.10.150.90'
p2799
(lp2800
sS'3.20.20.120'
p2801
(lp2802
S'P33676'
p2803
aS'G4LYE2'
p2804
asS'2.60.40.1300'
p2805
(lp2806
sS'1.10.1650.10'
p2807
(lp2808
S'G4LVM3'
p2809
aS'C1LDT1'
p2810
asS'3.40.718.10'
p2811
(lp2812
S'G4LUW3'
p2813
aS'C1L761'
p2814
asS'2.30.60.10'
p2815
(lp2816
sS'3.90.520.10'
p2817
(lp2818
S'A4VC64'
p2819
aS'Q5C305'
p2820
asS'1.20.80.30'
p2821
(lp2822
sS'1.10.150.240'
p2823
(lp2824
S'Q5D9I2'
p2825
asS'1.10.620.20'
p2826
(lp2827
S'Q5BRK1'
p2828
aS'C4QCA2'
p2829
asS'1.10.600.10'
p2830
(lp2831
S'C1M0K9'
p2832
aS'C1L545'
p2833
asS'3.30.1360.20'
p2834
(lp2835
S'G4VKX2'
p2836
aS'Q86E70'
p2837
asS'1.20.120.530'
p2838
(lp2839
sS'1.20.5.390'
p2840
(lp2841
S'C1L512'
p2842
aS'G4VFR2'
p2843
asS'3.40.50.1370'
p2844
(lp2845
S'G4VEM7'
p2846
asS'2.40.240.10'
p2847
(lp2848
S'C1L4U3'
p2849
aS'G4V8J0'
p2850
asS'2.160.30.10'
p2851
(lp2852
sS'4.10.410.10'
p2853
(lp2854
S'G4VBB1'
p2855
aS'C1L478'
p2856
asS'3.30.750.60'
p2857
(lp2858
sS'2.20.70.10'
p2859
(lp2860
S'C1LFT4'
p2861
aS'G4V956'
p2862
asS'3.40.50.9100'
p2863
(lp2864
sS'1.10.4010.10'
p2865
(lp2866
sS'3.40.366.10'
p2867
(lp2868
S'G4M0A2'
p2869
aS'Q5BZU2'
p2870
asS'1.25.40.70'
p2871
(lp2872
S'Q5BYQ1'
p2873
aS'G4LXS4'
p2874
asS'4.10.230.10'
p2875
(lp2876
sS'4.10.1250.10'
p2877
(lp2878
S'G4V9G0'
p2879
asS'1.20.5.150'
p2880
(lp2881
sS'1.20.810.10'
p2882
(lp2883
S'Q1I0P2'
p2884
aS'B0FNB8'
p2885
aS'I6LB10'
p2886
asS'1.10.1410.10'
p2887
(lp2888
S'G4LWJ3'
p2889
aS'C1LE67'
p2890
asS'2.40.10.250'
p2891
(lp2892
sS'3.30.310.80'
p2893
(lp2894
S'C4QUG1'
p2895
aS'Q5BWC8'
p2896
asS'3.30.450.20'
p2897
(lp2898
S'G4VT54'
p2899
aS'Q5DAD6'
p2900
asS'3.20.20.20'
p2901
(lp2902
sS'3.40.50.1760'
p2903
(lp2904
S'G4VNT9'
p2905
aS'C1L3Q0'
p2906
asS'2.10.77.10'
p2907
(lp2908
sS'3.40.1510.10'
p2909
(lp2910
sS'1.20.5.620'
p2911
(lp2912
sS'4.10.51.10'
p2913
(lp2914
sS'3.90.420.10'
p2915
(lp2916
S'G4V8I5'
p2917
asS'2.40.340.10'
p2918
(lp2919
S'G4LZ83'
p2920
aS'Q5DGM2'
p2921
asS'2.60.40.700'
p2922
(lp2923
sS'3.40.1370.10'
p2924
(lp2925
S'G4V6B7'
p2926
aS'C1L880'
p2927
asS'3.30.300.20'
p2928
(lp2929
S'C4Q4Q6'
p2930
aS'Q5BRF4'
p2931
asS'3.30.70.360'
p2932
(lp2933
S'C4Q2I8'
p2934
asS'3.30.70.860'
p2935
(lp2936
sS'1.10.150.80'
p2937
(lp2938
S'G4V5P6'
p2939
aS'C1LHK1'
p2940
asS'3.20.140.10'
p2941
(lp2942
S'G4VE80'
p2943
aS'Q5C0H3'
p2944
asS'1.10.3660.10'
p2945
(lp2946
sS'3.40.140.20'
p2947
(lp2948
sS'3.30.505.10'
p2949
(lp2950
S'G4LVC3'
p2951
aS'Q5BVT1'
p2952
asS'3.20.20.220'
p2953
(lp2954
S'C7TYZ6'
p2955
aS'G4VHM2'
p2956
asS'2.60.40.1210'
p2957
(lp2958
sS'2.60.30.10'
p2959
(lp2960
sS'3.40.1390.10'
p2961
(lp2962
sS'3.90.370.10'
p2963
(lp2964
sS'3.55.30.10'
p2965
(lp2966
sS'3.40.50.220'
p2967
(lp2968
sS'2.60.40.1080'
p2969
(lp2970
sS'3.30.390.30'
p2971
(lp2972
S'G4LX00'
p2973
aS'B5THG7'
p2974
asS'2.40.260.10'
p2975
(lp2976
sS'4.10.1080.10'
p2977
(lp2978
S'Q6TA37'
p2979
aS'Q5C1H8'
p2980
asS'1.10.1670.10'
p2981
(lp2982
S'G4V5S0'
p2983
aS'Q5DA14'
p2984
asS'2.60.34.10'
p2985
(lp2986
S'C4QFY0'
p2987
aS'B3GUU7'
p2988
asS'3.40.220.10'
p2989
(lp2990
S'G4V945'
p2991
aS'C1L4X7'
p2992
asS'1.10.420.10'
p2993
(lp2994
sS'1.50.10.10'
p2995
(lp2996
S'C1L5F2'
p2997
aS'G4M1X2'
p2998
asS'3.30.1140.32'
p2999
(lp3000
S'C4Q4Q6'
p3001
aS'C1LC22'
p3002
asS'1.10.1470.20'
p3003
(lp3004
sS'3.90.55.10'
p3005
(lp3006
sS'3.40.1440.10'
p3007
(lp3008
S'Q5BX83'
p3009
aS'G4VIY0'
p3010
asS'3.30.70.380'
p3011
(lp3012
S'G4VKS1'
p3013
aS'Q5C108'
p3014
asS'1.20.5.680'
p3015
(lp3016
sS'1.20.190.20'
p3017
(lp3018
S'B3GUU0'
p3019
aS'G4LUI7'
p3020
asS'1.20.5.300'
p3021
(lp3022
S'Q5BWS7'
p3023
asS'3.90.660.10'
p3024
(lp3025
S'G4VDC3'
p3026
aS'Q5C5E5'
p3027
asS'3.90.1170.30'
p3028
(lp3029
sS'4.10.670.10'
p3030
(lp3031
sS'3.40.80.10'
p3032
(lp3033
sS'3.90.440.10'
p3034
(lp3035
sS'1.20.1000.10'
p3036
(lp3037
S'C1L3W9'
p3038
aS'G4VPP5'
p3039
asS'1.25.40.120'
p3040
(lp3041
S'G4LUP4'
p3042
aS'B5M6Z9'
p3043
asS'3.10.270.10'
p3044
(lp3045
sS'2.30.30.360'
p3046
(lp3047
S'C7TZG8'
p3048
aS'G4VPS2'
p3049
asS'3.40.275.10'
p3050
(lp3051
sS'2.30.24.10'
p3052
(lp3053
sS'3.30.519.10'
p3054
(lp3055
S'G4VC25'
p3056
aS'C1LEP2'
p3057
asS'1.10.720.30'
p3058
(lp3059
S'C1L4Y5'
p3060
aS'G4VN50'
p3061
asS'1.20.5.930'
p3062
(lp3063
S'Q5C1T9'
p3064
aS'C4PYZ0'
p3065
asS'3.60.120.10'
p3066
(lp3067
S'Q5BRM4'
p3068
asS'3.40.50.700'
p3069
(lp3070
S'G4V5Q1'
p3071
aS'C1LJN9'
p3072
asS'2.60.40.200'
p3073
(lp3074
S'G4M0C9'
p3075
aS'C1L8R5'
p3076
asS'2.60.40.360'
p3077
(lp3078
S'G4LVE3'
p3079
aS'C1L8W1'
p3080
asS'1.20.1600.10'
p3081
(lp3082
S'C4QB33'
p3083
aS'Q5BVG4'
p3084
asS'2.40.10.10'
p3085
(lp3086
S'Q8MUV5'
p3087
aS'G4M1L5'
p3088
aS'Q5BSE6'
p3089
asS'3.10.129.10'
p3090
(lp3091
S'G4V9Z7'
p3092
aS'C1L5N4'
p3093
asS'1.10.287.380'
p3094
(lp3095
S'G4M0N7'
p3096
aS'Q5C1B6'
p3097
asS'1.10.790.10'
p3098
(lp3099
sS'3.40.50.1810'
p3100
(lp3101
S'Q5DB25'
p3102
asS'3.40.1110.10'
p3103
(lp3104
S'Q3KZH9'
p3105
aS'C4QPU0'
p3106
asS'3.40.50.1860'
p3107
(lp3108
sS'1.10.287.610'
p3109
(lp3110
sS'3.20.19.10'
p3111
(lp3112
S'G4VMI0'
p3113
aS'C1L4H1'
p3114
asS'3.30.572.10'
p3115
(lp3116
S'Q5DEB3'
p3117
aS'G4V8Q8'
p3118
asS'2.10.25.10'
p3119
(lp3120
S'C1M2U2'
p3121
aS'C1L3R7'
p3122
asS'3.30.1180.10'
p3123
(lp3124
sS'1.25.10.10'
p3125
(lp3126
S'C4Q4S4'
p3127
aS'C1L4C9'
p3128
asS'1.10.260.40'
p3129
(lp3130
S'Q5BY20'
p3131
aS'G4LY22'
p3132
asS'1.10.287.140'
p3133
(lp3134
S'G4LYZ1'
p3135
aS'C1L6B7'
p3136
asS'3.40.1820.10'
p3137
(lp3138
sS'1.10.1790.10'
p3139
(lp3140
sS'3.50.50.60'
p3141
(lp3142
S'C4QJB2'
p3143
aS'C1L4K0'
p3144
asS'1.10.287.40'
p3145
(lp3146
S'G4V8U6'
p3147
aS'C1LMG6'
p3148
asS'1.10.3020.10'
p3149
(lp3150
sS'1.20.5.270'
p3151
(lp3152
S'G4VNI0'
p3153
aS'B3GUZ5'
p3154
asS'2.40.50.90'
p3155
(lp3156
S'Q5C0Q4'
p3157
aS'C4QP46'
p3158
asS'2.40.50.110'
p3159
(lp3160
sS'1.20.1110.10'
p3161
(lp3162
S'G4M0N6'
p3163
aS'Q5BWL2'
p3164
asS'3.90.76.10'
p3165
(lp3166
sS'2.10.109.10'
p3167
(lp3168
S'C1L6N8'
p3169
aS'G4VGP1'
p3170
asS'1.10.3730.10'
p3171
(lp3172
S'Q5BYJ6'
p3173
aS'G4V8Z5'
p3174
asS'3.40.1180.10'
p3175
(lp3176
S'B3GUV0'
p3177
aS'G4VNU3'
p3178
asS'2.10.280.10'
p3179
(lp3180
sS'3.90.1200.10'
p3181
(lp3182
S'Q5BZT8'
p3183
aS'G4VGA6'
p3184
asS'2.60.120.260'
p3185
(lp3186
S'C1LD59'
p3187
aS'G4VDF2'
p3188
asS'3.90.175.10'
p3189
(lp3190
S'G4M196'
p3191
aS'C1L788'
p3192
asS'2.60.60.20'
p3193
(lp3194
S'G4V9T7'
p3195
aS'Q5C6I2'
p3196
asS'2.10.270.10'
p3197
(lp3198
sS'4.10.1230.10'
p3199
(lp3200
sS'3.40.1280.10'
p3201
(lp3202
S'O17455'
p3203
aS'Q5DH58'
p3204
asS'3.30.9.10'
p3205
(lp3206
S'C1L3R6'
p3207
aS'G4LWL6'
p3208
asS'2.30.30.100'
p3209
(lp3210
S'C1M0J1'
p3211
aS'C1L4H2'
p3212
asS'3.40.350.10'
p3213
(lp3214
S'G4M1N3'
p3215
aS'C1LFE5'
p3216
asS'3.60.21.10'
p3217
(lp3218
S'C1LZY9'
p3219
aS'B3W654'
p3220
asS'2.70.98.20'
p3221
(lp3222
S'G4VGX8'
p3223
asS'1.20.5.1130'
p3224
(lp3225
sS'1.10.1370.10'
p3226
(lp3227
S'Q5BYU5'
p3228
aS'G4LW91'
p3229
asS'3.30.70.1180'
p3230
(lp3231
S'C1L793'
p3232
aS'G4M047'
p3233
asS'1.10.1040.10'
p3234
(lp3235
S'C4Q5J8'
p3236
aS'Q5C0T5'
p3237
asS'3.90.1170.40'
p3238
(lp3239
S'C1LFW6'
p3240
asS'3.90.70.10'
p3241
(lp3242
S'A5A6F7'
p3243
aS'B3W652'
p3244
aS'A5GXR8'
p3245
asS'1.10.2060.10'
p3246
(lp3247
sS'3.10.450.30'
p3248
(lp3249
sS'3.50.4.10'
p3250
(lp3251
S'Q5DBB4'
p3252
asS'1.20.990.10'
p3253
(lp3254
S'C1LE85'
p3255
aS'G4LUL4'
p3256
asS'3.10.310.10'
p3257
(lp3258
sS'3.30.62.10'
p3259
(lp3260
sS'3.90.199.10'
p3261
(lp3262
S'G4VPA9'
p3263
asS'2.60.40.1570'
p3264
(lp3265
sS'1.10.287.30'
p3266
(lp3267
sS'1.10.8.60'
p3268
(lp3269
S'Q5BW48'
p3270
aS'A9NI52'
p3271
asS'1.10.220.10'
p3272
(lp3273
S'G4LUW8'
p3274
aS'C1L650'
p3275
asS'1.10.287.20'
p3276
(lp3277
S'G4VT15'
p3278
aS'B3GUT1'
p3279
asS'1.20.58.60'
p3280
(lp3281
S'Q5BRC3'
p3282
aS'G4V9E7'
p3283
asS'3.30.70.80'
p3284
(lp3285
sS'3.30.160.40'
p3286
(lp3287
S'G4VRL5'
p3288
aS'C1LDH1'
p3289
asS'1.10.418.10'
p3290
(lp3291
S'G4LXQ9'
p3292
aS'B3GUZ6'
p3293
asS'3.30.160.70'
p3294
(lp3295
sS'3.30.1330.60'
p3296
(lp3297
sS'3.20.20.150'
p3298
(lp3299
sS'2.40.160.20'
p3300
(lp3301
sS'1.20.5.50'
p3302
(lp3303
S'C1L462'
p3304
aS'C1M0V9'
p3305
aS'A5A6F8'
p3306
asS'1.10.442.10'
p3307
(lp3308
S'G4VS06'
p3309
aS'C1LA99'
p3310
asS'3.40.50.1580'
p3311
(lp3312
S'G4LWY0'
p3313
aS'C1L5G7'
p3314
asS'1.10.246.20'
p3315
(lp3316
S'G4VEQ5'
p3317
asS'3.30.30.30'
p3318
(lp3319
S'C4QFY0'
p3320
aS'B3GUU7'
p3321
asS'4.10.92.10'
p3322
(lp3323
sS'3.90.600.10'
p3324
(lp3325
sS'2.60.120.180'
p3326
(lp3327
sS'3.90.1230.10'
p3328
(lp3329
sS'3.90.260.10'
p3330
(lp3331
sS'3.30.1510.10'
p3332
(lp3333
sS'3.10.20.10'
p3334
(lp3335
S'C1LB26'
p3336
asS'3.50.30.30'
p3337
(lp3338
S'G4VDJ3'
p3339
aS'Q5C2X8'
p3340
asS'1.20.1550.10'
p3341
(lp3342
sS'4.10.1090.10'
p3343
(lp3344
sS'1.20.142.10'
p3345
(lp3346
S'G4M0L0'
p3347
aS'Q5C0T7'
p3348
asS'3.30.2320.20'
p3349
(lp3350
sS'1.20.5.700'
p3351
(lp3352
sS'3.30.1130.10'
p3353
(lp3354
S'G4VFZ0'
p3355
asS'2.10.25.20'
p3356
(lp3357
sS'1.20.5.640'
p3358
(lp3359
sS'4.10.910.10'
p3360
(lp3361
S'C1L9P9'
p3362
aS'G4VH28'
p3363
asS'1.20.5.460'
p3364
(lp3365
sS'3.40.50.280'
p3366
(lp3367
sS'3.40.1120.10'
p3368
(lp3369
S'G4LYP0'
p3370
aS'B3GUU2'
p3371
asS'1.10.135.10'
p3372
(lp3373
S'P16641'
p3374
aS'C1LFZ8'
p3375
asS'3.30.70.420'
p3376
(lp3377
sS'1.10.1170.10'
p3378
(lp3379
S'C1LAE5'
p3380
aS'G4LZ60'
p3381
asS'3.40.50.1170'
p3382
(lp3383
S'Q5DEJ2'
p3384
aS'G4VJ31'
p3385
asS'1.20.900.10'
p3386
(lp3387
S'Q5BWE4'
p3388
aS'G4LZ97'
p3389
asS'2.60.40.1190'
p3390
(lp3391
sS'3.30.470.20'
p3392
(lp3393
S'G4V8R8'
p3394
aS'C1LEZ1'
p3395
asS'1.10.1330.10'
p3396
(lp3397
S'Q5DHW4'
p3398
aS'G4VDK5'
p3399
asS'2.60.40.420'
p3400
(lp3401
S'Q9MEU5'
p3402
aS'G9B0Z9'
p3403
aS'G4V8F0'
p3404
asS'3.40.50.1070'
p3405
(lp3406
sS'1.10.1000.11'
p3407
(lp3408
S'C4QNZ8'
p3409
aS'C1LFQ5'
p3410
asS'1.20.5.780'
p3411
(lp3412
sS'3.40.50.10440'
p3413
(lp3414
sS'3.30.70.240'
p3415
(lp3416
S'G4VI96'
p3417
aS'Q5DD28'
p3418
asS'2.30.30.10'
p3419
(lp3420
sS'1.10.150.60'
p3421
(lp3422
S'Q5C2V9'
p3423
aS'G4VD19'
p3424
asS'1.10.150.110'
p3425
(lp3426
S'G4VH71'
p3427
aS'Q5C5V9'
p3428
asS'2.60.40.1460'
p3429
(lp3430
sS'1.20.890.10'
p3431
(lp3432
S'G4VER9'
p3433
aS'C1LF58'
p3434
asS'1.20.1270.150'
p3435
(lp3436
sS'1.20.58.110'
p3437
(lp3438
sS'1.20.1090.10'
p3439
(lp3440
sS'2.50.20.10'
p3441
(lp3442
sS'1.10.287.150'
p3443
(lp3444
sS'1.10.238.10'
p3445
(lp3446
S'B3GV00'
p3447
aS'A5A6F6'
p3448
aS'C4Q2F2'
p3449
asS'2.60.40.1730'
p3450
(lp3451
S'G4M023'
p3452
aS'Q5BY44'
p3453
asS'3.30.980.10'
p3454
(lp3455
S'G4V6P2'
p3456
aS'Q5C0E7'
p3457
asS'1.10.3090.10'
p3458
(lp3459
S'G4VEK2'
p3460
asS'3.90.1620.10'
p3461
(lp3462
sS'3.30.1490.50'
p3463
(lp3464
S'C1L3Q0'
p3465
aS'G4VNT7'
p3466
asS'2.40.128.20'
p3467
(lp3468
S'G4M130'
p3469
aS'A5A6F5'
p3470
aS'B5B7Q8'
p3471
asS'2.60.200.20'
p3472
(lp3473
S'C1L717'
p3474
aS'C4QMA9'
p3475
asS'2.120.10.90'
p3476
(lp3477
sS'3.30.428.10'
p3478
(lp3479
S'C1L7D7'
p3480
aS'G4VBL9'
p3481
asS'3.30.200.20'
p3482
(lp3483
S'C1L7H5'
p3484
aS'C4QMU7'
p3485
aS'D2JVC2'
p3486
asS'3.30.1670.10'
p3487
(lp3488
sS'3.30.1490.80'
p3489
(lp3490
S'C1L3Q0'
p3491
asS'3.90.50.10'
p3492
(lp3493
sS'3.40.50.2000'
p3494
(lp3495
S'G4LVD0'
p3496
aS'C1L4V6'
p3497
asS'1.10.1280.10'
p3498
(lp3499
S'G4LWK1'
p3500
aS'H6QX60'
p3501
asS'3.40.50.1380'
p3502
(lp3503
S'G4VEM7'
p3504
asS'3.65.10.20'
p3505
(lp3506
S'C1LE24'
p3507
aS'G4VP84'
p3508
asS'3.30.230.70'
p3509
(lp3510
S'C1LFQ3'
p3511
aS'G4LX43'
p3512
asS'2.60.40.630'
p3513
(lp3514
sS'1.20.1220.12'
p3515
(lp3516
sS'3.10.490.10'
p3517
(lp3518
S'G4VNF4'
p3519
aS'Q5DCE9'
p3520
asS'1.20.120.640'
p3521
(lp3522
sS'1.10.520.10'
p3523
(lp3524
sS'2.60.40.320'
p3525
(lp3526
S'G4V8G3'
p3527
asS'1.10.340.30'
p3528
(lp3529
S'G4V5S0'
p3530
aS'Q5BZ67'
p3531
asS'3.30.70.330'
p3532
(lp3533
S'G4LWV3'
p3534
aS'A4GU99'
p3535
asS'3.40.50.1100'
p3536
(lp3537
S'Q5BWI3'
p3538
aS'G4LWZ5'
p3539
asS'3.40.570.10'
p3540
(lp3541
S'G4M111'
p3542
asS'2.60.40.1120'
p3543
(lp3544
S'G4LY69'
p3545
aS'C1LHE2'
p3546
asS'4.10.180.30'
p3547
(lp3548
sS'1.10.3330.10'
p3549
(lp3550
sS'3.30.386.10'
p3551
(lp3552
sS'4.10.270.10'
p3553
(lp3554
S'G4LUH3'
p3555
aS'Q5C356'
p3556
asS'3.90.1560.10'
p3557
(lp3558
sS'3.30.1490.100'
p3559
(lp3560
S'G4VAP7'
p3561
asS'1.10.287.80'
p3562
(lp3563
S'G4LVB6'
p3564
aS'C1LBB8'
p3565
asS'2.60.120.10'
p3566
(lp3567
S'C1L6U9'
p3568
aS'C1M2M7'
p3569
asS'3.20.90.10'
p3570
(lp3571
S'G4VQP4'
p3572
asS'1.10.3650.10'
p3573
(lp3574
sS'2.170.270.10'
p3575
(lp3576
S'C1L6A2'
p3577
aS'G4LYT0'
p3578
asS'2.40.100.10'
p3579
(lp3580
S'C4QM49'
p3581
aS'C1L4K1'
p3582
asS'2.40.230.10'
p3583
(lp3584
sS'2.70.98.30'
p3585
(lp3586
S'Q5D8N0'
p3587
aS'G4M0J4'
p3588
asS'3.30.70.900'
p3589
(lp3590
S'C1L5F0'
p3591
aS'G4VAF5'
p3592
asS'2.160.10.10'
p3593
(lp3594
S'C1L3Y9'
p3595
aS'G4LVH1'
p3596
asS'1.20.930.40'
p3597
(lp3598
S'G4VIQ5'
p3599
asS'2.60.500.10'
p3600
(lp3601
sS'3.60.90.10'
p3602
(lp3603
sS'4.10.91.10'
p3604
(lp3605
sS'4.10.790.10'
p3606
(lp3607
sS'1.25.40.40'
p3608
(lp3609
S'G4LUS6'
p3610
aS'C1L628'
p3611
asS'2.40.50.150'
p3612
(lp3613
S'G4VEG3'
p3614
aS'C1LF25'
p3615
asS'1.10.3860.10'
p3616
(lp3617
S'Q5BZ02'
p3618
aS'G4VKW8'
p3619
asS'4.10.81.10'
p3620
(lp3621
sS'1.10.275.10'
p3622
(lp3623
S'G4LVG5'
p3624
aS'A1XA55'
p3625
asS'3.30.1680.10'
p3626
(lp3627
S'G4V6Q4'
p3628
asS'1.20.5.490'
p3629
(lp3630
S'C4Q5J3'
p3631
aS'Q5DAS4'
p3632
asS'3.40.50.261'
p3633
(lp3634
S'G4LX99'
p3635
aS'Q5BS99'
p3636
asS'1.10.287.580'
p3637
(lp3638
sS'1.10.1760.10'
p3639
(lp3640
S'G4VSI1'
p3641
aS'C1L5L1'
p3642
asS'1.20.120.140'
p3643
(lp3644
S'G4VDN9'
p3645
aS'C7TXS6'
p3646
asS'2.60.40.550'
p3647
(lp3648
sS'1.10.167.10'
p3649
(lp3650
S'C1LE57'
p3651
aS'G4LY84'
p3652
asS'3.20.200.10'
p3653
(lp3654
S'C1LJ27'
p3655
aS'G4LY39'
p3656
asS'3.40.630.30'
p3657
(lp3658
S'C1L5V5'
p3659
aS'G4V884'
p3660
asS'2.60.40.920'
p3661
(lp3662
sS'2.60.40.710'
p3663
(lp3664
sS'2.130.10.10'
p3665
(lp3666
S'C1L4J2'
p3667
aS'C4Q352'
p3668
asS'2.170.9.10'
p3669
(lp3670
sS'1.10.601.10'
p3671
(lp3672
S'G4M0V5'
p3673
asS'3.30.70.1390'
p3674
(lp3675
S'C1LE76'
p3676
aS'G4VPR5'
p3677
asS'2.40.128.110'
p3678
(lp3679
sS'3.40.50.1950'
p3680
(lp3681
S'G4VHC6'
p3682
aS'Q5DHV8'
p3683
asS'2.60.90.10'
p3684
(lp3685
sS'3.30.2240.10'
p3686
(lp3687
S'Q5DGH0'
p3688
aS'G4LZ61'
p3689
asS'2.60.120.550'
p3690
(lp3691
S'G4LZA1'
p3692
aS'Q5BXI8'
p3693
asS'3.90.1210.10'
p3694
(lp3695
sS'2.170.170.11'
p3696
(lp3697
sS'1.20.920.10'
p3698
(lp3699
S'Q5BSP7'
p3700
aS'G4LUL9'
p3701
asS'2.60.120.20'
p3702
(lp3703
sS'3.10.330.10'
p3704
(lp3705
S'G4M0P6'
p3706
aS'C1L6H6'
p3707
asS'2.60.120.40'
p3708
(lp3709
S'G4M297'
p3710
asS'3.30.43.10'
p3711
(lp3712
sS'3.40.47.10'
p3713
(lp3714
S'G4VEI2'
p3715
aS'Q5BSM6'
p3716
asS'3.40.980.10'
p3717
(lp3718
S'C7TXS2'
p3719
aS'G4V7G7'
p3720
asS'3.30.70.120'
p3721
(lp3722
sS'3.90.770.10'
p3723
(lp3724
S'C1L525'
p3725
aS'C4Q5I9'
p3726
asS'1.10.287.70'
p3727
(lp3728
S'G4LYK1'
p3729
aS'C1L3N0'
p3730
asS'2.40.270.10'
p3731
(lp3732
S'G4VEG3'
p3733
aS'C1LF25'
p3734
asS'3.30.1360.120'
p3735
(lp3736
S'G4V9G0'
p3737
asS'2.60.40.1530'
p3738
(lp3739
S'G4VDY6'
p3740
aS'Q5C1T9'
p3741
asS'1.25.40.80'
p3742
(lp3743
S'G4LVC5'
p3744
aS'C1LEH0'
p3745
asS'3.40.1090.10'
p3746
(lp3747
S'Q5C3J4'
p3748
aS'G4VCI7'
p3749
asS'3.90.228.20'
p3750
(lp3751
S'G4V721'
p3752
aS'Q5DGF3'
p3753
asS'1.10.10.200'
p3754
(lp3755
S'G4LV96'
p3756
aS'C1LFS4'
p3757
asS'3.40.1410.10'
p3758
(lp3759
sS'3.20.20.190'
p3760
(lp3761
S'Q5BSL2'
p3762
aS'G4V7U6'
p3763
asS'3.40.50.7700'
p3764
(lp3765
sS'1.20.5.370'
p3766
(lp3767
S'C1LHX8'
p3768
aS'G4VKJ7'
p3769
as.